
gLCD.elf:     file format elf32-avr

Sections:
Idx Name          Size      VMA       LMA       File off  Algn
  0 .data         0000041c  00800100  000055bc  00005700  2**8
                  CONTENTS, ALLOC, LOAD, DATA
  1 .text         000055bc  00000000  00000000  000000b4  2**1
                  CONTENTS, ALLOC, LOAD, READONLY, CODE
  2 .bootloader   0000007c  0000e000  0000e000  00005b1c  2**0
                  CONTENTS, ALLOC, LOAD, READONLY, CODE
  3 .bss          000009ba  0080051c  0080051c  00005b98  2**0
                  ALLOC
  4 .debug_aranges 000000e8  00000000  00000000  00005b98  2**0
                  CONTENTS, READONLY, DEBUGGING
  5 .debug_pubnames 00000dde  00000000  00000000  00005c80  2**0
                  CONTENTS, READONLY, DEBUGGING
  6 .debug_info   00002d65  00000000  00000000  00006a5e  2**0
                  CONTENTS, READONLY, DEBUGGING
  7 .debug_abbrev 00000a7a  00000000  00000000  000097c3  2**0
                  CONTENTS, READONLY, DEBUGGING
  8 .debug_line   00002a60  00000000  00000000  0000a23d  2**0
                  CONTENTS, READONLY, DEBUGGING
  9 .debug_frame  00000890  00000000  00000000  0000cca0  2**2
                  CONTENTS, READONLY, DEBUGGING
 10 .debug_str    00000ff8  00000000  00000000  0000d530  2**0
                  CONTENTS, READONLY, DEBUGGING
 11 .debug_loc    00002174  00000000  00000000  0000e528  2**0
                  CONTENTS, READONLY, DEBUGGING
 12 .debug_ranges 00000070  00000000  00000000  0001069c  2**0
                  CONTENTS, READONLY, DEBUGGING

Disassembly of section .text:

00000000 <__vectors>:
       0:	0c 94 0c 09 	jmp	0x1218	; 0x1218 <__ctors_end>
       4:	0c 94 29 09 	jmp	0x1252	; 0x1252 <__bad_interrupt>
       8:	0c 94 29 09 	jmp	0x1252	; 0x1252 <__bad_interrupt>
       c:	0c 94 29 09 	jmp	0x1252	; 0x1252 <__bad_interrupt>
      10:	0c 94 29 09 	jmp	0x1252	; 0x1252 <__bad_interrupt>
      14:	0c 94 b7 13 	jmp	0x276e	; 0x276e <__vector_5>
      18:	0c 94 b8 10 	jmp	0x2170	; 0x2170 <__vector_6>
      1c:	0c 94 29 09 	jmp	0x1252	; 0x1252 <__bad_interrupt>
      20:	0c 94 93 13 	jmp	0x2726	; 0x2726 <__vector_8>
      24:	0c 94 29 09 	jmp	0x1252	; 0x1252 <__bad_interrupt>
      28:	0c 94 29 09 	jmp	0x1252	; 0x1252 <__bad_interrupt>
      2c:	0c 94 29 09 	jmp	0x1252	; 0x1252 <__bad_interrupt>
      30:	0c 94 bc 0f 	jmp	0x1f78	; 0x1f78 <__vector_12>
      34:	0c 94 29 09 	jmp	0x1252	; 0x1252 <__bad_interrupt>
      38:	0c 94 29 09 	jmp	0x1252	; 0x1252 <__bad_interrupt>
      3c:	0c 94 29 09 	jmp	0x1252	; 0x1252 <__bad_interrupt>
      40:	0c 94 29 09 	jmp	0x1252	; 0x1252 <__bad_interrupt>
      44:	0c 94 29 09 	jmp	0x1252	; 0x1252 <__bad_interrupt>
      48:	0c 94 db 13 	jmp	0x27b6	; 0x27b6 <__vector_18>
      4c:	0c 94 05 14 	jmp	0x280a	; 0x280a <__vector_19>
      50:	0c 94 29 09 	jmp	0x1252	; 0x1252 <__bad_interrupt>
      54:	0c 94 29 09 	jmp	0x1252	; 0x1252 <__bad_interrupt>
      58:	0c 94 29 09 	jmp	0x1252	; 0x1252 <__bad_interrupt>
      5c:	0c 94 29 09 	jmp	0x1252	; 0x1252 <__bad_interrupt>
      60:	0c 94 29 09 	jmp	0x1252	; 0x1252 <__bad_interrupt>
      64:	0c 94 29 09 	jmp	0x1252	; 0x1252 <__bad_interrupt>
      68:	0c 94 29 09 	jmp	0x1252	; 0x1252 <__bad_interrupt>
      6c:	0c 94 29 09 	jmp	0x1252	; 0x1252 <__bad_interrupt>
      70:	0c 94 29 09 	jmp	0x1252	; 0x1252 <__bad_interrupt>
      74:	0c 94 29 09 	jmp	0x1252	; 0x1252 <__bad_interrupt>
      78:	0c 94 8b 14 	jmp	0x2916	; 0x2916 <__vector_30>
      7c:	0c 94 b7 14 	jmp	0x296e	; 0x296e <__vector_31>
      80:	0c 94 29 09 	jmp	0x1252	; 0x1252 <__bad_interrupt>
      84:	0c 94 29 09 	jmp	0x1252	; 0x1252 <__bad_interrupt>
      88:	0c 94 29 09 	jmp	0x1252	; 0x1252 <__bad_interrupt>

0000008c <__c.1790>:
      8c:	6e 61 6e 00                                         nan.

00000090 <__c.1788>:
      90:	69 6e 66 00                                         inf.

00000094 <rotatedheadings>:
      94:	24 7e 0a 0f 20 60 00 02 05 08 07 0b 0a 02 04 04     $~.. `..........
      a4:	05 08 03 03 02 07 07 06 07 07 07 07 07 07 07 07     ................
      b4:	02 03 07 08 07 06 0c 0a 07 07 08 06 06 08 08 02     ................
      c4:	04 08 06 0c 09 09 07 0a 07 06 08 08 09 0f 07 08     ................
      d4:	08 03 07 03 07 08 03 06 07 05 07 06 05 07 07 02     ................
      e4:	03 07 02 0a 07 07 07 07 05 04 05 07 08 0c 07 08     ................
      f4:	04 04 02 04 07 08 fe fe 1a 1a 1e 1e 00 1e 1e 00     ................
     104:	00 00 00 00 20 a0 fc 7c a0 fc 7c 20 02 1e 1e 02     .... ..|..| ....
     114:	1e 1e 02 02 38 7c ec cf cf 8c 18 0c 18 78 78 1a     ....8|.......xx.
     124:	1e 0e 38 7c 44 7c b8 c0 70 b8 8c 84 00 00 10 18     ..8|D|..p.......
     134:	0e 06 00 0e 1e 10 1e 0e 18 d8 f8 30 78 d8 98 98     ...........0x...
     144:	f8 70 00 00 00 1c 3e 32 32 3e 1c 00 1e 1e 00 00     .p....>22>......
     154:	e0 fc 1e 02 0e 7e f0 80 02 1e fc e0 80 f0 7e 0e     .....~........~.
     164:	24 18 7e 18 24 00 00 00 00 00 c0 c0 c0 f8 f8 c0     $.~.$...........
     174:	c0 c0 00 00 00 0e 0e 00 00 00 00 00 00 40 78 38     .............@x8
     184:	80 80 80 02 02 02 18 18 00 00 00 00 80 f0 7c 0f     ..............|.
     194:	03 60 78 1e 06 00 00 00 f0 f8 18 18 18 f8 f0 1e     .`x.............
     1a4:	3e 30 30 30 3e 1e 18 18 f8 f8 18 18 00 00 3e 3e     >000>.........>>
     1b4:	18 18 18 18 98 d8 78 38 18 1c 3e 32 30 30 30 18     ......x8..>2000.
     1c4:	f0 f8 98 98 98 98 30 1c 3e 32 32 32 32 18 60 f8     ......0.>2222.`.
     1d4:	f8 60 60 e0 e0 00 3e 3e 18 1e 06 00 f0 f8 98 98     .``...>>........
     1e4:	98 98 b0 30 32 32 32 32 3e 3e f0 f8 98 98 98 f8     ...02222>>......
     1f4:	f0 30 32 32 32 38 1e 0e 00 00 80 e0 78 18 00 30     .02228......x..0
     204:	3c 3e 32 30 30 30 70 f8 98 98 98 f8 70 1c 3e 32     <>2000p.....p.>2
     214:	32 32 3e 1c e0 f0 38 98 98 98 18 1e 3e 32 32 32     22>...8.....>222
     224:	3e 1e 18 18 06 06 00 60 60 40 78 38 30 30 60 60     >......``@x800``
     234:	c0 c0 80 18 18 0c 0c 06 06 02 30 30 30 30 30 30     ..........000000
     244:	30 30 06 06 06 06 06 06 06 06 80 c0 c0 60 60 30     00...........``0
     254:	30 02 06 06 0c 0c 18 18 0c 06 c6 c6 7e 3c 00 00     0...........~<..
     264:	1a 1a 00 00 c0 f0 38 d8 ec 6c ec ec 6c 1c f8 f0     ......8..l..l...
     274:	0e 3e 30 66 6e 6c 66 6e 6c 0c 06 02 18 f8 e0 60     .>0fnlfnl......`
     284:	60 60 60 e0 f8 18 00 00 06 1e 38 38 1e 06 00 00     ```.......88....
     294:	f0 f8 98 98 98 f8 f8 1c 3e 32 32 32 3e 3e 30 18     ........>222>>0.
     2a4:	18 18 38 f0 e0 18 30 30 30 38 1e 0e e0 f0 38 18     ..8...0008....8.
     2b4:	18 18 f8 f8 0e 1e 38 30 30 30 3e 3e 18 98 98 98     ......8000>>....
     2c4:	f8 f8 30 32 32 32 3e 3e 00 80 80 80 f8 f8 30 32     ..0222>>......02
     2d4:	32 32 3e 3e f0 f8 98 98 18 38 f0 e0 1a 32 32 32     22>>.....8...222
     2e4:	30 38 1e 0e f8 f8 80 80 80 80 f8 f8 3e 3e 02 02     08..........>>..
     2f4:	02 02 3e 3e f8 f8 3e 3e f0 f8 18 18 3e 3e 00 00     ..>>..>>....>>..
     304:	18 38 70 e0 c0 80 f8 f8 30 38 1c 0e 06 02 3e 3e     .8p.....08....>>
     314:	18 18 18 18 f8 f8 00 00 00 00 3e 3e f8 f8 00 80     ..........>>....
     324:	e0 78 78 e0 80 00 f8 f8 3e 3e 38 1e 06 00 00 06     .xx.....>>8.....
     334:	1e 38 3e 3e f8 f8 38 f0 c0 00 00 f8 f8 3e 3e 00     .8>>..8......>>.
     344:	00 06 1e 38 3e 3e e0 f0 38 18 18 18 38 f0 e0 0e     ...8>>..8...8...
     354:	1e 38 30 30 30 38 1e 0e 80 c0 c0 c0 c0 f8 f8 1e     .80008..........
     364:	3e 30 30 30 3e 3e 06 ee fc 38 18 18 18 38 f0 e0     >000>>...8...8..
     374:	00 0e 1e 38 30 30 30 38 1e 0e 18 78 e0 80 80 f8     ...80008...x....
     384:	f8 1c 3e 32 32 32 3e 3e f0 f8 98 98 98 30 18 32     ..>222>>.....0.2
     394:	32 32 3e 1e 00 00 00 f8 f8 00 00 00 30 30 30 3e     22>.........000>
     3a4:	3e 30 30 30 e0 f0 38 18 18 38 f0 e0 3e 3e 00 00     >000..8..8..>>..
     3b4:	00 00 3e 3e 00 00 e0 f8 18 f8 e0 00 00 30 3e 0e     ..>>.........0>.
     3c4:	00 00 00 0e 3e 30 00 00 e0 f8 78 e0 80 00 80 e0     ....>0....x.....
     3d4:	78 f8 e0 00 00 30 3e 0e 00 00 06 1e 38 1e 06 00     x....0>.....8...
     3e4:	00 0e 3e 30 18 78 e0 80 e0 78 18 30 3c 0e 02 0e     ..>0.x...x.0<...
     3f4:	3c 30 00 00 80 f8 f8 80 00 00 30 3c 0e 02 02 0e     <0........0<....
     404:	3c 30 18 18 18 98 d8 f8 78 38 38 3c 3e 36 32 30     <0......x88<>620
     414:	30 30 fe fe 06 fe fe c0 03 1f 7c e0 80 00 00 00     00........|.....
     424:	00 00 06 1e 78 60 06 fe fe c0 fe fe c0 f0 3c 0c     ....x`........<.
     434:	3c f0 c0 00 00 00 00 00 00 00 00 00 00 00 00 00     <...............
     444:	00 00 c0 c0 c0 c0 c0 c0 c0 c0 02 06 0c 00 00 00     ................
     454:	f8 f8 58 58 78 30 02 06 06 06 06 06 f0 f8 18 18     ..XXx0..........
     464:	10 f8 f8 02 06 06 06 02 7e 7e 18 18 18 f8 f0 06     ........~~......
     474:	06 06 06 02 f8 f8 10 18 18 f8 f0 7e 7e 02 06 06     ...........~~...
     484:	06 02 d8 d8 58 58 f8 f0 02 06 06 06 06 02 00 00     ....XX..........
     494:	f8 f8 00 66 66 7e 3e 06 06 8f c9 49 49 ff 96 08     ...ff~>....II...
     4a4:	0e 0e 08 08 0e 06 f8 f8 00 00 00 f8 f8 02 06 06     ................
     4b4:	06 02 7e 7e f8 f8 36 36 fe ff 03 36 36 00 08 18     ..~~..66...66...
     4c4:	b0 e0 40 f8 f8 04 06 02 00 00 7e 7e f8 f8 7e 7e     ..@.......~~..~~
     4d4:	f8 f8 00 00 f8 f8 00 00 f8 f8 02 06 06 06 02 06     ................
     4e4:	06 02 06 06 f8 f8 00 00 00 f8 f8 02 06 06 06 02     ................
     4f4:	06 06 f0 f8 18 18 18 f8 f0 02 06 06 06 06 06 02     ................
     504:	f0 f8 18 18 10 ff ff 02 06 06 06 02 06 06 ff ff     ................
     514:	10 18 18 f8 f0 06 06 02 06 06 06 02 00 00 00 f8     ................
     524:	f8 06 06 02 06 06 30 78 d8 98 06 06 06 02 18 18     ......0x........
     534:	f8 f0 00 06 06 1e 1e 06 f8 f8 10 18 18 f8 f0 06     ................
     544:	06 00 00 00 06 06 00 c0 f0 38 38 f0 c0 00 06 06     .........88.....
     554:	00 00 00 00 06 06 00 c0 f0 38 f8 c0 c0 f8 38 f0     .........8....8.
     564:	c0 00 06 06 00 00 00 06 06 00 00 00 06 06 08 b8     ................
     574:	f0 40 f0 b8 08 04 06 02 00 02 06 04 00 c0 f0 3c     .@.............<
     584:	3f f3 c0 00 06 06 00 00 00 00 06 06 98 d8 78 38     ?.............x8
     594:	06 06 06 06 80 fc 7e 06 02 7e fc c0 fe fe fe fe     ......~..~......
     5a4:	06 7e fc 80 c0 fc 7e 02 70 78 18 30 60 78 38 00     .~....~.px.0`x8.
     5b4:	00 00 00 00 00 00 fc 04 14 14 f4 64 04 fc 1e 10     ...........d....
     5c4:	10 16 16 10 10 1e                                   ......

000005ca <small>:
     5ca:	13 a6 0a 0b 20 60 00 01 03 06 05 08 07 01 03 03     .... `..........
     5da:	03 05 02 04 01 03 05 03 05 05 05 05 05 05 05 05     ................
     5ea:	01 02 05 05 05 05 09 07 05 06 06 05 05 07 06 01     ................
     5fa:	05 06 04 07 06 07 05 07 07 05 07 06 07 09 07 07     ................
     60a:	06 02 03 02 05 06 02 05 05 05 05 05 03 05 05 01     ................
     61a:	02 05 01 07 05 05 05 05 03 05 02 05 05 07 05 05     ................
     62a:	05 03 01 03 05 09 7e 20 20 a0 60 60 80 40 48 e8     ......~  .``.@H.
     63a:	5e e8 5e 48 00 20 00 20 00 00 8c 12 ff 22 c4 00     ^.^H. . ....."..
     64a:	20 60 20 00 0c 12 cc 20 10 cc 22 c0 00 20 00 00      ` .... ..".. ..
     65a:	00 00 20 00 04 38 98 64 44 a4 18 00 00 20 40 40     .. ..8.dD.... @@
     66a:	20 00 0e 00 f8 04 02 20 40 80 02 04 f8 80 40 20      ...... @.....@ 
     67a:	14 0e 14 00 00 00 20 20 f8 20 20 00 00 00 00 00     ......  .  .....
     68a:	00 00 80 60 10 10 10 10 00 00 00 00 04 00 80 78     ...`...........x
     69a:	06 20 00 00 f8 04 04 04 f8 20 40 40 40 20 fc 00     . ....... @@@ ..
     6aa:	80 60 20 00 c4 24 14 0c 04 20 40 40 40 20 b8 44     .` ..$... @@@ .D
     6ba:	44 04 08 20 40 40 40 20 10 fc 10 d0 30 00 60 20     D.. @@@ ....0.` 
     6ca:	00 00 38 44 44 44 e8 40 40 40 60 00 38 44 44 44     ..8DDD.@@@`.8DDD
     6da:	f8 20 40 40 40 20 00 c0 30 0c 00 60 40 40 40 40     . @@@ ..0..`@@@@
     6ea:	b8 44 44 44 b8 20 40 40 40 20 f8 24 24 24 c8 20     .DDD. @@@ .$$$. 
     6fa:	40 40 40 20 84 00 00 08 80 60 88 88 50 50 20 00     @@@ .....`..PP .
     70a:	00 00 00 00 50 50 50 50 50 00 00 00 00 00 20 50     ....PPPPP..... P
     71a:	50 88 88 00 00 00 00 00 04 02 62 12 0c 00 00 20     P.........b.... 
     72a:	00 00 f8 04 f2 0a 0a f2 1a 84 78 20 40 c0 a0 a0     ..........x @...
     73a:	a0 a0 80 40 0c 30 d0 10 d0 30 0c 00 00 20 40 20     ...@.0...0... @ 
     74a:	00 00 b8 44 44 44 fc 20 40 40 40 60 08 04 04 04     ...DDD. @@@`....
     75a:	08 f0 20 40 40 40 20 00 f0 08 04 04 04 fc 00 20     .. @@@ ........ 
     76a:	40 40 40 60 44 44 44 44 fc 40 40 40 40 60 00 40     @@@`DDDD.@@@@`.@
     77a:	40 40 fc 40 40 40 40 60 38 24 24 04 04 08 f0 20     @@.@@@@`8$$.... 
     78a:	40 40 40 40 20 00 fc 40 40 40 40 fc 60 00 00 00     @@@@ ..@@@@.`...
     79a:	00 60 fc 60 f8 04 04 04 18 60 00 00 00 00 04 08     .`.`.....`......
     7aa:	90 60 20 fc 40 20 00 00 00 60 04 04 04 fc 00 00     .` .@ ...`......
     7ba:	00 60 fc 80 70 0c 70 80 fc 60 20 00 00 00 20 60     .`..p.p..` ... `
     7ca:	fc 08 30 c0 00 fc 60 00 00 00 20 60 f0 08 04 04     ..0...`... `....
     7da:	04 08 f0 00 20 40 40 40 20 00 c0 20 20 20 fc 20     .... @@@ ..   . 
     7ea:	40 40 40 60 f2 0c 14 04 04 08 f0 00 20 40 40 40     @@@`........ @@@
     7fa:	20 00 04 c8 30 20 20 20 fc 00 20 40 40 40 40 60      ...0   .. @@@@`
     80a:	18 24 44 44 88 20 40 40 40 20 00 00 00 fc 00 00     .$DD. @@@ ......
     81a:	00 40 40 40 60 40 40 40 f8 04 04 04 04 f8 60 00     .@@@`@@@......`.
     82a:	00 00 00 60 00 c0 38 04 38 c0 00 40 20 00 00 00     ...`..8.8..@ ...
     83a:	20 40 00 f8 04 f8 00 f8 04 f8 00 60 00 00 00 60      @.........`...`
     84a:	00 00 00 60 04 08 90 60 90 08 04 40 20 00 00 00     ...`...`...@ ...
     85a:	20 40 00 80 40 3c 40 80 00 40 20 00 00 00 20 40      @..@<@..@ ... @
     86a:	04 84 44 24 14 0c 60 40 40 40 40 40 fe 02 e0 80     ..D$..`@@@@@....
     87a:	06 78 80 00 00 20 02 fe 80 e0 10 0c 02 0c 10 00     .x... ..........
	...
     892:	00 00 80 80 80 80 80 80 01 02 00 00 7c a8 a4 a4     ............|...
     8a2:	58 00 00 00 00 00 78 84 84 48 fc 00 00 00 00 60     X.....x..H.....`
     8b2:	48 84 84 84 78 00 00 00 00 00 fc 48 84 84 78 60     H...x......H..x`
     8c2:	00 00 00 00 68 a4 a4 a4 78 00 00 00 00 00 00 80     ....h...x.......
     8d2:	fc 40 40 20 fe 49 85 85 79 00 00 00 00 00 7c 80     .@@ .I..y.....|.
     8e2:	80 40 fc 00 00 00 00 60 fc 40 fe 01 40 00 84 48     .@.....`.@..@..H
     8f2:	30 10 fc 00 00 00 00 60 fc 60 7c 80 80 7c 80 80     0......`.`|..|..
     902:	fc 00 00 00 00 00 00 00 7c 80 80 40 fc 00 00 00     ........|..@....
     912:	00 00 78 84 84 84 78 00 00 00 00 00 78 84 84 48     ..x...x.....x..H
     922:	ff 00 00 00 00 00 ff 48 84 84 78 00 00 00 00 00     .......H..x.....
     932:	80 c0 fc 00 00 00 48 94 a4 a4 48 00 00 00 00 00     ......H...H.....
     942:	84 f8 00 60 fc 08 04 04 f8 00 00 00 00 00 c0 38     ...`...........8
     952:	04 38 c0 00 00 00 00 00 f0 0c 70 80 70 0c f0 00     .8........p.p...
     962:	00 00 00 00 00 00 84 48 30 48 84 00 00 00 00 00     .......H0H......
     972:	c0 38 06 3d c1 00 00 00 00 00 84 c4 a4 94 8c 00     .8.=............
     982:	00 00 00 00 40 bc 02 00 60 80 fe e0 02 bc 40 80     ....@...`.....@.
     992:	60 00 20 10 30 20 10 00 00 00 00 00 fe 02 02 02     `. .0 ..........
     9a2:	02 02 02 02 fe 20 20 20 20 20 20 20 20 20           .....         

000009b0 <tiny>:
     9b0:	0f 8e 0a 0a 20 60 00 01 03 04 05 07 06 01 02 02     .... `..........
     9c0:	03 05 02 03 01 03 04 03 04 04 05 04 04 04 04 04     ................
     9d0:	01 02 04 04 04 04 08 05 05 06 06 05 05 06 06 01     ................
     9e0:	04 05 04 07 06 06 05 06 07 05 05 06 05 09 05 05     ................
     9f0:	05 02 03 02 03 05 02 04 04 04 04 04 02 04 04 01     ................
     a00:	01 05 01 07 04 04 04 04 03 04 02 04 05 05 05 05     ................
     a10:	04 03 01 03 04 07 be 00 06 00 06 00 00 00 f8 2e     ................
     a20:	f8 2e 00 00 00 00 4c 92 ff 92 64 00 00 40 00 00     ......L...d..@..
     a30:	04 8a 64 10 4c a2 40 00 00 00 00 00 00 00 60 9e     ..d.L.@.......`.
     a40:	9a 66 60 80 00 00 00 00 00 00 06 00 fc 02 40 80     .f`...........@.
     a50:	02 fc 80 40 0c 06 0c 00 00 00 10 10 7c 10 10 00     ...@........|...
     a60:	00 00 00 00 00 80 40 00 20 20 20 00 00 00 04 00     ......@.   .....
     a70:	80 70 0c 40 00 00 f8 04 04 f8 00 40 40 00 fc 80     .p.@.......@@...
     a80:	40 40 00 00 c4 24 14 8c 00 40 40 00 d8 24 04 88     @@...$...@@..$..
     a90:	00 40 40 00 10 fc 90 50 30 00 40 00 00 00 38 44     .@@....P0.@...8D
     aa0:	c4 68 40 40 40 00 98 24 24 f8 00 40 40 00 80 70     .h@@@..$$..@@..p
     ab0:	0c 00 40 40 40 40 d8 24 24 d8 00 40 40 00 f8 24     ..@@@@.$$..@@..$
     ac0:	24 c8 00 40 40 00 44 00 00 88 40 00 10 28 28 44     $..@@.D...@..((D
     ad0:	00 00 00 00 28 28 28 28 00 00 00 00 44 28 28 10     ....((((....D((.
     ae0:	00 00 00 00 04 02 b2 0c 00 00 00 00 f8 04 72 8a     ..............r.
     af0:	8a fa 84 78 00 40 80 80 80 80 80 40 0c 70 90 70     ...x.@.....@.p.p
     b00:	0c 00 00 40 00 00 fe 92 92 92 6c 00 00 00 00 00     ...@......l.....
     b10:	7c 82 82 82 82 44 00 00 00 00 00 00 fe 82 82 82     |....D..........
     b20:	82 7c 00 00 00 00 00 00 fe 92 92 92 92 00 00 00     .|..............
     b30:	00 00 fe 12 12 12 12 00 00 00 00 00 7c 82 82 92     ............|...
     b40:	92 74 00 00 00 00 00 00 fe 10 10 10 10 fe 00 00     .t..............
     b50:	00 00 00 00 fe 00 40 80 80 7e 00 00 00 00 fe 10     ......@..~......
     b60:	28 44 82 00 00 00 00 00 fe 80 80 80 00 00 00 00     (D..............
     b70:	fe 06 38 c0 38 06 fe 00 00 00 00 00 00 00 fe 04     ..8.8...........
     b80:	18 20 40 fe 00 00 00 00 00 00 7c 82 82 82 82 7c     . @.......|....|
     b90:	00 00 00 00 00 00 fe 12 12 12 0c 00 00 00 00 00     ................
     ba0:	7c 82 82 a2 c2 7c 00 00 00 00 00 40 fe 12 12 12     |....|.....@....
     bb0:	32 4c 80 00 00 00 00 00 00 00 4c 92 92 92 64 00     2L........L...d.
     bc0:	00 00 00 00 00 00 fc 00 00 40 40 40 40 40 7e 80     .........@@@@@~.
     bd0:	80 80 80 7e 00 00 00 00 00 00 06 78 80 78 06 00     ...~.......x.x..
     be0:	00 00 00 00 06 78 80 78 06 78 80 78 06 00 00 00     .....x.x.x.x....
     bf0:	00 00 00 00 00 00 82 6c 10 6c 82 00 00 00 00 00     .......l.l......
     c00:	02 0c f0 0c 02 00 00 00 00 00 c2 a2 92 8a 86 00     ................
     c10:	00 00 00 00 fe 02 c0 80 06 38 c0 00 00 00 02 fe     .........8......
     c20:	80 c0 0c 02 0c 00 00 00 00 00 00 00 00 80 80 80     ................
     c30:	80 80 02 04 00 00 48 a8 a8 f0 00 00 00 00 fe 88     ......H.........
     c40:	88 70 00 00 00 00 44 44 44 38 00 00 00 00 70 88     .p....DDD8....p.
     c50:	88 fe 00 00 00 00 34 54 54 38 00 00 00 00 fc 0a     ......4TT8......
     c60:	00 00 70 88 88 f8 80 80 80 40 fe 08 08 f0 00 00     ..p......@......
     c70:	00 00 7c 40 fa 40 fe 20 30 48 80 00 00 00 00 00     ..|@.@. 0H......
     c80:	fc 40 3c 40 40 3c 40 40 7c 00 00 00 00 00 00 00     .@<@@<@@|.......
     c90:	f8 08 08 f0 00 00 00 00 70 88 88 70 00 00 00 00     ........p..p....
     ca0:	f8 88 88 70 c0 00 00 00 70 88 88 f8 00 00 00 c0     ...p....p.......
     cb0:	f8 10 08 00 00 00 90 a8 a8 48 00 00 00 00 7c 88     .........H....|.
     cc0:	00 00 78 80 80 f8 00 00 00 00 40 38 04 38 40 00     ..x.......@8.8@.
     cd0:	00 00 00 00 78 c0 38 c0 38 00 00 00 00 00 88 50     ....x.8.8......P
     ce0:	20 50 88 00 00 00 00 00 08 70 80 70 08 80 80 40      P.......p.p...@
     cf0:	00 00 c8 a8 98 88 00 00 00 00 20 dc 02 00 40 80     .......... ...@.
     d00:	fe c0 02 dc 20 80 40 00 20 10 20 10 00 00 00 00     .... .@. . .....
     d10:	fe 82 82 82 82 82 fe 00 00 00 00 00 00 00           ..............

00000d1e <IMAGE>:
	...
     d46:	1f ff f6 ff ff ff ff ff fe ff ff fe fc fc 98 32     ...............2
     d56:	39 1b 0f 3f ff ff ff ff bd fe ff 58 f1 80 f1 ee     9..?.......X....
     d66:	98 f0 e0 80 00 00 00 00 00 00 00 00 00 80 c0 c0     ................
     d76:	f0 f0 f8 fc fc 4c 7e 5e 5f ff ff ff 9f ef 0f 0f     .....L~^_.......
     d86:	0f 0f 0f 0f 1f 1e 3e 7e bc 7c fc f8 f0 f0 c0 c0     ......>~.|......
     d96:	80 00 00 00 00 00 00 00 00 00 00 00 00 00 00 80     ................
     da6:	c0 e0 f0 f0 f8 f8 fc fc fc fe fe fe ff ff ff ff     ................
     db6:	ff ef cf cf 6f bf ff fe fe fe fc fc fc fc f8 f0     ....o...........
     dc6:	f0 e1 c7 df 7f ff ff 7f 7f 3f 3f 3b 3f 3f 3f 3e     .........??;???>
     dd6:	39 50 58 3c 08 0f 07 ff fa 3d 5e 8f 09 11 d9 5a     9PX<.....=^....Z
     de6:	c8 18 40 19 91 3f fc 00 40 60 78 3e 3f 1f 0f 07     ..@..?..@`x>?...
     df6:	07 03 01 01 01 03 7f db 9f 1b 1d 0b 1d 38 1d 90     .............8..
     e06:	b7 fb ef fa bc ff 3b 30 10 00 00 01 03 05 07 0f     ......;0........
     e16:	3f 7f 7e f0 10 00 80 00 00 00 c0 f0 f8 fe ff ff     ?.~.............
     e26:	ff ff 7f ff ff ff ff ff ff ff ff ff ff ff ff ff     ................
     e36:	ff ff ff 3f 7e 7e ff fe f8 f0 f0 40 c1 03 07 0f     ...?~~.....@....
     e46:	3f 7f 7f bf ff ff fc e8 a0 c0 00 04 80 e0 00 00     ?...............
     e56:	00 00 00 00 00 00 0e ff fd c7 03 00 00 00 01 00     ................
     e66:	00 00 00 00 e0 78 bf 00 00 00 00 00 00 00 00 00     .....x..........
     e76:	00 00 00 00 00 00 c0 ff 00 20 20 20 00 00 00 00     .........   ....
     e86:	00 00 c0 60 b1 fb ce 9c 68 80 80 c0 c0 8c 00 00     ...`....h.......
     e96:	00 00 02 41 3f b8 8f 7c f8 ff ff ff ff ff ff ff     ...A?..|........
     ea6:	ff ff ff ff ff ff ff ff ff ff ff ff ff ff ff ff     ................
     eb6:	ff ff ff ff ff f8 f0 e1 03 0f ff e1 ff fe fe e0     ................
     ec6:	40 c0 00 00 01 00 03 01 00 80 ee 90 ef f3 f2 f2     @...............
     ed6:	bc 98 10 a0 f4 70 bc 3f 0f 01 00 00 00 00 00 60     .....p.?.......`
     ee6:	60 1c 3e 9f 0d 83 80 c0 40 c0 60 60 f0 30 30 10     `.>.....@.``.00.
     ef6:	08 04 06 02 02 01 00 00 80 c0 c0 80 20 70 60 b0     ............ p`.
     f06:	4e 51 01 1e 10 09 02 e7 c2 b5 ff ff 77 bf c0 00     NQ..........w...
     f16:	00 00 80 80 31 01 c5 d0 ff ff ff ff ff ff ff ff     ....1...........
     f26:	ff f3 c3 eb ff cf cf cf df ef cf ef ff ff df ff     ................
     f36:	ff ff ff ff ff ff ff ff 7f 00 18 fb ff ff ff df     ................
     f46:	cd 5f 05 00 00 00 86 00 10 c0 3f f7 43 22 61 43     ._........?.C"aC
     f56:	02 17 8f 8f 07 04 03 00 10 08 00 00 00 52 81 01     .............R..
     f66:	01 00 00 00 00 03 00 04 04 04 1c 78 e4 f8 20 d8     ...........x.. .
     f76:	c8 c8 cc f4 d6 be ba dd f9 e9 65 40 c3 c1 c1 c0     ..........e@....
     f86:	60 60 60 f0 dc fc ff 57 db df ff 7e 1f 03 c0 f0     ```....W...~....
     f96:	0e 1a 0a 83 6c 17 1f 01 07 3f 7f ff ff ff ff ff     ....l....?......
     fa6:	ff ff ff ff ff fb ff ff ff ff ff ff ff ff bf ff     ................
     fb6:	ff ff ff ff ff ef ff ff fe fe ff ff fb ff ff 7f     ................
     fc6:	1f 01 00 d0 30 7a 5a 03 00 80 f8 f7 fc fe fe ff     ....0zZ.........
     fd6:	ff ff 7f 77 f0 10 08 04 00 a0 00 08 10 00 01 02     ...w............
     fe6:	14 1c 00 70 00 00 00 00 00 00 00 00 01 03 03 07     ...p............
     ff6:	0e 1f 3f 73 73 47 c7 83 0f 0f 0f d4 1e 1f 1c 1f     ..?ssG..........
    1006:	1f 97 8e 0d 0f 47 27 a3 b3 99 9c 5c 7e 7f 38 1e     .....G'....\~.8.
    1016:	1c 0e 07 01 00 00 00 00 00 00 00 01 07 0f 1f 3f     ...............?
    1026:	ff ff fb ff ff ff ff ff ff ff ff ff ff ff ff bf     ................
    1036:	f7 d7 ff c3 ef 46 6f 7f 3f 1f df ef ef f3 61 fc     .....Fo.?.....a.
    1046:	fc c4 60 c0 40 00 08 7c fe ff ff ff ff ff ff ff     ..`.@..|........
    1056:	ff fe ff fd ff f9 86 00 00 00 40 40 c0 c0 00 98     ..........@@....
    1066:	da 3a 2c 02 00 00 00 00 00 00 00 00 00 00 00 00     .:,.............
    1076:	00 00 00 00 00 00 00 01 00 02 02 02 02 02 02 02     ................
    1086:	02 02 02 02 02 02 03 00 00 00 00 00 00 00 00 00     ................
	...
    10a6:	00 00 01 03 03 07 07 0f 06 1f 1f 1e 33 35 24 2d     ............35$-
    10b6:	2d 2b 27 35 27 20 23 17 23 1b 1d 1d 05 0f 07 03     -+'5' #.#.......
    10c6:	03 01 01 00 00 00 00 00 03 07 0f 3f 7f 7f 7f ff     ...........?....
    10d6:	ff ff ff ff ff ff ff f8 f0 f0 f0 70 3a 1f 05 03     ...........p:...
    10e6:	01 00 00 00 00 00 00 00 00 00 00 00 00 00 00 00     ................
	...
    111e:	00 40 7a 10 f3 5a 00 a0 72 4e 18 09 00 10 a5 d4     .@z..Z..rN......
    112e:	e8 00 00 e8 76 48 17 00 00 e4 0b 54 02 00 00 ca     ....vH.....T....
    113e:	9a 3b 00 00 00 e1 f5 05 00 00 80 96 98 00 00 00     .;..............
    114e:	40 42 0f 00 00 00 a0 86 01 00 00 00 10 27 00 00     @B...........'..
    115e:	00 00 e8 03 00 00 00 00 64 00 00 00 00 00 0a 00     ........d.......
    116e:	00 00 00 00 01 00 00 00 00 00 2c 76 d8 88 dc 67     ..........,v...g
    117e:	4f 08 23 df c1 df ae 59 e1 b1 b7 96 e5 e3 e4 53     O.#....Y.......S
    118e:	c6 3a e6 51 99 76 96 e8 e6 c2 84 26 eb 89 8c 9b     .:.Q.v.....&....
    119e:	62 ed 40 7c 6f fc ef bc 9c 9f 40 f2 ba a5 6f a5     b.@|o.....@...o.
    11ae:	f4 90 05 5a 2a f7 5c 93 6b 6c f9 67 6d c1 1b fc     ...Z*.\.kl.gm...
    11be:	e0 e4 0d 47 fe f5 20 e6 b5 00 d0 ed 90 2e 03 00     ...G.. .........
    11ce:	94 35 77 05 00 80 84 1e 08 00 00 20 4e 0a 00 00     .5w........ N...
    11de:	00 c8 0c 33 33 33 33 0f 98 6e 12 83 11 41 ef 8d     ...3333..n...A..
    11ee:	21 14 89 3b e6 55 16 cf fe e6 db 18 d1 84 4b 38     !..;.U........K8
    11fe:	1b f7 7c 1d 90 1d a4 bb e4 24 20 32 84 72 5e 22     ..|......$ 2.r^"
    120e:	81 00 c9 f1 24 ec a1 e5 3d 27                       ....$...='

00001218 <__ctors_end>:
    1218:	11 24       	eor	r1, r1
    121a:	1f be       	out	0x3f, r1	; 63
    121c:	cf ef       	ldi	r28, 0xFF	; 255
    121e:	d0 e1       	ldi	r29, 0x10	; 16
    1220:	de bf       	out	0x3e, r29	; 62
    1222:	cd bf       	out	0x3d, r28	; 61

00001224 <__do_copy_data>:
    1224:	15 e0       	ldi	r17, 0x05	; 5
    1226:	a0 e0       	ldi	r26, 0x00	; 0
    1228:	b1 e0       	ldi	r27, 0x01	; 1
    122a:	ec eb       	ldi	r30, 0xBC	; 188
    122c:	f5 e5       	ldi	r31, 0x55	; 85
    122e:	02 c0       	rjmp	.+4      	; 0x1234 <.do_copy_data_start>

00001230 <.do_copy_data_loop>:
    1230:	05 90       	lpm	r0, Z+
    1232:	0d 92       	st	X+, r0

00001234 <.do_copy_data_start>:
    1234:	ac 31       	cpi	r26, 0x1C	; 28
    1236:	b1 07       	cpc	r27, r17
    1238:	d9 f7       	brne	.-10     	; 0x1230 <.do_copy_data_loop>

0000123a <__do_clear_bss>:
    123a:	1e e0       	ldi	r17, 0x0E	; 14
    123c:	ac e1       	ldi	r26, 0x1C	; 28
    123e:	b5 e0       	ldi	r27, 0x05	; 5
    1240:	01 c0       	rjmp	.+2      	; 0x1244 <.do_clear_bss_start>

00001242 <.do_clear_bss_loop>:
    1242:	1d 92       	st	X+, r1

00001244 <.do_clear_bss_start>:
    1244:	a6 3d       	cpi	r26, 0xD6	; 214
    1246:	b1 07       	cpc	r27, r17
    1248:	e1 f7       	brne	.-8      	; 0x1242 <.do_clear_bss_loop>
    124a:	0e 94 40 11 	call	0x2280	; 0x2280 <main>
    124e:	0c 94 dc 2a 	jmp	0x55b8	; 0x55b8 <_exit>

00001252 <__bad_interrupt>:
    1252:	0c 94 00 00 	jmp	0	; 0x0 <__vectors>

00001256 <ks0108ReadFontData>:
//
// Font Functions
//

uint8_t ks0108ReadFontData(const uint8_t* ptr) {
	return pgm_read_byte(ptr);
    1256:	fc 01       	movw	r30, r24
    1258:	84 91       	lpm	r24, Z+
}
    125a:	08 95       	ret

0000125c <ks0108SelectFont>:

void ks0108SelectFont(const char* font, ks0108FontCallback callback, uint8_t color) {
	ks0108Font = font;
    125c:	90 93 ad 06 	sts	0x06AD, r25
    1260:	80 93 ac 06 	sts	0x06AC, r24
	ks0108FontRead = callback;
    1264:	70 93 ab 06 	sts	0x06AB, r23
    1268:	60 93 aa 06 	sts	0x06AA, r22
	ks0108FontColor = color;
    126c:	40 93 a6 06 	sts	0x06A6, r20
}
    1270:	08 95       	ret

00001272 <ks0108CharWidth>:
		}
		str++;
	}
}

uint8_t ks0108CharWidth(char c) {
    1272:	0f 93       	push	r16
    1274:	1f 93       	push	r17
    1276:	08 2f       	mov	r16, r24
	uint8_t width = 0;
	uint8_t firstChar = ks0108FontRead(ks0108Font+FONT_FIRST_CHAR);
    1278:	80 91 ac 06 	lds	r24, 0x06AC
    127c:	90 91 ad 06 	lds	r25, 0x06AD
    1280:	e0 91 aa 06 	lds	r30, 0x06AA
    1284:	f0 91 ab 06 	lds	r31, 0x06AB
    1288:	04 96       	adiw	r24, 0x04	; 4
    128a:	09 95       	icall
    128c:	18 2f       	mov	r17, r24
	uint8_t charCount = ks0108FontRead(ks0108Font+FONT_CHAR_COUNT);
    128e:	80 91 ac 06 	lds	r24, 0x06AC
    1292:	90 91 ad 06 	lds	r25, 0x06AD
    1296:	e0 91 aa 06 	lds	r30, 0x06AA
    129a:	f0 91 ab 06 	lds	r31, 0x06AB
    129e:	05 96       	adiw	r24, 0x05	; 5
    12a0:	09 95       	icall
    12a2:	48 2f       	mov	r20, r24
	
	// read width data
	if(c >= firstChar && c < (firstChar+charCount)) {
    12a4:	01 17       	cp	r16, r17
    12a6:	d8 f0       	brcs	.+54     	; 0x12de <ks0108CharWidth+0x6c>
    12a8:	20 2f       	mov	r18, r16
    12aa:	30 e0       	ldi	r19, 0x00	; 0
    12ac:	81 2f       	mov	r24, r17
    12ae:	90 e0       	ldi	r25, 0x00	; 0
    12b0:	84 0f       	add	r24, r20
    12b2:	91 1d       	adc	r25, r1
    12b4:	28 17       	cp	r18, r24
    12b6:	39 07       	cpc	r19, r25
    12b8:	94 f4       	brge	.+36     	; 0x12de <ks0108CharWidth+0x6c>
		c -= firstChar;
		width = ks0108FontRead(ks0108Font+FONT_WIDTH_TABLE+c)+1;
    12ba:	01 1b       	sub	r16, r17
    12bc:	20 2f       	mov	r18, r16
    12be:	30 e0       	ldi	r19, 0x00	; 0
    12c0:	2a 5f       	subi	r18, 0xFA	; 250
    12c2:	3f 4f       	sbci	r19, 0xFF	; 255
    12c4:	80 91 ac 06 	lds	r24, 0x06AC
    12c8:	90 91 ad 06 	lds	r25, 0x06AD
    12cc:	e0 91 aa 06 	lds	r30, 0x06AA
    12d0:	f0 91 ab 06 	lds	r31, 0x06AB
    12d4:	82 0f       	add	r24, r18
    12d6:	93 1f       	adc	r25, r19
    12d8:	09 95       	icall
    12da:	8f 5f       	subi	r24, 0xFF	; 255
    12dc:	01 c0       	rjmp	.+2      	; 0x12e0 <ks0108CharWidth+0x6e>
    12de:	80 e0       	ldi	r24, 0x00	; 0
	}
	
	return width;
}
    12e0:	1f 91       	pop	r17
    12e2:	0f 91       	pop	r16
    12e4:	08 95       	ret

000012e6 <ks0108StringWidth>:

uint16_t ks0108StringWidth(char* str) {
    12e6:	0f 93       	push	r16
    12e8:	1f 93       	push	r17
    12ea:	cf 93       	push	r28
    12ec:	df 93       	push	r29
    12ee:	8c 01       	movw	r16, r24
    12f0:	c0 e0       	ldi	r28, 0x00	; 0
    12f2:	d0 e0       	ldi	r29, 0x00	; 0
    12f4:	06 c0       	rjmp	.+12     	; 0x1302 <ks0108StringWidth+0x1c>
	uint16_t width = 0;
	
	while(*str != 0) {
		width += ks0108CharWidth(*str++);
    12f6:	0f 5f       	subi	r16, 0xFF	; 255
    12f8:	1f 4f       	sbci	r17, 0xFF	; 255
    12fa:	0e 94 39 09 	call	0x1272	; 0x1272 <ks0108CharWidth>
    12fe:	c8 0f       	add	r28, r24
    1300:	d1 1d       	adc	r29, r1
}

uint16_t ks0108StringWidth(char* str) {
	uint16_t width = 0;
	
	while(*str != 0) {
    1302:	f8 01       	movw	r30, r16
    1304:	80 81       	ld	r24, Z
    1306:	88 23       	and	r24, r24
    1308:	b1 f7       	brne	.-20     	; 0x12f6 <ks0108StringWidth+0x10>
		width += ks0108CharWidth(*str++);
	}
	
	return width;
}
    130a:	ce 01       	movw	r24, r28
    130c:	df 91       	pop	r29
    130e:	cf 91       	pop	r28
    1310:	1f 91       	pop	r17
    1312:	0f 91       	pop	r16
    1314:	08 95       	ret

00001316 <ks0108StringWidth_P>:

uint16_t ks0108StringWidth_P(PGM_P str) {
    1316:	0f 93       	push	r16
    1318:	1f 93       	push	r17
    131a:	cf 93       	push	r28
    131c:	df 93       	push	r29
    131e:	ec 01       	movw	r28, r24
    1320:	00 e0       	ldi	r16, 0x00	; 0
    1322:	10 e0       	ldi	r17, 0x00	; 0
    1324:	07 c0       	rjmp	.+14     	; 0x1334 <ks0108StringWidth_P+0x1e>
	uint16_t width = 0;
	
	while(pgm_read_byte(str) != 0) {
		width += ks0108CharWidth(pgm_read_byte(str++));
    1326:	21 96       	adiw	r28, 0x01	; 1
    1328:	f9 01       	movw	r30, r18
    132a:	84 91       	lpm	r24, Z+
    132c:	0e 94 39 09 	call	0x1272	; 0x1272 <ks0108CharWidth>
    1330:	08 0f       	add	r16, r24
    1332:	11 1d       	adc	r17, r1
    1334:	9e 01       	movw	r18, r28
}

uint16_t ks0108StringWidth_P(PGM_P str) {
	uint16_t width = 0;
	
	while(pgm_read_byte(str) != 0) {
    1336:	fe 01       	movw	r30, r28
    1338:	84 91       	lpm	r24, Z+
    133a:	88 23       	and	r24, r24
    133c:	a1 f7       	brne	.-24     	; 0x1326 <ks0108StringWidth_P+0x10>
		width += ks0108CharWidth(pgm_read_byte(str++));
	}
	
	return width;
}
    133e:	c8 01       	movw	r24, r16
    1340:	df 91       	pop	r29
    1342:	cf 91       	pop	r28
    1344:	1f 91       	pop	r17
    1346:	0f 91       	pop	r16
    1348:	08 95       	ret

0000134a <ks0108WriteCommand>:
inline uint8_t ks0108ReadData(void) {
	ks0108DoReadData(1);							// dummy read
	return ks0108DoReadData(0);						// "real" read
}

void ks0108WriteCommand(uint8_t cmd, uint8_t chip) {
    134a:	df 93       	push	r29
    134c:	cf 93       	push	r28
    134e:	0f 92       	push	r0
    1350:	cd b7       	in	r28, 0x3d	; 61
    1352:	de b7       	in	r29, 0x3e	; 62
    1354:	98 2f       	mov	r25, r24
	if(chip == CHIP1) {
    1356:	66 23       	and	r22, r22
    1358:	19 f4       	brne	.+6      	; 0x1360 <ks0108WriteCommand+0x16>
		LCD_CMD_PORT &= ~(0x01 << CSEL2);			// deselect chip 2
    135a:	db 98       	cbi	0x1b, 3	; 27
		LCD_CMD_PORT |= 0x01 << CSEL1;				// select chip 1
    135c:	dc 9a       	sbi	0x1b, 4	; 27
    135e:	04 c0       	rjmp	.+8      	; 0x1368 <ks0108WriteCommand+0x1e>
	} else if(chip == CHIP2) {
    1360:	61 30       	cpi	r22, 0x01	; 1
    1362:	11 f4       	brne	.+4      	; 0x1368 <ks0108WriteCommand+0x1e>
		LCD_CMD_PORT &= ~(0x01 << CSEL1);			// deselect chip 1
    1364:	dc 98       	cbi	0x1b, 4	; 27
		LCD_CMD_PORT |= 0x01 << CSEL2;				// select chip 2
    1366:	db 9a       	sbi	0x1b, 3	; 27
	}
	
	LCD_CMD_PORT &= ~(0x01 << D_I);					// D/I = 0
    1368:	d9 98       	cbi	0x1b, 1	; 27
	LCD_CMD_PORT &= ~(0x01 << R_W);					// R/W = 0
    136a:	da 98       	cbi	0x1b, 2	; 27
	LCD_DATA_DIR = 0xFF;							// data port is output
    136c:	8f ef       	ldi	r24, 0xFF	; 255
    136e:	84 bb       	out	0x14, r24	; 20
	LCD_DATA_OUT = cmd;								// write command
    1370:	95 bb       	out	0x15, r25	; 21
	ks0108ClearScreen();							// display clear
	ks0108GotoXY(0,0);
}

inline void ks0108Enable(void) {
	LCD_CMD_PORT |= 0x01 << EN;						// EN high level width: min. 450ns
    1372:	d8 9a       	sbi	0x1b, 0	; 27
	asm volatile("nop\n\t"
    1374:	00 00       	nop
    1376:	00 00       	nop
    1378:	00 00       	nop
				 "nop\n\t"
				 "nop\n\t"
				 ::);
	LCD_CMD_PORT &= ~(0x01 << EN);
    137a:	d8 98       	cbi	0x1b, 0	; 27
	for(volatile uint8_t i=0; i<8; i++);			// a little delay loop (faster than reading the busy flag)
    137c:	19 82       	std	Y+1, r1	; 0x01
    137e:	03 c0       	rjmp	.+6      	; 0x1386 <ks0108WriteCommand+0x3c>
    1380:	89 81       	ldd	r24, Y+1	; 0x01
    1382:	8f 5f       	subi	r24, 0xFF	; 255
    1384:	89 83       	std	Y+1, r24	; 0x01
    1386:	89 81       	ldd	r24, Y+1	; 0x01
    1388:	88 30       	cpi	r24, 0x08	; 8
    138a:	d0 f3       	brcs	.-12     	; 0x1380 <ks0108WriteCommand+0x36>
	LCD_CMD_PORT &= ~(0x01 << D_I);					// D/I = 0
	LCD_CMD_PORT &= ~(0x01 << R_W);					// R/W = 0
	LCD_DATA_DIR = 0xFF;							// data port is output
	LCD_DATA_OUT = cmd;								// write command
	ks0108Enable();									// enable
	LCD_DATA_OUT = 0x00;
    138c:	15 ba       	out	0x15, r1	; 21
}
    138e:	0f 90       	pop	r0
    1390:	cf 91       	pop	r28
    1392:	df 91       	pop	r29
    1394:	08 95       	ret

00001396 <ks0108GotoXY>:
	}
	
	return width;
}

void ks0108GotoXY(uint8_t x, uint8_t y) {
    1396:	1f 93       	push	r17
	uint8_t chip = CHIP1, cmd;
	
	if(x > 127) x = 0;								// ensure that coordinates are legal
    1398:	87 fd       	sbrc	r24, 7
    139a:	80 e0       	ldi	r24, 0x00	; 0
	if(y > 63)  y = 0;
    139c:	60 34       	cpi	r22, 0x40	; 64
    139e:	08 f0       	brcs	.+2      	; 0x13a2 <ks0108GotoXY+0xc>
    13a0:	60 e0       	ldi	r22, 0x00	; 0
	
	ks0108Coord.x = x;								// save new coordinates
    13a2:	80 93 a7 06 	sts	0x06A7, r24
	ks0108Coord.y = y;
    13a6:	60 93 a8 06 	sts	0x06A8, r22
	ks0108Coord.page = y/8;
    13aa:	66 95       	lsr	r22
    13ac:	66 95       	lsr	r22
    13ae:	66 95       	lsr	r22
    13b0:	60 93 a9 06 	sts	0x06A9, r22
	
	if(x >= 64) {									// select the right chip
    13b4:	80 34       	cpi	r24, 0x40	; 64
    13b6:	10 f4       	brcc	.+4      	; 0x13bc <ks0108GotoXY+0x26>
    13b8:	60 e0       	ldi	r22, 0x00	; 0
    13ba:	02 c0       	rjmp	.+4      	; 0x13c0 <ks0108GotoXY+0x2a>
		x -= 64;
    13bc:	80 54       	subi	r24, 0x40	; 64
    13be:	61 e0       	ldi	r22, 0x01	; 1
		chip = CHIP2;
	}
	cmd = LCD_SET_ADD | x;
	ks0108WriteCommand(cmd, chip);					// set x address on active chip
    13c0:	80 64       	ori	r24, 0x40	; 64
    13c2:	0e 94 a5 09 	call	0x134a	; 0x134a <ks0108WriteCommand>
	
	cmd = LCD_SET_PAGE | ks0108Coord.page;			// set y address on both chips
    13c6:	10 91 a9 06 	lds	r17, 0x06A9
    13ca:	18 6b       	ori	r17, 0xB8	; 184
	ks0108WriteCommand(cmd, CHIP1);
    13cc:	81 2f       	mov	r24, r17
    13ce:	60 e0       	ldi	r22, 0x00	; 0
    13d0:	0e 94 a5 09 	call	0x134a	; 0x134a <ks0108WriteCommand>
	ks0108WriteCommand(cmd, CHIP2);
    13d4:	81 2f       	mov	r24, r17
    13d6:	61 e0       	ldi	r22, 0x01	; 1
    13d8:	0e 94 a5 09 	call	0x134a	; 0x134a <ks0108WriteCommand>
}
    13dc:	1f 91       	pop	r17
    13de:	08 95       	ret

000013e0 <ks0108DoReadData>:
				 ::);
	LCD_CMD_PORT &= ~(0x01 << EN);
	for(volatile uint8_t i=0; i<8; i++);			// a little delay loop (faster than reading the busy flag)
}

uint8_t ks0108DoReadData(uint8_t first) {
    13e0:	1f 93       	push	r17
    13e2:	df 93       	push	r29
    13e4:	cf 93       	push	r28
    13e6:	0f 92       	push	r0
    13e8:	cd b7       	in	r28, 0x3d	; 61
    13ea:	de b7       	in	r29, 0x3e	; 62
	uint8_t data;
	volatile uint8_t i;
	
	LCD_DATA_OUT = 0x00;
    13ec:	15 ba       	out	0x15, r1	; 21
	LCD_DATA_DIR = 0x00;							// data port is input
    13ee:	14 ba       	out	0x14, r1	; 20
	
	if(ks0108Coord.x < 64) {
    13f0:	90 91 a7 06 	lds	r25, 0x06A7
    13f4:	90 34       	cpi	r25, 0x40	; 64
    13f6:	18 f4       	brcc	.+6      	; 0x13fe <ks0108DoReadData+0x1e>
		LCD_CMD_PORT &= ~(0x01 << CSEL2);			// deselect chip 2
    13f8:	db 98       	cbi	0x1b, 3	; 27
		LCD_CMD_PORT |= 0x01 << CSEL1;				// select chip 1
    13fa:	dc 9a       	sbi	0x1b, 4	; 27
    13fc:	02 c0       	rjmp	.+4      	; 0x1402 <ks0108DoReadData+0x22>
	} else if(ks0108Coord.x >= 64) {
		LCD_CMD_PORT &= ~(0x01 << CSEL1);			// deselect chip 1
    13fe:	dc 98       	cbi	0x1b, 4	; 27
		LCD_CMD_PORT |= 0x01 << CSEL2;				// select chip 2
    1400:	db 9a       	sbi	0x1b, 3	; 27
	}
	if(ks0108Coord.x == 64 && first) {				// chip2 X-address = 0
    1402:	90 34       	cpi	r25, 0x40	; 64
    1404:	31 f4       	brne	.+12     	; 0x1412 <ks0108DoReadData+0x32>
    1406:	88 23       	and	r24, r24
    1408:	21 f0       	breq	.+8      	; 0x1412 <ks0108DoReadData+0x32>
		ks0108WriteCommand(LCD_SET_ADD, CHIP2); 	// wuff wuff
    140a:	80 e4       	ldi	r24, 0x40	; 64
    140c:	61 e0       	ldi	r22, 0x01	; 1
    140e:	0e 94 a5 09 	call	0x134a	; 0x134a <ks0108WriteCommand>
	}
	
	LCD_CMD_PORT |= 0x01 << D_I;					// D/I = 1
    1412:	d9 9a       	sbi	0x1b, 1	; 27
	LCD_CMD_PORT |= 0x01 << R_W;					// R/W = 1
    1414:	da 9a       	sbi	0x1b, 2	; 27
	
	LCD_CMD_PORT |= 0x01 << EN;						// EN high level width: min. 450ns
    1416:	d8 9a       	sbi	0x1b, 0	; 27
	asm volatile("nop\n\t"
    1418:	00 00       	nop
    141a:	00 00       	nop
    141c:	00 00       	nop
				 "nop\n\t"
				 "nop\n\t"
				 ::);
	
	data = LCD_DATA_IN;								// read Data			 
    141e:	13 b3       	in	r17, 0x13	; 19
	
	LCD_CMD_PORT &= ~(0x01 << EN);
    1420:	d8 98       	cbi	0x1b, 0	; 27
	for(i=0; i<8; i++);								// a little delay loop (faster than reading the busy flag)
    1422:	19 82       	std	Y+1, r1	; 0x01
    1424:	03 c0       	rjmp	.+6      	; 0x142c <ks0108DoReadData+0x4c>
    1426:	89 81       	ldd	r24, Y+1	; 0x01
    1428:	8f 5f       	subi	r24, 0xFF	; 255
    142a:	89 83       	std	Y+1, r24	; 0x01
    142c:	89 81       	ldd	r24, Y+1	; 0x01
    142e:	88 30       	cpi	r24, 0x08	; 8
    1430:	d0 f3       	brcs	.-12     	; 0x1426 <ks0108DoReadData+0x46>
	
	LCD_DATA_DIR = 0xFF;
    1432:	8f ef       	ldi	r24, 0xFF	; 255
    1434:	84 bb       	out	0x14, r24	; 20
	
	ks0108GotoXY(ks0108Coord.x, ks0108Coord.y);
    1436:	80 91 a7 06 	lds	r24, 0x06A7
    143a:	60 91 a8 06 	lds	r22, 0x06A8
    143e:	0e 94 cb 09 	call	0x1396	; 0x1396 <ks0108GotoXY>
	
	if(ks0108Inverted)
    1442:	80 91 1c 05 	lds	r24, 0x051C
    1446:	81 11       	cpse	r24, r1
		data = ~data;
    1448:	10 95       	com	r17
	return data;
}
    144a:	81 2f       	mov	r24, r17
    144c:	0f 90       	pop	r0
    144e:	cf 91       	pop	r28
    1450:	df 91       	pop	r29
    1452:	1f 91       	pop	r17
    1454:	08 95       	ret

00001456 <ks0108WriteData>:
	LCD_DATA_OUT = cmd;								// write command
	ks0108Enable();									// enable
	LCD_DATA_OUT = 0x00;
}

void ks0108WriteData(uint8_t data) {
    1456:	df 92       	push	r13
    1458:	ef 92       	push	r14
    145a:	ff 92       	push	r15
    145c:	0f 93       	push	r16
    145e:	1f 93       	push	r17
    1460:	df 93       	push	r29
    1462:	cf 93       	push	r28
    1464:	0f 92       	push	r0
    1466:	cd b7       	in	r28, 0x3d	; 61
    1468:	de b7       	in	r29, 0x3e	; 62
    146a:	f8 2e       	mov	r15, r24
#ifdef DEBUG
	volatile uint16_t i;
	for(i=0; i<5000; i++);
#endif

	if(ks0108Coord.x >= 128)
    146c:	80 91 a7 06 	lds	r24, 0x06A7
    1470:	87 fd       	sbrc	r24, 7
    1472:	8b c0       	rjmp	.+278    	; 0x158a <ks0108WriteData+0x134>
		return;

	if(ks0108Coord.x < 64) {
    1474:	80 34       	cpi	r24, 0x40	; 64
    1476:	18 f4       	brcc	.+6      	; 0x147e <ks0108WriteData+0x28>
		LCD_CMD_PORT &= ~(0x01 << CSEL2);			// deselect chip 2
    1478:	db 98       	cbi	0x1b, 3	; 27
		LCD_CMD_PORT |= 0x01 << CSEL1;				// select chip 1
    147a:	dc 9a       	sbi	0x1b, 4	; 27
    147c:	02 c0       	rjmp	.+4      	; 0x1482 <ks0108WriteData+0x2c>
	} else if(ks0108Coord.x >= 64) {
		LCD_CMD_PORT &= ~(0x01 << CSEL1);			// deselect chip 1
    147e:	dc 98       	cbi	0x1b, 4	; 27
		LCD_CMD_PORT |= 0x01 << CSEL2;				// select chip 2
    1480:	db 9a       	sbi	0x1b, 3	; 27
	}
	if(ks0108Coord.x == 64)							// chip2 X-address = 0
    1482:	80 34       	cpi	r24, 0x40	; 64
    1484:	19 f4       	brne	.+6      	; 0x148c <ks0108WriteData+0x36>
		ks0108WriteCommand(LCD_SET_ADD, CHIP2);
    1486:	61 e0       	ldi	r22, 0x01	; 1
    1488:	0e 94 a5 09 	call	0x134a	; 0x134a <ks0108WriteCommand>
	
	LCD_CMD_PORT |= 0x01 << D_I;					// D/I = 1
    148c:	d9 9a       	sbi	0x1b, 1	; 27
	LCD_CMD_PORT &= ~(0x01 << R_W);					// R/W = 0
    148e:	da 98       	cbi	0x1b, 2	; 27
	LCD_DATA_DIR = 0xFF;							// data port is output
    1490:	0f ef       	ldi	r16, 0xFF	; 255
    1492:	04 bb       	out	0x14, r16	; 20
	
	
	yOffset = ks0108Coord.y%8;
    1494:	10 91 a8 06 	lds	r17, 0x06A8
    1498:	17 70       	andi	r17, 0x07	; 7
	if(yOffset != 0) {
    149a:	09 f4       	brne	.+2      	; 0x149e <ks0108WriteData+0x48>
    149c:	5e c0       	rjmp	.+188    	; 0x155a <ks0108WriteData+0x104>
		// first page
		cmdPort = LCD_CMD_PORT;						// save command port
    149e:	db b2       	in	r13, 0x1b	; 27
		data = ~data;
	return data;
}

inline uint8_t ks0108ReadData(void) {
	ks0108DoReadData(1);							// dummy read
    14a0:	81 e0       	ldi	r24, 0x01	; 1
    14a2:	0e 94 f0 09 	call	0x13e0	; 0x13e0 <ks0108DoReadData>
	return ks0108DoReadData(0);						// "real" read
    14a6:	80 e0       	ldi	r24, 0x00	; 0
    14a8:	0e 94 f0 09 	call	0x13e0	; 0x13e0 <ks0108DoReadData>
	if(yOffset != 0) {
		// first page
		cmdPort = LCD_CMD_PORT;						// save command port
		displayData = ks0108ReadData();
		
		LCD_CMD_PORT = cmdPort;						// restore command port
    14ac:	db ba       	out	0x1b, r13	; 27
		LCD_DATA_DIR = 0xFF;						// data port is output
    14ae:	04 bb       	out	0x14, r16	; 20
		
		displayData |= data << yOffset;
    14b0:	ef 2c       	mov	r14, r15
    14b2:	ff 24       	eor	r15, r15
    14b4:	01 2f       	mov	r16, r17
    14b6:	10 e0       	ldi	r17, 0x00	; 0
    14b8:	97 01       	movw	r18, r14
    14ba:	00 2e       	mov	r0, r16
    14bc:	02 c0       	rjmp	.+4      	; 0x14c2 <ks0108WriteData+0x6c>
    14be:	22 0f       	add	r18, r18
    14c0:	33 1f       	adc	r19, r19
    14c2:	0a 94       	dec	r0
    14c4:	e2 f7       	brpl	.-8      	; 0x14be <ks0108WriteData+0x68>
    14c6:	98 2f       	mov	r25, r24
    14c8:	92 2b       	or	r25, r18
		if(ks0108Inverted)
    14ca:	80 91 1c 05 	lds	r24, 0x051C
    14ce:	81 11       	cpse	r24, r1
			displayData = ~displayData;
    14d0:	90 95       	com	r25
		LCD_DATA_OUT = displayData;					// write data
    14d2:	95 bb       	out	0x15, r25	; 21
	ks0108ClearScreen();							// display clear
	ks0108GotoXY(0,0);
}

inline void ks0108Enable(void) {
	LCD_CMD_PORT |= 0x01 << EN;						// EN high level width: min. 450ns
    14d4:	d8 9a       	sbi	0x1b, 0	; 27
	asm volatile("nop\n\t"
    14d6:	00 00       	nop
    14d8:	00 00       	nop
    14da:	00 00       	nop
				 "nop\n\t"
				 "nop\n\t"
				 ::);
	LCD_CMD_PORT &= ~(0x01 << EN);
    14dc:	d8 98       	cbi	0x1b, 0	; 27
	for(volatile uint8_t i=0; i<8; i++);			// a little delay loop (faster than reading the busy flag)
    14de:	19 82       	std	Y+1, r1	; 0x01
    14e0:	03 c0       	rjmp	.+6      	; 0x14e8 <ks0108WriteData+0x92>
    14e2:	89 81       	ldd	r24, Y+1	; 0x01
    14e4:	8f 5f       	subi	r24, 0xFF	; 255
    14e6:	89 83       	std	Y+1, r24	; 0x01
    14e8:	89 81       	ldd	r24, Y+1	; 0x01
    14ea:	88 30       	cpi	r24, 0x08	; 8
    14ec:	d0 f3       	brcs	.-12     	; 0x14e2 <ks0108WriteData+0x8c>
			displayData = ~displayData;
		LCD_DATA_OUT = displayData;					// write data
		ks0108Enable();								// enable
		
		// second page
		ks0108GotoXY(ks0108Coord.x, ks0108Coord.y+8);
    14ee:	60 91 a8 06 	lds	r22, 0x06A8
    14f2:	68 5f       	subi	r22, 0xF8	; 248
    14f4:	80 91 a7 06 	lds	r24, 0x06A7
    14f8:	0e 94 cb 09 	call	0x1396	; 0x1396 <ks0108GotoXY>
		data = ~data;
	return data;
}

inline uint8_t ks0108ReadData(void) {
	ks0108DoReadData(1);							// dummy read
    14fc:	81 e0       	ldi	r24, 0x01	; 1
    14fe:	0e 94 f0 09 	call	0x13e0	; 0x13e0 <ks0108DoReadData>
	return ks0108DoReadData(0);						// "real" read
    1502:	80 e0       	ldi	r24, 0x00	; 0
    1504:	0e 94 f0 09 	call	0x13e0	; 0x13e0 <ks0108DoReadData>
		// second page
		ks0108GotoXY(ks0108Coord.x, ks0108Coord.y+8);
		
		displayData = ks0108ReadData();
		
		LCD_CMD_PORT = cmdPort;						// restore command port
    1508:	db ba       	out	0x1b, r13	; 27
		LCD_DATA_DIR = 0xFF;						// data port is output
    150a:	9f ef       	ldi	r25, 0xFF	; 255
    150c:	94 bb       	out	0x14, r25	; 20
		
		displayData |= data >> (8-yOffset);
    150e:	28 e0       	ldi	r18, 0x08	; 8
    1510:	30 e0       	ldi	r19, 0x00	; 0
    1512:	20 1b       	sub	r18, r16
    1514:	31 0b       	sbc	r19, r17
    1516:	02 c0       	rjmp	.+4      	; 0x151c <ks0108WriteData+0xc6>
    1518:	f5 94       	asr	r15
    151a:	e7 94       	ror	r14
    151c:	2a 95       	dec	r18
    151e:	e2 f7       	brpl	.-8      	; 0x1518 <ks0108WriteData+0xc2>
    1520:	28 2f       	mov	r18, r24
    1522:	2e 29       	or	r18, r14
		if(ks0108Inverted)
    1524:	80 91 1c 05 	lds	r24, 0x051C
    1528:	81 11       	cpse	r24, r1
			displayData = ~displayData;
    152a:	20 95       	com	r18
		LCD_DATA_OUT = displayData;					// write data
    152c:	25 bb       	out	0x15, r18	; 21
	ks0108ClearScreen();							// display clear
	ks0108GotoXY(0,0);
}

inline void ks0108Enable(void) {
	LCD_CMD_PORT |= 0x01 << EN;						// EN high level width: min. 450ns
    152e:	d8 9a       	sbi	0x1b, 0	; 27
	asm volatile("nop\n\t"
    1530:	00 00       	nop
    1532:	00 00       	nop
    1534:	00 00       	nop
				 "nop\n\t"
				 "nop\n\t"
				 ::);
	LCD_CMD_PORT &= ~(0x01 << EN);
    1536:	d8 98       	cbi	0x1b, 0	; 27
	for(volatile uint8_t i=0; i<8; i++);			// a little delay loop (faster than reading the busy flag)
    1538:	19 82       	std	Y+1, r1	; 0x01
    153a:	03 c0       	rjmp	.+6      	; 0x1542 <ks0108WriteData+0xec>
    153c:	89 81       	ldd	r24, Y+1	; 0x01
    153e:	8f 5f       	subi	r24, 0xFF	; 255
    1540:	89 83       	std	Y+1, r24	; 0x01
    1542:	89 81       	ldd	r24, Y+1	; 0x01
    1544:	88 30       	cpi	r24, 0x08	; 8
    1546:	d0 f3       	brcs	.-12     	; 0x153c <ks0108WriteData+0xe6>
		if(ks0108Inverted)
			displayData = ~displayData;
		LCD_DATA_OUT = displayData;					// write data
		ks0108Enable();								// enable
		
		ks0108GotoXY(ks0108Coord.x+1, ks0108Coord.y-8);
    1548:	80 91 a7 06 	lds	r24, 0x06A7
    154c:	60 91 a8 06 	lds	r22, 0x06A8
    1550:	68 50       	subi	r22, 0x08	; 8
    1552:	8f 5f       	subi	r24, 0xFF	; 255
    1554:	0e 94 cb 09 	call	0x1396	; 0x1396 <ks0108GotoXY>
    1558:	17 c0       	rjmp	.+46     	; 0x1588 <ks0108WriteData+0x132>
	} else {
		if(ks0108Inverted)
    155a:	80 91 1c 05 	lds	r24, 0x051C
    155e:	81 11       	cpse	r24, r1
			data = ~data;
    1560:	f0 94       	com	r15
		LCD_DATA_OUT = data;						// write data
    1562:	f5 ba       	out	0x15, r15	; 21
	ks0108ClearScreen();							// display clear
	ks0108GotoXY(0,0);
}

inline void ks0108Enable(void) {
	LCD_CMD_PORT |= 0x01 << EN;						// EN high level width: min. 450ns
    1564:	d8 9a       	sbi	0x1b, 0	; 27
	asm volatile("nop\n\t"
    1566:	00 00       	nop
    1568:	00 00       	nop
    156a:	00 00       	nop
				 "nop\n\t"
				 "nop\n\t"
				 ::);
	LCD_CMD_PORT &= ~(0x01 << EN);
    156c:	d8 98       	cbi	0x1b, 0	; 27
	for(volatile uint8_t i=0; i<8; i++);			// a little delay loop (faster than reading the busy flag)
    156e:	19 82       	std	Y+1, r1	; 0x01
    1570:	03 c0       	rjmp	.+6      	; 0x1578 <ks0108WriteData+0x122>
    1572:	89 81       	ldd	r24, Y+1	; 0x01
    1574:	8f 5f       	subi	r24, 0xFF	; 255
    1576:	89 83       	std	Y+1, r24	; 0x01
    1578:	89 81       	ldd	r24, Y+1	; 0x01
    157a:	88 30       	cpi	r24, 0x08	; 8
    157c:	d0 f3       	brcs	.-12     	; 0x1572 <ks0108WriteData+0x11c>
	} else {
		if(ks0108Inverted)
			data = ~data;
		LCD_DATA_OUT = data;						// write data
		ks0108Enable();								// enable
		ks0108Coord.x++;
    157e:	80 91 a7 06 	lds	r24, 0x06A7
    1582:	8f 5f       	subi	r24, 0xFF	; 255
    1584:	80 93 a7 06 	sts	0x06A7, r24
	}
	LCD_DATA_OUT = 0x00;
    1588:	15 ba       	out	0x15, r1	; 21
}
    158a:	0f 90       	pop	r0
    158c:	cf 91       	pop	r28
    158e:	df 91       	pop	r29
    1590:	1f 91       	pop	r17
    1592:	0f 91       	pop	r16
    1594:	ff 90       	pop	r15
    1596:	ef 90       	pop	r14
    1598:	df 90       	pop	r13
    159a:	08 95       	ret

0000159c <ks0108PutChar>:
	ks0108Font = font;
	ks0108FontRead = callback;
	ks0108FontColor = color;
}

int ks0108PutChar(char c) {
    159c:	2f 92       	push	r2
    159e:	3f 92       	push	r3
    15a0:	4f 92       	push	r4
    15a2:	5f 92       	push	r5
    15a4:	6f 92       	push	r6
    15a6:	7f 92       	push	r7
    15a8:	8f 92       	push	r8
    15aa:	9f 92       	push	r9
    15ac:	af 92       	push	r10
    15ae:	bf 92       	push	r11
    15b0:	cf 92       	push	r12
    15b2:	df 92       	push	r13
    15b4:	ef 92       	push	r14
    15b6:	ff 92       	push	r15
    15b8:	0f 93       	push	r16
    15ba:	1f 93       	push	r17
    15bc:	cf 93       	push	r28
    15be:	df 93       	push	r29
    15c0:	08 2f       	mov	r16, r24
	uint8_t width = 0;
	uint8_t height = ks0108FontRead(ks0108Font+FONT_HEIGHT);
    15c2:	80 91 ac 06 	lds	r24, 0x06AC
    15c6:	90 91 ad 06 	lds	r25, 0x06AD
    15ca:	e0 91 aa 06 	lds	r30, 0x06AA
    15ce:	f0 91 ab 06 	lds	r31, 0x06AB
    15d2:	03 96       	adiw	r24, 0x03	; 3
    15d4:	09 95       	icall
    15d6:	c8 2e       	mov	r12, r24
	uint8_t bytes = (height+7)/8;
	
	uint8_t firstChar = ks0108FontRead(ks0108Font+FONT_FIRST_CHAR);
    15d8:	80 91 ac 06 	lds	r24, 0x06AC
    15dc:	90 91 ad 06 	lds	r25, 0x06AD
    15e0:	e0 91 aa 06 	lds	r30, 0x06AA
    15e4:	f0 91 ab 06 	lds	r31, 0x06AB
    15e8:	04 96       	adiw	r24, 0x04	; 4
    15ea:	09 95       	icall
    15ec:	18 2f       	mov	r17, r24
	uint8_t charCount = ks0108FontRead(ks0108Font+FONT_CHAR_COUNT);
    15ee:	80 91 ac 06 	lds	r24, 0x06AC
    15f2:	90 91 ad 06 	lds	r25, 0x06AD
    15f6:	e0 91 aa 06 	lds	r30, 0x06AA
    15fa:	f0 91 ab 06 	lds	r31, 0x06AB
    15fe:	05 96       	adiw	r24, 0x05	; 5
    1600:	09 95       	icall
    1602:	d8 2e       	mov	r13, r24
	
	uint16_t index = 0;
	uint8_t x = ks0108Coord.x, y = ks0108Coord.y;
    1604:	50 90 a7 06 	lds	r5, 0x06A7
    1608:	20 90 a8 06 	lds	r2, 0x06A8
	
	if(c < firstChar || c >= (firstChar+charCount)) {
    160c:	01 17       	cp	r16, r17
    160e:	08 f4       	brcc	.+2      	; 0x1612 <ks0108PutChar+0x76>
    1610:	a0 c0       	rjmp	.+320    	; 0x1752 <ks0108PutChar+0x1b6>
    1612:	20 2f       	mov	r18, r16
    1614:	30 e0       	ldi	r19, 0x00	; 0
    1616:	81 2f       	mov	r24, r17
    1618:	90 e0       	ldi	r25, 0x00	; 0
    161a:	8d 0d       	add	r24, r13
    161c:	91 1d       	adc	r25, r1
    161e:	28 17       	cp	r18, r24
    1620:	39 07       	cpc	r19, r25
    1622:	0c f0       	brlt	.+2      	; 0x1626 <ks0108PutChar+0x8a>
    1624:	96 c0       	rjmp	.+300    	; 0x1752 <ks0108PutChar+0x1b6>
		return 1;
	}
	c-= firstChar;
    1626:	e0 2e       	mov	r14, r16
    1628:	e1 1a       	sub	r14, r17
    162a:	00 e0       	ldi	r16, 0x00	; 0
    162c:	10 e0       	ldi	r17, 0x00	; 0
    162e:	ff 24       	eor	r15, r15
    1630:	c6 e0       	ldi	r28, 0x06	; 6
    1632:	d0 e0       	ldi	r29, 0x00	; 0
    1634:	08 c0       	rjmp	.+16     	; 0x1646 <ks0108PutChar+0xaa>
	
	// read width data, to get the index
	for(uint8_t i=0; i<c; i++) {
		index += ks0108FontRead(ks0108Font+FONT_WIDTH_TABLE+i);
    1636:	c9 01       	movw	r24, r18
    1638:	8c 0f       	add	r24, r28
    163a:	9d 1f       	adc	r25, r29
    163c:	09 95       	icall
    163e:	08 0f       	add	r16, r24
    1640:	11 1d       	adc	r17, r1
		return 1;
	}
	c-= firstChar;
	
	// read width data, to get the index
	for(uint8_t i=0; i<c; i++) {
    1642:	f3 94       	inc	r15
    1644:	21 96       	adiw	r28, 0x01	; 1
    1646:	20 91 ac 06 	lds	r18, 0x06AC
    164a:	30 91 ad 06 	lds	r19, 0x06AD
    164e:	e0 91 aa 06 	lds	r30, 0x06AA
    1652:	f0 91 ab 06 	lds	r31, 0x06AB
    1656:	fe 14       	cp	r15, r14
    1658:	70 f3       	brcs	.-36     	; 0x1636 <ks0108PutChar+0x9a>
}

int ks0108PutChar(char c) {
	uint8_t width = 0;
	uint8_t height = ks0108FontRead(ks0108Font+FONT_HEIGHT);
	uint8_t bytes = (height+7)/8;
    165a:	cc 2d       	mov	r28, r12
    165c:	d0 e0       	ldi	r29, 0x00	; 0
    165e:	27 96       	adiw	r28, 0x07	; 7
    1660:	ce 01       	movw	r24, r28
    1662:	43 e0       	ldi	r20, 0x03	; 3
    1664:	95 95       	asr	r25
    1666:	87 95       	ror	r24
    1668:	4a 95       	dec	r20
    166a:	e1 f7       	brne	.-8      	; 0x1664 <ks0108PutChar+0xc8>
    166c:	27 97       	sbiw	r28, 0x07	; 7
	
	// read width data, to get the index
	for(uint8_t i=0; i<c; i++) {
		index += ks0108FontRead(ks0108Font+FONT_WIDTH_TABLE+i);
	}
	index = index*bytes+charCount+FONT_WIDTH_TABLE;
    166e:	38 2e       	mov	r3, r24
    1670:	ac 01       	movw	r20, r24
    1672:	40 9f       	mul	r20, r16
    1674:	c0 01       	movw	r24, r0
    1676:	41 9f       	mul	r20, r17
    1678:	90 0d       	add	r25, r0
    167a:	50 9f       	mul	r21, r16
    167c:	90 0d       	add	r25, r0
    167e:	11 24       	eor	r1, r1
    1680:	cd 2c       	mov	r12, r13
    1682:	dd 24       	eor	r13, r13
    1684:	46 e0       	ldi	r20, 0x06	; 6
    1686:	50 e0       	ldi	r21, 0x00	; 0
    1688:	c4 0e       	add	r12, r20
    168a:	d5 1e       	adc	r13, r21
    168c:	c8 0e       	add	r12, r24
    168e:	d9 1e       	adc	r13, r25
	width = ks0108FontRead(ks0108Font+FONT_WIDTH_TABLE+c);
    1690:	8e 2d       	mov	r24, r14
    1692:	90 e0       	ldi	r25, 0x00	; 0
    1694:	06 96       	adiw	r24, 0x06	; 6
    1696:	82 0f       	add	r24, r18
    1698:	93 1f       	adc	r25, r19
    169a:	09 95       	icall
    169c:	68 2e       	mov	r6, r24
    169e:	98 e0       	ldi	r25, 0x08	; 8
    16a0:	e9 2e       	mov	r14, r25
    16a2:	f1 2c       	mov	r15, r1
    16a4:	ec 1a       	sub	r14, r28
    16a6:	fd 0a       	sbc	r15, r29
    16a8:	77 24       	eor	r7, r7
    16aa:	88 24       	eor	r8, r8
    16ac:	88 e0       	ldi	r24, 0x08	; 8
    16ae:	a8 2e       	mov	r10, r24
    16b0:	b1 2c       	mov	r11, r1
    16b2:	43 c0       	rjmp	.+134    	; 0x173a <ks0108PutChar+0x19e>
	
	// last but not least, draw the character
	for(uint8_t i=0; i<bytes; i++) {
    16b4:	4e 2c       	mov	r4, r14
    16b6:	86 01       	movw	r16, r12
    16b8:	08 0d       	add	r16, r8
    16ba:	11 1d       	adc	r17, r1
    16bc:	99 24       	eor	r9, r9
    16be:	24 c0       	rjmp	.+72     	; 0x1708 <ks0108PutChar+0x16c>
		uint8_t page = i*width;
		for(uint8_t j=0; j<width; j++) {
			uint8_t data = ks0108FontRead(ks0108Font+index+page+j);
    16c0:	80 91 ac 06 	lds	r24, 0x06AC
    16c4:	90 91 ad 06 	lds	r25, 0x06AD
    16c8:	e0 91 aa 06 	lds	r30, 0x06AA
    16cc:	f0 91 ab 06 	lds	r31, 0x06AB
    16d0:	80 0f       	add	r24, r16
    16d2:	91 1f       	adc	r25, r17
    16d4:	09 95       	icall
    16d6:	98 2f       	mov	r25, r24
			
			if(height < (i+1)*8) {
    16d8:	ca 15       	cp	r28, r10
    16da:	db 05       	cpc	r29, r11
    16dc:	44 f4       	brge	.+16     	; 0x16ee <ks0108PutChar+0x152>
				data >>= (i+1)*8-height;
    16de:	90 e0       	ldi	r25, 0x00	; 0
    16e0:	04 2c       	mov	r0, r4
    16e2:	02 c0       	rjmp	.+4      	; 0x16e8 <ks0108PutChar+0x14c>
    16e4:	95 95       	asr	r25
    16e6:	87 95       	ror	r24
    16e8:	0a 94       	dec	r0
    16ea:	e2 f7       	brpl	.-8      	; 0x16e4 <ks0108PutChar+0x148>
    16ec:	98 2f       	mov	r25, r24
			}
			
			if(ks0108FontColor == BLACK) {
    16ee:	80 91 a6 06 	lds	r24, 0x06A6
    16f2:	8f 3f       	cpi	r24, 0xFF	; 255
    16f4:	11 f4       	brne	.+4      	; 0x16fa <ks0108PutChar+0x15e>
				ks0108WriteData(data);
    16f6:	89 2f       	mov	r24, r25
    16f8:	02 c0       	rjmp	.+4      	; 0x16fe <ks0108PutChar+0x162>
			} else {
				ks0108WriteData(~data);
    16fa:	89 2f       	mov	r24, r25
    16fc:	80 95       	com	r24
    16fe:	0e 94 2b 0a 	call	0x1456	; 0x1456 <ks0108WriteData>
	width = ks0108FontRead(ks0108Font+FONT_WIDTH_TABLE+c);
	
	// last but not least, draw the character
	for(uint8_t i=0; i<bytes; i++) {
		uint8_t page = i*width;
		for(uint8_t j=0; j<width; j++) {
    1702:	93 94       	inc	r9
    1704:	0f 5f       	subi	r16, 0xFF	; 255
    1706:	1f 4f       	sbci	r17, 0xFF	; 255
    1708:	96 14       	cp	r9, r6
    170a:	d0 f2       	brcs	.-76     	; 0x16c0 <ks0108PutChar+0x124>
			} else {
				ks0108WriteData(~data);
			}
		}
		// 1px gap between chars
		if(ks0108FontColor == BLACK) {
    170c:	80 91 a6 06 	lds	r24, 0x06A6
    1710:	8f 3f       	cpi	r24, 0xFF	; 255
    1712:	11 f4       	brne	.+4      	; 0x1718 <ks0108PutChar+0x17c>
			ks0108WriteData(0x00);
    1714:	80 e0       	ldi	r24, 0x00	; 0
    1716:	01 c0       	rjmp	.+2      	; 0x171a <ks0108PutChar+0x17e>
		} else {
			ks0108WriteData(0xFF);
    1718:	8f ef       	ldi	r24, 0xFF	; 255
    171a:	0e 94 2b 0a 	call	0x1456	; 0x1456 <ks0108WriteData>
		}
		ks0108GotoXY(x, ks0108Coord.y+8);
    171e:	60 91 a8 06 	lds	r22, 0x06A8
    1722:	68 5f       	subi	r22, 0xF8	; 248
    1724:	85 2d       	mov	r24, r5
    1726:	0e 94 cb 09 	call	0x1396	; 0x1396 <ks0108GotoXY>
	}
	index = index*bytes+charCount+FONT_WIDTH_TABLE;
	width = ks0108FontRead(ks0108Font+FONT_WIDTH_TABLE+c);
	
	// last but not least, draw the character
	for(uint8_t i=0; i<bytes; i++) {
    172a:	73 94       	inc	r7
    172c:	86 0c       	add	r8, r6
    172e:	88 e0       	ldi	r24, 0x08	; 8
    1730:	90 e0       	ldi	r25, 0x00	; 0
    1732:	a8 0e       	add	r10, r24
    1734:	b9 1e       	adc	r11, r25
    1736:	e8 0e       	add	r14, r24
    1738:	f9 1e       	adc	r15, r25
    173a:	73 14       	cp	r7, r3
    173c:	08 f4       	brcc	.+2      	; 0x1740 <ks0108PutChar+0x1a4>
    173e:	ba cf       	rjmp	.-140    	; 0x16b4 <ks0108PutChar+0x118>
		} else {
			ks0108WriteData(0xFF);
		}
		ks0108GotoXY(x, ks0108Coord.y+8);
	}
	ks0108GotoXY(x+width+1, y);
    1740:	53 94       	inc	r5
    1742:	85 2d       	mov	r24, r5
    1744:	86 0d       	add	r24, r6
    1746:	62 2d       	mov	r22, r2
    1748:	0e 94 cb 09 	call	0x1396	; 0x1396 <ks0108GotoXY>
    174c:	20 e0       	ldi	r18, 0x00	; 0
    174e:	30 e0       	ldi	r19, 0x00	; 0
    1750:	02 c0       	rjmp	.+4      	; 0x1756 <ks0108PutChar+0x1ba>
	
	return 0;
    1752:	21 e0       	ldi	r18, 0x01	; 1
    1754:	30 e0       	ldi	r19, 0x00	; 0
}
    1756:	c9 01       	movw	r24, r18
    1758:	df 91       	pop	r29
    175a:	cf 91       	pop	r28
    175c:	1f 91       	pop	r17
    175e:	0f 91       	pop	r16
    1760:	ff 90       	pop	r15
    1762:	ef 90       	pop	r14
    1764:	df 90       	pop	r13
    1766:	cf 90       	pop	r12
    1768:	bf 90       	pop	r11
    176a:	af 90       	pop	r10
    176c:	9f 90       	pop	r9
    176e:	8f 90       	pop	r8
    1770:	7f 90       	pop	r7
    1772:	6f 90       	pop	r6
    1774:	5f 90       	pop	r5
    1776:	4f 90       	pop	r4
    1778:	3f 90       	pop	r3
    177a:	2f 90       	pop	r2
    177c:	08 95       	ret

0000177e <ks0108Puts_P>:
		}
		str++;
	}
}

void ks0108Puts_P(PGM_P str) {
    177e:	0f 93       	push	r16
    1780:	1f 93       	push	r17
    1782:	cf 93       	push	r28
    1784:	df 93       	push	r29
    1786:	ec 01       	movw	r28, r24
	int x = ks0108Coord.x;
    1788:	00 91 a7 06 	lds	r16, 0x06A7
    178c:	17 c0       	rjmp	.+46     	; 0x17bc <ks0108Puts_P+0x3e>
	while(pgm_read_byte(str) != 0) {
		if(pgm_read_byte(str) == '\n') {
    178e:	8a 30       	cpi	r24, 0x0A	; 10
    1790:	91 f4       	brne	.+36     	; 0x17b6 <ks0108Puts_P+0x38>
			ks0108GotoXY(x, ks0108Coord.y+ks0108FontRead(ks0108Font+FONT_HEIGHT));
    1792:	10 91 a8 06 	lds	r17, 0x06A8
    1796:	80 91 ac 06 	lds	r24, 0x06AC
    179a:	90 91 ad 06 	lds	r25, 0x06AD
    179e:	e0 91 aa 06 	lds	r30, 0x06AA
    17a2:	f0 91 ab 06 	lds	r31, 0x06AB
    17a6:	03 96       	adiw	r24, 0x03	; 3
    17a8:	09 95       	icall
    17aa:	18 0f       	add	r17, r24
    17ac:	80 2f       	mov	r24, r16
    17ae:	61 2f       	mov	r22, r17
    17b0:	0e 94 cb 09 	call	0x1396	; 0x1396 <ks0108GotoXY>
    17b4:	02 c0       	rjmp	.+4      	; 0x17ba <ks0108Puts_P+0x3c>
		} else {
			ks0108PutChar(pgm_read_byte(str));
    17b6:	0e 94 ce 0a 	call	0x159c	; 0x159c <ks0108PutChar>
		}
		str++;
    17ba:	21 96       	adiw	r28, 0x01	; 1
	}
}

void ks0108Puts_P(PGM_P str) {
	int x = ks0108Coord.x;
	while(pgm_read_byte(str) != 0) {
    17bc:	fe 01       	movw	r30, r28
    17be:	84 91       	lpm	r24, Z+
    17c0:	88 23       	and	r24, r24
    17c2:	29 f7       	brne	.-54     	; 0x178e <ks0108Puts_P+0x10>
		} else {
			ks0108PutChar(pgm_read_byte(str));
		}
		str++;
	}
}
    17c4:	df 91       	pop	r29
    17c6:	cf 91       	pop	r28
    17c8:	1f 91       	pop	r17
    17ca:	0f 91       	pop	r16
    17cc:	08 95       	ret

000017ce <ks0108Puts>:
	ks0108GotoXY(x+width+1, y);
	
	return 0;
}

void ks0108Puts(char* str) {
    17ce:	0f 93       	push	r16
    17d0:	1f 93       	push	r17
    17d2:	cf 93       	push	r28
    17d4:	df 93       	push	r29
    17d6:	ec 01       	movw	r28, r24
	int x = ks0108Coord.x;
    17d8:	00 91 a7 06 	lds	r16, 0x06A7
    17dc:	17 c0       	rjmp	.+46     	; 0x180c <ks0108Puts+0x3e>
	while(*str != 0) {
		if(*str == '\n') {
    17de:	8a 30       	cpi	r24, 0x0A	; 10
    17e0:	91 f4       	brne	.+36     	; 0x1806 <ks0108Puts+0x38>
			ks0108GotoXY(x, ks0108Coord.y+ks0108FontRead(ks0108Font+FONT_HEIGHT));
    17e2:	10 91 a8 06 	lds	r17, 0x06A8
    17e6:	80 91 ac 06 	lds	r24, 0x06AC
    17ea:	90 91 ad 06 	lds	r25, 0x06AD
    17ee:	e0 91 aa 06 	lds	r30, 0x06AA
    17f2:	f0 91 ab 06 	lds	r31, 0x06AB
    17f6:	03 96       	adiw	r24, 0x03	; 3
    17f8:	09 95       	icall
    17fa:	18 0f       	add	r17, r24
    17fc:	80 2f       	mov	r24, r16
    17fe:	61 2f       	mov	r22, r17
    1800:	0e 94 cb 09 	call	0x1396	; 0x1396 <ks0108GotoXY>
    1804:	02 c0       	rjmp	.+4      	; 0x180a <ks0108Puts+0x3c>
		} else {
			ks0108PutChar(*str);
    1806:	0e 94 ce 0a 	call	0x159c	; 0x159c <ks0108PutChar>
		}
		str++;
    180a:	21 96       	adiw	r28, 0x01	; 1
	return 0;
}

void ks0108Puts(char* str) {
	int x = ks0108Coord.x;
	while(*str != 0) {
    180c:	88 81       	ld	r24, Y
    180e:	88 23       	and	r24, r24
    1810:	31 f7       	brne	.-52     	; 0x17de <ks0108Puts+0x10>
		} else {
			ks0108PutChar(*str);
		}
		str++;
	}
}
    1812:	df 91       	pop	r29
    1814:	cf 91       	pop	r28
    1816:	1f 91       	pop	r17
    1818:	0f 91       	pop	r16
    181a:	08 95       	ret

0000181c <ks0108SetDot>:
		ks0108InvertRect(0,0,127,63);
		ks0108Inverted = invert;
	}
}

void ks0108SetDot(uint8_t x, uint8_t y, uint8_t color) {
    181c:	0f 93       	push	r16
    181e:	1f 93       	push	r17
    1820:	16 2f       	mov	r17, r22
    1822:	04 2f       	mov	r16, r20
	uint8_t data;
	
	ks0108GotoXY(x, y-y%8);					// read data from display memory
    1824:	68 7f       	andi	r22, 0xF8	; 248
    1826:	0e 94 cb 09 	call	0x1396	; 0x1396 <ks0108GotoXY>
		data = ~data;
	return data;
}

inline uint8_t ks0108ReadData(void) {
	ks0108DoReadData(1);							// dummy read
    182a:	81 e0       	ldi	r24, 0x01	; 1
    182c:	0e 94 f0 09 	call	0x13e0	; 0x13e0 <ks0108DoReadData>
	return ks0108DoReadData(0);						// "real" read
    1830:	80 e0       	ldi	r24, 0x00	; 0
    1832:	0e 94 f0 09 	call	0x13e0	; 0x13e0 <ks0108DoReadData>
    1836:	48 2f       	mov	r20, r24
    1838:	21 2f       	mov	r18, r17
    183a:	30 e0       	ldi	r19, 0x00	; 0
	uint8_t data;
	
	ks0108GotoXY(x, y-y%8);					// read data from display memory
	data = ks0108ReadData();
	
	if(color == BLACK) {
    183c:	0f 3f       	cpi	r16, 0xFF	; 255
    183e:	59 f4       	brne	.+22     	; 0x1856 <ks0108SetDot+0x3a>
		data |= 0x01 << (y%8);				// set dot
    1840:	27 70       	andi	r18, 0x07	; 7
    1842:	30 70       	andi	r19, 0x00	; 0
    1844:	81 e0       	ldi	r24, 0x01	; 1
    1846:	90 e0       	ldi	r25, 0x00	; 0
    1848:	02 c0       	rjmp	.+4      	; 0x184e <ks0108SetDot+0x32>
    184a:	88 0f       	add	r24, r24
    184c:	99 1f       	adc	r25, r25
    184e:	2a 95       	dec	r18
    1850:	e2 f7       	brpl	.-8      	; 0x184a <ks0108SetDot+0x2e>
    1852:	84 2b       	or	r24, r20
    1854:	0b c0       	rjmp	.+22     	; 0x186c <ks0108SetDot+0x50>
	} else {
		data &= ~(0x01 << (y%8));			// clear dot
    1856:	27 70       	andi	r18, 0x07	; 7
    1858:	30 70       	andi	r19, 0x00	; 0
    185a:	81 e0       	ldi	r24, 0x01	; 1
    185c:	90 e0       	ldi	r25, 0x00	; 0
    185e:	02 c0       	rjmp	.+4      	; 0x1864 <ks0108SetDot+0x48>
    1860:	88 0f       	add	r24, r24
    1862:	99 1f       	adc	r25, r25
    1864:	2a 95       	dec	r18
    1866:	e2 f7       	brpl	.-8      	; 0x1860 <ks0108SetDot+0x44>
    1868:	80 95       	com	r24
    186a:	84 23       	and	r24, r20
	}
	
	ks0108WriteData(data);					// write data back to display
    186c:	0e 94 2b 0a 	call	0x1456	; 0x1456 <ks0108WriteData>
}
    1870:	1f 91       	pop	r17
    1872:	0f 91       	pop	r16
    1874:	08 95       	ret

00001876 <ks0108InvertRect>:
			ks0108WriteData(data);
		}
	}
}

void ks0108InvertRect(uint8_t x, uint8_t y, uint8_t width, uint8_t height) {
    1876:	af 92       	push	r10
    1878:	bf 92       	push	r11
    187a:	cf 92       	push	r12
    187c:	df 92       	push	r13
    187e:	ef 92       	push	r14
    1880:	ff 92       	push	r15
    1882:	0f 93       	push	r16
    1884:	1f 93       	push	r17
    1886:	cf 93       	push	r28
    1888:	df 93       	push	r29
    188a:	b8 2e       	mov	r11, r24
    188c:	a4 2e       	mov	r10, r20
    188e:	e2 2e       	mov	r14, r18
	uint8_t mask, pageOffset, h, i, data, tmpData;
	height++;
    1890:	e3 94       	inc	r14
	
	pageOffset = y%8;
    1892:	46 2f       	mov	r20, r22
    1894:	47 70       	andi	r20, 0x07	; 7
	y -= pageOffset;
    1896:	f6 2e       	mov	r15, r22
    1898:	f4 1a       	sub	r15, r20
	mask = 0xFF;
	if(height < 8-pageOffset) {
    189a:	ce 2d       	mov	r28, r14
    189c:	d0 e0       	ldi	r29, 0x00	; 0
    189e:	64 2f       	mov	r22, r20
    18a0:	70 e0       	ldi	r23, 0x00	; 0
    18a2:	28 e0       	ldi	r18, 0x08	; 8
    18a4:	30 e0       	ldi	r19, 0x00	; 0
    18a6:	c9 01       	movw	r24, r18
    18a8:	86 1b       	sub	r24, r22
    18aa:	97 0b       	sbc	r25, r23
    18ac:	c8 17       	cp	r28, r24
    18ae:	d9 07       	cpc	r29, r25
    18b0:	5c f4       	brge	.+22     	; 0x18c8 <ks0108InvertRect+0x52>
		mask >>= (8-height);
    18b2:	2c 1b       	sub	r18, r28
    18b4:	3d 0b       	sbc	r19, r29
    18b6:	8f ef       	ldi	r24, 0xFF	; 255
    18b8:	90 e0       	ldi	r25, 0x00	; 0
    18ba:	02 c0       	rjmp	.+4      	; 0x18c0 <ks0108InvertRect+0x4a>
    18bc:	95 95       	asr	r25
    18be:	87 95       	ror	r24
    18c0:	2a 95       	dec	r18
    18c2:	e2 f7       	brpl	.-8      	; 0x18bc <ks0108InvertRect+0x46>
    18c4:	0e 2d       	mov	r16, r14
    18c6:	03 c0       	rjmp	.+6      	; 0x18ce <ks0108InvertRect+0x58>
		h = height;
	} else {
		h = 8-pageOffset;
    18c8:	08 e0       	ldi	r16, 0x08	; 8
    18ca:	04 1b       	sub	r16, r20
    18cc:	8f ef       	ldi	r24, 0xFF	; 255
	}
	mask <<= pageOffset;
    18ce:	90 e0       	ldi	r25, 0x00	; 0
    18d0:	02 c0       	rjmp	.+4      	; 0x18d6 <ks0108InvertRect+0x60>
    18d2:	88 0f       	add	r24, r24
    18d4:	99 1f       	adc	r25, r25
    18d6:	6a 95       	dec	r22
    18d8:	e2 f7       	brpl	.-8      	; 0x18d2 <ks0108InvertRect+0x5c>
    18da:	d8 2e       	mov	r13, r24
	
	ks0108GotoXY(x, y);
    18dc:	8b 2d       	mov	r24, r11
    18de:	6f 2d       	mov	r22, r15
    18e0:	0e 94 cb 09 	call	0x1396	; 0x1396 <ks0108GotoXY>
    18e4:	10 e0       	ldi	r17, 0x00	; 0
	for(i=0; i<=width; i++) {
		data = ks0108ReadData();
		tmpData = ~data;
		data = (tmpData & mask) | (data & ~mask);
    18e6:	cd 2c       	mov	r12, r13
    18e8:	c0 94       	com	r12
		data = ~data;
	return data;
}

inline uint8_t ks0108ReadData(void) {
	ks0108DoReadData(1);							// dummy read
    18ea:	81 e0       	ldi	r24, 0x01	; 1
    18ec:	0e 94 f0 09 	call	0x13e0	; 0x13e0 <ks0108DoReadData>
	return ks0108DoReadData(0);						// "real" read
    18f0:	80 e0       	ldi	r24, 0x00	; 0
    18f2:	0e 94 f0 09 	call	0x13e0	; 0x13e0 <ks0108DoReadData>
    18f6:	98 2f       	mov	r25, r24
	
	ks0108GotoXY(x, y);
	for(i=0; i<=width; i++) {
		data = ks0108ReadData();
		tmpData = ~data;
		data = (tmpData & mask) | (data & ~mask);
    18f8:	8c 2d       	mov	r24, r12
    18fa:	89 23       	and	r24, r25
    18fc:	90 95       	com	r25
    18fe:	9d 21       	and	r25, r13
		ks0108WriteData(data);
    1900:	89 2b       	or	r24, r25
    1902:	0e 94 2b 0a 	call	0x1456	; 0x1456 <ks0108WriteData>
		h = 8-pageOffset;
	}
	mask <<= pageOffset;
	
	ks0108GotoXY(x, y);
	for(i=0; i<=width; i++) {
    1906:	1f 5f       	subi	r17, 0xFF	; 255
    1908:	a1 16       	cp	r10, r17
    190a:	78 f7       	brcc	.-34     	; 0x18ea <ks0108InvertRect+0x74>
    190c:	14 c0       	rjmp	.+40     	; 0x1936 <ks0108InvertRect+0xc0>
		ks0108WriteData(data);
	}
	
	while(h+8 <= height) {
		h += 8;
		y += 8;
    190e:	88 e0       	ldi	r24, 0x08	; 8
    1910:	f8 0e       	add	r15, r24
		ks0108GotoXY(x, y);
    1912:	8b 2d       	mov	r24, r11
    1914:	6f 2d       	mov	r22, r15
    1916:	0e 94 cb 09 	call	0x1396	; 0x1396 <ks0108GotoXY>
    191a:	10 e0       	ldi	r17, 0x00	; 0
		data = ~data;
	return data;
}

inline uint8_t ks0108ReadData(void) {
	ks0108DoReadData(1);							// dummy read
    191c:	81 e0       	ldi	r24, 0x01	; 1
    191e:	0e 94 f0 09 	call	0x13e0	; 0x13e0 <ks0108DoReadData>
	return ks0108DoReadData(0);						// "real" read
    1922:	80 e0       	ldi	r24, 0x00	; 0
    1924:	0e 94 f0 09 	call	0x13e0	; 0x13e0 <ks0108DoReadData>
		y += 8;
		ks0108GotoXY(x, y);
		
		for(i=0; i<=width; i++) {
			data = ks0108ReadData();
			ks0108WriteData(~data);
    1928:	80 95       	com	r24
    192a:	0e 94 2b 0a 	call	0x1456	; 0x1456 <ks0108WriteData>
	while(h+8 <= height) {
		h += 8;
		y += 8;
		ks0108GotoXY(x, y);
		
		for(i=0; i<=width; i++) {
    192e:	1f 5f       	subi	r17, 0xFF	; 255
    1930:	a1 16       	cp	r10, r17
    1932:	a0 f7       	brcc	.-24     	; 0x191c <ks0108InvertRect+0xa6>
		data = (tmpData & mask) | (data & ~mask);
		ks0108WriteData(data);
	}
	
	while(h+8 <= height) {
		h += 8;
    1934:	08 5f       	subi	r16, 0xF8	; 248
		tmpData = ~data;
		data = (tmpData & mask) | (data & ~mask);
		ks0108WriteData(data);
	}
	
	while(h+8 <= height) {
    1936:	20 2f       	mov	r18, r16
    1938:	30 e0       	ldi	r19, 0x00	; 0
    193a:	c9 01       	movw	r24, r18
    193c:	07 96       	adiw	r24, 0x07	; 7
    193e:	8c 17       	cp	r24, r28
    1940:	9d 07       	cpc	r25, r29
    1942:	2c f3       	brlt	.-54     	; 0x190e <ks0108InvertRect+0x98>
			data = ks0108ReadData();
			ks0108WriteData(~data);
		}
	}
	
	if(h < height) {
    1944:	0e 15       	cp	r16, r14
    1946:	28 f5       	brcc	.+74     	; 0x1992 <ks0108InvertRect+0x11c>
		mask = ~(0xFF << (height-h));
    1948:	c2 1b       	sub	r28, r18
    194a:	d3 0b       	sbc	r29, r19
    194c:	8f ef       	ldi	r24, 0xFF	; 255
    194e:	90 e0       	ldi	r25, 0x00	; 0
    1950:	02 c0       	rjmp	.+4      	; 0x1956 <ks0108InvertRect+0xe0>
    1952:	88 0f       	add	r24, r24
    1954:	99 1f       	adc	r25, r25
    1956:	ca 95       	dec	r28
    1958:	e2 f7       	brpl	.-8      	; 0x1952 <ks0108InvertRect+0xdc>
    195a:	08 2f       	mov	r16, r24
    195c:	00 95       	com	r16
		ks0108GotoXY(x, y+8);
    195e:	88 e0       	ldi	r24, 0x08	; 8
    1960:	f8 0e       	add	r15, r24
    1962:	8b 2d       	mov	r24, r11
    1964:	6f 2d       	mov	r22, r15
    1966:	0e 94 cb 09 	call	0x1396	; 0x1396 <ks0108GotoXY>
    196a:	10 e0       	ldi	r17, 0x00	; 0
		
		for(i=0; i<=width; i++) {
			data = ks0108ReadData();
			tmpData = ~data;
			data = (tmpData & mask) | (data & ~mask);
    196c:	f0 2e       	mov	r15, r16
    196e:	f0 94       	com	r15
		data = ~data;
	return data;
}

inline uint8_t ks0108ReadData(void) {
	ks0108DoReadData(1);							// dummy read
    1970:	81 e0       	ldi	r24, 0x01	; 1
    1972:	0e 94 f0 09 	call	0x13e0	; 0x13e0 <ks0108DoReadData>
	return ks0108DoReadData(0);						// "real" read
    1976:	80 e0       	ldi	r24, 0x00	; 0
    1978:	0e 94 f0 09 	call	0x13e0	; 0x13e0 <ks0108DoReadData>
    197c:	98 2f       	mov	r25, r24
		ks0108GotoXY(x, y+8);
		
		for(i=0; i<=width; i++) {
			data = ks0108ReadData();
			tmpData = ~data;
			data = (tmpData & mask) | (data & ~mask);
    197e:	8f 2d       	mov	r24, r15
    1980:	89 23       	and	r24, r25
    1982:	90 95       	com	r25
    1984:	90 23       	and	r25, r16
			ks0108WriteData(data);
    1986:	89 2b       	or	r24, r25
    1988:	0e 94 2b 0a 	call	0x1456	; 0x1456 <ks0108WriteData>
	
	if(h < height) {
		mask = ~(0xFF << (height-h));
		ks0108GotoXY(x, y+8);
		
		for(i=0; i<=width; i++) {
    198c:	1f 5f       	subi	r17, 0xFF	; 255
    198e:	a1 16       	cp	r10, r17
    1990:	78 f7       	brcc	.-34     	; 0x1970 <ks0108InvertRect+0xfa>
			tmpData = ~data;
			data = (tmpData & mask) | (data & ~mask);
			ks0108WriteData(data);
		}
	}
}
    1992:	df 91       	pop	r29
    1994:	cf 91       	pop	r28
    1996:	1f 91       	pop	r17
    1998:	0f 91       	pop	r16
    199a:	ff 90       	pop	r15
    199c:	ef 90       	pop	r14
    199e:	df 90       	pop	r13
    19a0:	cf 90       	pop	r12
    19a2:	bf 90       	pop	r11
    19a4:	af 90       	pop	r10
    19a6:	08 95       	ret

000019a8 <ks0108SetInverted>:

void ks0108SetInverted(uint8_t invert) {
    19a8:	1f 93       	push	r17
    19aa:	18 2f       	mov	r17, r24
	if(ks0108Inverted != invert) {
    19ac:	80 91 1c 05 	lds	r24, 0x051C
    19b0:	81 17       	cp	r24, r17
    19b2:	41 f0       	breq	.+16     	; 0x19c4 <ks0108SetInverted+0x1c>
		ks0108InvertRect(0,0,127,63);
    19b4:	80 e0       	ldi	r24, 0x00	; 0
    19b6:	60 e0       	ldi	r22, 0x00	; 0
    19b8:	4f e7       	ldi	r20, 0x7F	; 127
    19ba:	2f e3       	ldi	r18, 0x3F	; 63
    19bc:	0e 94 3b 0c 	call	0x1876	; 0x1876 <ks0108InvertRect>
		ks0108Inverted = invert;
    19c0:	10 93 1c 05 	sts	0x051C, r17
	}
}
    19c4:	1f 91       	pop	r17
    19c6:	08 95       	ret

000019c8 <ks0108FillRect>:
}

/*
 * Hardware-Functions 
 */
void ks0108FillRect(uint8_t x, uint8_t y, uint8_t width, uint8_t height, uint8_t color) {
    19c8:	9f 92       	push	r9
    19ca:	af 92       	push	r10
    19cc:	bf 92       	push	r11
    19ce:	cf 92       	push	r12
    19d0:	df 92       	push	r13
    19d2:	ef 92       	push	r14
    19d4:	ff 92       	push	r15
    19d6:	0f 93       	push	r16
    19d8:	1f 93       	push	r17
    19da:	cf 93       	push	r28
    19dc:	df 93       	push	r29
    19de:	b8 2e       	mov	r11, r24
    19e0:	94 2e       	mov	r9, r20
    19e2:	e2 2e       	mov	r14, r18
    19e4:	a0 2e       	mov	r10, r16
	uint8_t mask, pageOffset, h, i, data;
	height++;
    19e6:	e3 94       	inc	r14
	
	pageOffset = y%8;
    19e8:	46 2f       	mov	r20, r22
    19ea:	47 70       	andi	r20, 0x07	; 7
	y -= pageOffset;
    19ec:	f6 2e       	mov	r15, r22
    19ee:	f4 1a       	sub	r15, r20
	mask = 0xFF;
	if(height < 8-pageOffset) {
    19f0:	ce 2d       	mov	r28, r14
    19f2:	d0 e0       	ldi	r29, 0x00	; 0
    19f4:	64 2f       	mov	r22, r20
    19f6:	70 e0       	ldi	r23, 0x00	; 0
    19f8:	28 e0       	ldi	r18, 0x08	; 8
    19fa:	30 e0       	ldi	r19, 0x00	; 0
    19fc:	c9 01       	movw	r24, r18
    19fe:	86 1b       	sub	r24, r22
    1a00:	97 0b       	sbc	r25, r23
    1a02:	c8 17       	cp	r28, r24
    1a04:	d9 07       	cpc	r29, r25
    1a06:	5c f4       	brge	.+22     	; 0x1a1e <ks0108FillRect+0x56>
		mask >>= (8-height);
    1a08:	2c 1b       	sub	r18, r28
    1a0a:	3d 0b       	sbc	r19, r29
    1a0c:	8f ef       	ldi	r24, 0xFF	; 255
    1a0e:	90 e0       	ldi	r25, 0x00	; 0
    1a10:	02 c0       	rjmp	.+4      	; 0x1a16 <ks0108FillRect+0x4e>
    1a12:	95 95       	asr	r25
    1a14:	87 95       	ror	r24
    1a16:	2a 95       	dec	r18
    1a18:	e2 f7       	brpl	.-8      	; 0x1a12 <ks0108FillRect+0x4a>
    1a1a:	0e 2d       	mov	r16, r14
    1a1c:	03 c0       	rjmp	.+6      	; 0x1a24 <ks0108FillRect+0x5c>
		h = height;
	} else {
		h = 8-pageOffset;
    1a1e:	08 e0       	ldi	r16, 0x08	; 8
    1a20:	04 1b       	sub	r16, r20
    1a22:	8f ef       	ldi	r24, 0xFF	; 255
	}
	mask <<= pageOffset;
    1a24:	90 e0       	ldi	r25, 0x00	; 0
    1a26:	02 c0       	rjmp	.+4      	; 0x1a2c <ks0108FillRect+0x64>
    1a28:	88 0f       	add	r24, r24
    1a2a:	99 1f       	adc	r25, r25
    1a2c:	6a 95       	dec	r22
    1a2e:	e2 f7       	brpl	.-8      	; 0x1a28 <ks0108FillRect+0x60>
    1a30:	d8 2e       	mov	r13, r24
	
	ks0108GotoXY(x, y);
    1a32:	8b 2d       	mov	r24, r11
    1a34:	6f 2d       	mov	r22, r15
    1a36:	0e 94 cb 09 	call	0x1396	; 0x1396 <ks0108GotoXY>
    1a3a:	10 e0       	ldi	r17, 0x00	; 0
		data = ks0108ReadData();
		
		if(color == BLACK) {
			data |= mask;
		} else {
			data &= ~mask;
    1a3c:	cd 2c       	mov	r12, r13
    1a3e:	c0 94       	com	r12
		data = ~data;
	return data;
}

inline uint8_t ks0108ReadData(void) {
	ks0108DoReadData(1);							// dummy read
    1a40:	81 e0       	ldi	r24, 0x01	; 1
    1a42:	0e 94 f0 09 	call	0x13e0	; 0x13e0 <ks0108DoReadData>
	return ks0108DoReadData(0);						// "real" read
    1a46:	80 e0       	ldi	r24, 0x00	; 0
    1a48:	0e 94 f0 09 	call	0x13e0	; 0x13e0 <ks0108DoReadData>
	
	ks0108GotoXY(x, y);
	for(i=0; i<=width; i++) {
		data = ks0108ReadData();
		
		if(color == BLACK) {
    1a4c:	9f ef       	ldi	r25, 0xFF	; 255
    1a4e:	a9 16       	cp	r10, r25
    1a50:	11 f4       	brne	.+4      	; 0x1a56 <ks0108FillRect+0x8e>
			data |= mask;
    1a52:	8d 29       	or	r24, r13
    1a54:	01 c0       	rjmp	.+2      	; 0x1a58 <ks0108FillRect+0x90>
		} else {
			data &= ~mask;
    1a56:	8c 21       	and	r24, r12
		}

		ks0108WriteData(data);
    1a58:	0e 94 2b 0a 	call	0x1456	; 0x1456 <ks0108WriteData>
		h = 8-pageOffset;
	}
	mask <<= pageOffset;
	
	ks0108GotoXY(x, y);
	for(i=0; i<=width; i++) {
    1a5c:	1f 5f       	subi	r17, 0xFF	; 255
    1a5e:	91 16       	cp	r9, r17
    1a60:	78 f7       	brcc	.-34     	; 0x1a40 <ks0108FillRect+0x78>
    1a62:	0e c0       	rjmp	.+28     	; 0x1a80 <ks0108FillRect+0xb8>
		ks0108WriteData(data);
	}
	
	while(h+8 <= height) {
		h += 8;
		y += 8;
    1a64:	88 e0       	ldi	r24, 0x08	; 8
    1a66:	f8 0e       	add	r15, r24
		ks0108GotoXY(x, y);
    1a68:	8b 2d       	mov	r24, r11
    1a6a:	6f 2d       	mov	r22, r15
    1a6c:	0e 94 cb 09 	call	0x1396	; 0x1396 <ks0108GotoXY>
    1a70:	10 e0       	ldi	r17, 0x00	; 0
		
		for(i=0; i<=width; i++) {
			ks0108WriteData(color);
    1a72:	8a 2d       	mov	r24, r10
    1a74:	0e 94 2b 0a 	call	0x1456	; 0x1456 <ks0108WriteData>
	while(h+8 <= height) {
		h += 8;
		y += 8;
		ks0108GotoXY(x, y);
		
		for(i=0; i<=width; i++) {
    1a78:	1f 5f       	subi	r17, 0xFF	; 255
    1a7a:	91 16       	cp	r9, r17
    1a7c:	d0 f7       	brcc	.-12     	; 0x1a72 <ks0108FillRect+0xaa>

		ks0108WriteData(data);
	}
	
	while(h+8 <= height) {
		h += 8;
    1a7e:	08 5f       	subi	r16, 0xF8	; 248
		}

		ks0108WriteData(data);
	}
	
	while(h+8 <= height) {
    1a80:	20 2f       	mov	r18, r16
    1a82:	30 e0       	ldi	r19, 0x00	; 0
    1a84:	c9 01       	movw	r24, r18
    1a86:	07 96       	adiw	r24, 0x07	; 7
    1a88:	8c 17       	cp	r24, r28
    1a8a:	9d 07       	cpc	r25, r29
    1a8c:	5c f3       	brlt	.-42     	; 0x1a64 <ks0108FillRect+0x9c>
		for(i=0; i<=width; i++) {
			ks0108WriteData(color);
		}
	}
	
	if(h < height) {
    1a8e:	0e 15       	cp	r16, r14
    1a90:	28 f5       	brcc	.+74     	; 0x1adc <ks0108FillRect+0x114>
		mask = ~(0xFF << (height-h));
    1a92:	c2 1b       	sub	r28, r18
    1a94:	d3 0b       	sbc	r29, r19
    1a96:	8f ef       	ldi	r24, 0xFF	; 255
    1a98:	90 e0       	ldi	r25, 0x00	; 0
    1a9a:	02 c0       	rjmp	.+4      	; 0x1aa0 <ks0108FillRect+0xd8>
    1a9c:	88 0f       	add	r24, r24
    1a9e:	99 1f       	adc	r25, r25
    1aa0:	ca 95       	dec	r28
    1aa2:	e2 f7       	brpl	.-8      	; 0x1a9c <ks0108FillRect+0xd4>
    1aa4:	e8 2e       	mov	r14, r24
    1aa6:	e0 94       	com	r14
		ks0108GotoXY(x, y+8);
    1aa8:	98 e0       	ldi	r25, 0x08	; 8
    1aaa:	f9 0e       	add	r15, r25
    1aac:	8b 2d       	mov	r24, r11
    1aae:	6f 2d       	mov	r22, r15
    1ab0:	0e 94 cb 09 	call	0x1396	; 0x1396 <ks0108GotoXY>
    1ab4:	10 e0       	ldi	r17, 0x00	; 0
			data = ks0108ReadData();
		
			if(color == BLACK) {
				data |= mask;
			} else {
				data &= ~mask;
    1ab6:	fe 2c       	mov	r15, r14
    1ab8:	f0 94       	com	r15
		data = ~data;
	return data;
}

inline uint8_t ks0108ReadData(void) {
	ks0108DoReadData(1);							// dummy read
    1aba:	81 e0       	ldi	r24, 0x01	; 1
    1abc:	0e 94 f0 09 	call	0x13e0	; 0x13e0 <ks0108DoReadData>
	return ks0108DoReadData(0);						// "real" read
    1ac0:	80 e0       	ldi	r24, 0x00	; 0
    1ac2:	0e 94 f0 09 	call	0x13e0	; 0x13e0 <ks0108DoReadData>
		ks0108GotoXY(x, y+8);
		
		for(i=0; i<=width; i++) {
			data = ks0108ReadData();
		
			if(color == BLACK) {
    1ac6:	9f ef       	ldi	r25, 0xFF	; 255
    1ac8:	a9 16       	cp	r10, r25
    1aca:	11 f4       	brne	.+4      	; 0x1ad0 <ks0108FillRect+0x108>
				data |= mask;
    1acc:	8e 29       	or	r24, r14
    1ace:	01 c0       	rjmp	.+2      	; 0x1ad2 <ks0108FillRect+0x10a>
			} else {
				data &= ~mask;
    1ad0:	8f 21       	and	r24, r15
			}
	
			ks0108WriteData(data);
    1ad2:	0e 94 2b 0a 	call	0x1456	; 0x1456 <ks0108WriteData>
	
	if(h < height) {
		mask = ~(0xFF << (height-h));
		ks0108GotoXY(x, y+8);
		
		for(i=0; i<=width; i++) {
    1ad6:	1f 5f       	subi	r17, 0xFF	; 255
    1ad8:	91 16       	cp	r9, r17
    1ada:	78 f7       	brcc	.-34     	; 0x1aba <ks0108FillRect+0xf2>
			}
	
			ks0108WriteData(data);
		}
	}
}
    1adc:	df 91       	pop	r29
    1ade:	cf 91       	pop	r28
    1ae0:	1f 91       	pop	r17
    1ae2:	0f 91       	pop	r16
    1ae4:	ff 90       	pop	r15
    1ae6:	ef 90       	pop	r14
    1ae8:	df 90       	pop	r13
    1aea:	cf 90       	pop	r12
    1aec:	bf 90       	pop	r11
    1aee:	af 90       	pop	r10
    1af0:	9f 90       	pop	r9
    1af2:	08 95       	ret

00001af4 <ks0108Init>:
	cmd = LCD_SET_PAGE | ks0108Coord.page;			// set y address on both chips
	ks0108WriteCommand(cmd, CHIP1);
	ks0108WriteCommand(cmd, CHIP2);
}

void ks0108Init(uint8_t invert) {
    1af4:	0f 93       	push	r16
	ks0108Coord.x = 0;
    1af6:	10 92 a7 06 	sts	0x06A7, r1
	ks0108Coord.y = 0;
    1afa:	10 92 a8 06 	sts	0x06A8, r1
	ks0108Coord.page = 0;
    1afe:	10 92 a9 06 	sts	0x06A9, r1
	
	ks0108Inverted = invert;
    1b02:	80 93 1c 05 	sts	0x051C, r24
	
	LCD_CMD_DIR = 0xFF;								// command port is output
    1b06:	8f ef       	ldi	r24, 0xFF	; 255
    1b08:	8a bb       	out	0x1a, r24	; 26
	ks0108WriteCommand(LCD_ON, CHIP1);				// power on
    1b0a:	8f e3       	ldi	r24, 0x3F	; 63
    1b0c:	60 e0       	ldi	r22, 0x00	; 0
    1b0e:	0e 94 a5 09 	call	0x134a	; 0x134a <ks0108WriteCommand>
	ks0108WriteCommand(LCD_ON, CHIP2);
    1b12:	8f e3       	ldi	r24, 0x3F	; 63
    1b14:	61 e0       	ldi	r22, 0x01	; 1
    1b16:	0e 94 a5 09 	call	0x134a	; 0x134a <ks0108WriteCommand>
	
	ks0108WriteCommand(LCD_DISP_START, CHIP1);		// display start line = 0
    1b1a:	80 ec       	ldi	r24, 0xC0	; 192
    1b1c:	60 e0       	ldi	r22, 0x00	; 0
    1b1e:	0e 94 a5 09 	call	0x134a	; 0x134a <ks0108WriteCommand>
	ks0108WriteCommand(LCD_DISP_START, CHIP2);
    1b22:	80 ec       	ldi	r24, 0xC0	; 192
    1b24:	61 e0       	ldi	r22, 0x01	; 1
    1b26:	0e 94 a5 09 	call	0x134a	; 0x134a <ks0108WriteCommand>
	ks0108ClearScreen();							// display clear
    1b2a:	80 e0       	ldi	r24, 0x00	; 0
    1b2c:	60 e0       	ldi	r22, 0x00	; 0
    1b2e:	4f e7       	ldi	r20, 0x7F	; 127
    1b30:	2f e3       	ldi	r18, 0x3F	; 63
    1b32:	00 e0       	ldi	r16, 0x00	; 0
    1b34:	0e 94 e4 0c 	call	0x19c8	; 0x19c8 <ks0108FillRect>
	ks0108GotoXY(0,0);
    1b38:	80 e0       	ldi	r24, 0x00	; 0
    1b3a:	60 e0       	ldi	r22, 0x00	; 0
    1b3c:	0e 94 cb 09 	call	0x1396	; 0x1396 <ks0108GotoXY>
}
    1b40:	0f 91       	pop	r16
    1b42:	08 95       	ret

00001b44 <ks0108DrawRoundRect>:
	ks0108DrawHoriLine(x, y+height, width, color);		// bottom
	ks0108DrawVertLine(x, y, height, color);			// left
	ks0108DrawVertLine(x+width, y, height, color);		// right
}

void ks0108DrawRoundRect(uint8_t x, uint8_t y, uint8_t width, uint8_t height, uint8_t radius, uint8_t color) {
    1b44:	2f 92       	push	r2
    1b46:	3f 92       	push	r3
    1b48:	4f 92       	push	r4
    1b4a:	5f 92       	push	r5
    1b4c:	6f 92       	push	r6
    1b4e:	7f 92       	push	r7
    1b50:	8f 92       	push	r8
    1b52:	9f 92       	push	r9
    1b54:	af 92       	push	r10
    1b56:	bf 92       	push	r11
    1b58:	cf 92       	push	r12
    1b5a:	df 92       	push	r13
    1b5c:	ef 92       	push	r14
    1b5e:	ff 92       	push	r15
    1b60:	0f 93       	push	r16
    1b62:	1f 93       	push	r17
    1b64:	df 93       	push	r29
    1b66:	cf 93       	push	r28
    1b68:	cd b7       	in	r28, 0x3d	; 61
    1b6a:	de b7       	in	r29, 0x3e	; 62
    1b6c:	2c 97       	sbiw	r28, 0x0c	; 12
    1b6e:	0f b6       	in	r0, 0x3f	; 63
    1b70:	f8 94       	cli
    1b72:	de bf       	out	0x3e, r29	; 62
    1b74:	0f be       	out	0x3f, r0	; 63
    1b76:	cd bf       	out	0x3d, r28	; 61
    1b78:	8f 83       	std	Y+7, r24	; 0x07
    1b7a:	68 87       	std	Y+8, r22	; 0x08
    1b7c:	49 87       	std	Y+9, r20	; 0x09
    1b7e:	2a 87       	std	Y+10, r18	; 0x0a
  	int16_t tSwitch, x1 = 0, y1 = radius;
    1b80:	c0 2e       	mov	r12, r16
    1b82:	dd 24       	eor	r13, r13
  	tSwitch = 3 - 2 * radius;
    1b84:	c6 01       	movw	r24, r12
    1b86:	88 0f       	add	r24, r24
    1b88:	99 1f       	adc	r25, r25
    1b8a:	22 27       	eor	r18, r18
    1b8c:	33 27       	eor	r19, r19
    1b8e:	28 1b       	sub	r18, r24
    1b90:	39 0b       	sbc	r19, r25
    1b92:	3e 83       	std	Y+6, r19	; 0x06
    1b94:	2d 83       	std	Y+5, r18	; 0x05
    1b96:	2d 5f       	subi	r18, 0xFD	; 253
    1b98:	3f 4f       	sbci	r19, 0xFF	; 255
    1b9a:	3c 87       	std	Y+12, r19	; 0x0c
    1b9c:	2b 87       	std	Y+11, r18	; 0x0b
    1b9e:	3f 80       	ldd	r3, Y+7	; 0x07
    1ba0:	30 0e       	add	r3, r16
    1ba2:	26 2e       	mov	r2, r22
    1ba4:	20 0e       	add	r2, r16
	ks0108DrawHoriLine(x, y+height, width, color);		// bottom
	ks0108DrawVertLine(x, y, height, color);			// left
	ks0108DrawVertLine(x+width, y, height, color);		// right
}

void ks0108DrawRoundRect(uint8_t x, uint8_t y, uint8_t width, uint8_t height, uint8_t radius, uint8_t color) {
    1ba6:	34 2f       	mov	r19, r20
    1ba8:	8f 81       	ldd	r24, Y+7	; 0x07
    1baa:	38 0f       	add	r19, r24
    1bac:	3b 83       	std	Y+3, r19	; 0x03
    1bae:	30 1b       	sub	r19, r16
    1bb0:	3c 83       	std	Y+4, r19	; 0x04
    1bb2:	9a 85       	ldd	r25, Y+10	; 0x0a
    1bb4:	96 0f       	add	r25, r22
    1bb6:	99 83       	std	Y+1, r25	; 0x01
    1bb8:	90 1b       	sub	r25, r16
    1bba:	9a 83       	std	Y+2, r25	; 0x02
    1bbc:	43 2c       	mov	r4, r3
    1bbe:	52 2c       	mov	r5, r2
    1bc0:	63 2e       	mov	r6, r19
    1bc2:	79 2e       	mov	r7, r25
    1bc4:	aa 24       	eor	r10, r10
    1bc6:	bb 24       	eor	r11, r11
    1bc8:	88 24       	eor	r8, r8
    1bca:	99 24       	eor	r9, r9
  	int16_t tSwitch, x1 = 0, y1 = radius;
  	tSwitch = 3 - 2 * radius;
	
	while (x1 <= y1) {
	    ks0108SetDot(x+radius - x1, y+radius - y1, color);
    1bcc:	1c 2d       	mov	r17, r12
    1bce:	02 2d       	mov	r16, r2
    1bd0:	0c 19       	sub	r16, r12
    1bd2:	84 2d       	mov	r24, r4
    1bd4:	60 2f       	mov	r22, r16
    1bd6:	4e 2d       	mov	r20, r14
    1bd8:	0e 94 0e 0c 	call	0x181c	; 0x181c <ks0108SetDot>
	    ks0108SetDot(x+radius - y1, y+radius - x1, color);
    1bdc:	f3 2c       	mov	r15, r3
    1bde:	fc 18       	sub	r15, r12
    1be0:	8f 2d       	mov	r24, r15
    1be2:	65 2d       	mov	r22, r5
    1be4:	4e 2d       	mov	r20, r14
    1be6:	0e 94 0e 0c 	call	0x181c	; 0x181c <ks0108SetDot>

	    ks0108SetDot(x+width-radius + x1, y+radius - y1, color);
    1bea:	86 2d       	mov	r24, r6
    1bec:	60 2f       	mov	r22, r16
    1bee:	4e 2d       	mov	r20, r14
    1bf0:	0e 94 0e 0c 	call	0x181c	; 0x181c <ks0108SetDot>
	    ks0108SetDot(x+width-radius + y1, y+radius - x1, color);
    1bf4:	0c 81       	ldd	r16, Y+4	; 0x04
    1bf6:	0c 0d       	add	r16, r12
    1bf8:	80 2f       	mov	r24, r16
    1bfa:	65 2d       	mov	r22, r5
    1bfc:	4e 2d       	mov	r20, r14
    1bfe:	0e 94 0e 0c 	call	0x181c	; 0x181c <ks0108SetDot>
	    
	    ks0108SetDot(x+width-radius + x1, y+height-radius + y1, color);
    1c02:	fa 81       	ldd	r31, Y+2	; 0x02
    1c04:	1f 0f       	add	r17, r31
    1c06:	86 2d       	mov	r24, r6
    1c08:	61 2f       	mov	r22, r17
    1c0a:	4e 2d       	mov	r20, r14
    1c0c:	0e 94 0e 0c 	call	0x181c	; 0x181c <ks0108SetDot>
	    ks0108SetDot(x+width-radius + y1, y+height-radius + x1, color);
    1c10:	80 2f       	mov	r24, r16
    1c12:	67 2d       	mov	r22, r7
    1c14:	4e 2d       	mov	r20, r14
    1c16:	0e 94 0e 0c 	call	0x181c	; 0x181c <ks0108SetDot>

	    ks0108SetDot(x+radius - x1, y+height-radius + y1, color);
    1c1a:	84 2d       	mov	r24, r4
    1c1c:	61 2f       	mov	r22, r17
    1c1e:	4e 2d       	mov	r20, r14
    1c20:	0e 94 0e 0c 	call	0x181c	; 0x181c <ks0108SetDot>
	    ks0108SetDot(x+radius - y1, y+height-radius + x1, color);
    1c24:	8f 2d       	mov	r24, r15
    1c26:	67 2d       	mov	r22, r7
    1c28:	4e 2d       	mov	r20, r14
    1c2a:	0e 94 0e 0c 	call	0x181c	; 0x181c <ks0108SetDot>

	    if (tSwitch < 0) {
    1c2e:	2b 85       	ldd	r18, Y+11	; 0x0b
    1c30:	3c 85       	ldd	r19, Y+12	; 0x0c
    1c32:	37 ff       	sbrs	r19, 7
    1c34:	07 c0       	rjmp	.+14     	; 0x1c44 <ks0108DrawRoundRect+0x100>
	    	tSwitch += (4 * x1 + 6);
    1c36:	2a 5f       	subi	r18, 0xFA	; 250
    1c38:	3f 4f       	sbci	r19, 0xFF	; 255
    1c3a:	28 0d       	add	r18, r8
    1c3c:	39 1d       	adc	r19, r9
    1c3e:	3c 87       	std	Y+12, r19	; 0x0c
    1c40:	2b 87       	std	Y+11, r18	; 0x0b
    1c42:	15 c0       	rjmp	.+42     	; 0x1c6e <ks0108DrawRoundRect+0x12a>
	    } else {
	    	tSwitch += (4 * (x1 - y1) + 10);
    1c44:	8b 85       	ldd	r24, Y+11	; 0x0b
    1c46:	9c 85       	ldd	r25, Y+12	; 0x0c
    1c48:	0a 96       	adiw	r24, 0x0a	; 10
    1c4a:	9c 87       	std	Y+12, r25	; 0x0c
    1c4c:	8b 87       	std	Y+11, r24	; 0x0b
    1c4e:	c5 01       	movw	r24, r10
    1c50:	8c 19       	sub	r24, r12
    1c52:	9d 09       	sbc	r25, r13
    1c54:	88 0f       	add	r24, r24
    1c56:	99 1f       	adc	r25, r25
    1c58:	88 0f       	add	r24, r24
    1c5a:	99 1f       	adc	r25, r25
    1c5c:	eb 85       	ldd	r30, Y+11	; 0x0b
    1c5e:	fc 85       	ldd	r31, Y+12	; 0x0c
    1c60:	e8 0f       	add	r30, r24
    1c62:	f9 1f       	adc	r31, r25
    1c64:	fc 87       	std	Y+12, r31	; 0x0c
    1c66:	eb 87       	std	Y+11, r30	; 0x0b
	    	y1--;
    1c68:	08 94       	sec
    1c6a:	c1 08       	sbc	r12, r1
    1c6c:	d1 08       	sbc	r13, r1
	    }
	    x1++;
    1c6e:	08 94       	sec
    1c70:	a1 1c       	adc	r10, r1
    1c72:	b1 1c       	adc	r11, r1
    1c74:	4a 94       	dec	r4
    1c76:	5a 94       	dec	r5
    1c78:	63 94       	inc	r6
    1c7a:	73 94       	inc	r7
    1c7c:	24 e0       	ldi	r18, 0x04	; 4
    1c7e:	30 e0       	ldi	r19, 0x00	; 0
    1c80:	82 0e       	add	r8, r18
    1c82:	93 1e       	adc	r9, r19

void ks0108DrawRoundRect(uint8_t x, uint8_t y, uint8_t width, uint8_t height, uint8_t radius, uint8_t color) {
  	int16_t tSwitch, x1 = 0, y1 = radius;
  	tSwitch = 3 - 2 * radius;
	
	while (x1 <= y1) {
    1c84:	ca 14       	cp	r12, r10
    1c86:	db 04       	cpc	r13, r11
    1c88:	0c f0       	brlt	.+2      	; 0x1c8c <ks0108DrawRoundRect+0x148>
    1c8a:	a0 cf       	rjmp	.-192    	; 0x1bcc <ks0108DrawRoundRect+0x88>
	    	y1--;
	    }
	    x1++;
	}
	  	
	ks0108DrawHoriLine(x+radius, y, width-(2*radius), color);			// top
    1c8c:	1d 81       	ldd	r17, Y+5	; 0x05
    1c8e:	f9 84       	ldd	r15, Y+9	; 0x09
    1c90:	f1 0e       	add	r15, r17
    1c92:	83 2d       	mov	r24, r3
    1c94:	68 85       	ldd	r22, Y+8	; 0x08
    1c96:	4f 2d       	mov	r20, r15
    1c98:	20 e0       	ldi	r18, 0x00	; 0
    1c9a:	0e 2d       	mov	r16, r14
    1c9c:	0e 94 e4 0c 	call	0x19c8	; 0x19c8 <ks0108FillRect>
	ks0108DrawHoriLine(x+radius, y+height, width-(2*radius), color);	// bottom
    1ca0:	83 2d       	mov	r24, r3
    1ca2:	69 81       	ldd	r22, Y+1	; 0x01
    1ca4:	4f 2d       	mov	r20, r15
    1ca6:	20 e0       	ldi	r18, 0x00	; 0
    1ca8:	0e 94 e4 0c 	call	0x19c8	; 0x19c8 <ks0108FillRect>
	ks0108DrawVertLine(x, y+radius, height-(2*radius), color);			// left
    1cac:	3a 85       	ldd	r19, Y+10	; 0x0a
    1cae:	13 0f       	add	r17, r19
    1cb0:	8f 81       	ldd	r24, Y+7	; 0x07
    1cb2:	62 2d       	mov	r22, r2
    1cb4:	40 e0       	ldi	r20, 0x00	; 0
    1cb6:	21 2f       	mov	r18, r17
    1cb8:	0e 94 e4 0c 	call	0x19c8	; 0x19c8 <ks0108FillRect>
	ks0108DrawVertLine(x+width, y+radius, height-(2*radius), color);	// right
    1cbc:	8b 81       	ldd	r24, Y+3	; 0x03
    1cbe:	62 2d       	mov	r22, r2
    1cc0:	40 e0       	ldi	r20, 0x00	; 0
    1cc2:	21 2f       	mov	r18, r17
    1cc4:	0e 94 e4 0c 	call	0x19c8	; 0x19c8 <ks0108FillRect>
}
    1cc8:	2c 96       	adiw	r28, 0x0c	; 12
    1cca:	0f b6       	in	r0, 0x3f	; 63
    1ccc:	f8 94       	cli
    1cce:	de bf       	out	0x3e, r29	; 62
    1cd0:	0f be       	out	0x3f, r0	; 63
    1cd2:	cd bf       	out	0x3d, r28	; 61
    1cd4:	cf 91       	pop	r28
    1cd6:	df 91       	pop	r29
    1cd8:	1f 91       	pop	r17
    1cda:	0f 91       	pop	r16
    1cdc:	ff 90       	pop	r15
    1cde:	ef 90       	pop	r14
    1ce0:	df 90       	pop	r13
    1ce2:	cf 90       	pop	r12
    1ce4:	bf 90       	pop	r11
    1ce6:	af 90       	pop	r10
    1ce8:	9f 90       	pop	r9
    1cea:	8f 90       	pop	r8
    1cec:	7f 90       	pop	r7
    1cee:	6f 90       	pop	r6
    1cf0:	5f 90       	pop	r5
    1cf2:	4f 90       	pop	r4
    1cf4:	3f 90       	pop	r3
    1cf6:	2f 90       	pop	r2
    1cf8:	08 95       	ret

00001cfa <ks0108DrawRect>:
			}
		}
	}
}

void ks0108DrawRect(uint8_t x, uint8_t y, uint8_t width, uint8_t height, uint8_t color) {
    1cfa:	cf 92       	push	r12
    1cfc:	df 92       	push	r13
    1cfe:	ef 92       	push	r14
    1d00:	ff 92       	push	r15
    1d02:	0f 93       	push	r16
    1d04:	1f 93       	push	r17
    1d06:	18 2f       	mov	r17, r24
    1d08:	f6 2e       	mov	r15, r22
    1d0a:	d4 2e       	mov	r13, r20
    1d0c:	c2 2e       	mov	r12, r18
	ks0108DrawHoriLine(x, y, width, color);				// top
    1d0e:	20 e0       	ldi	r18, 0x00	; 0
    1d10:	0e 94 e4 0c 	call	0x19c8	; 0x19c8 <ks0108FillRect>
	ks0108DrawHoriLine(x, y+height, width, color);		// bottom
    1d14:	6c 2d       	mov	r22, r12
    1d16:	6f 0d       	add	r22, r15
    1d18:	81 2f       	mov	r24, r17
    1d1a:	4d 2d       	mov	r20, r13
    1d1c:	20 e0       	ldi	r18, 0x00	; 0
    1d1e:	0e 94 e4 0c 	call	0x19c8	; 0x19c8 <ks0108FillRect>
	ks0108DrawVertLine(x, y, height, color);			// left
    1d22:	81 2f       	mov	r24, r17
    1d24:	6f 2d       	mov	r22, r15
    1d26:	40 e0       	ldi	r20, 0x00	; 0
    1d28:	2c 2d       	mov	r18, r12
    1d2a:	0e 94 e4 0c 	call	0x19c8	; 0x19c8 <ks0108FillRect>
	ks0108DrawVertLine(x+width, y, height, color);		// right
    1d2e:	8d 2d       	mov	r24, r13
    1d30:	81 0f       	add	r24, r17
    1d32:	6f 2d       	mov	r22, r15
    1d34:	40 e0       	ldi	r20, 0x00	; 0
    1d36:	2c 2d       	mov	r18, r12
    1d38:	0e 94 e4 0c 	call	0x19c8	; 0x19c8 <ks0108FillRect>
}
    1d3c:	1f 91       	pop	r17
    1d3e:	0f 91       	pop	r16
    1d40:	ff 90       	pop	r15
    1d42:	ef 90       	pop	r14
    1d44:	df 90       	pop	r13
    1d46:	cf 90       	pop	r12
    1d48:	08 95       	ret

00001d4a <ks0108DrawLine>:
uint8_t				ks0108Inverted=0;
ks0108FontCallback	ks0108FontRead;
uint8_t				ks0108FontColor;
const uint8_t*		ks0108Font;

void ks0108DrawLine(uint8_t x1, uint8_t y1, uint8_t x2, uint8_t y2, uint8_t color) {
    1d4a:	4f 92       	push	r4
    1d4c:	5f 92       	push	r5
    1d4e:	6f 92       	push	r6
    1d50:	7f 92       	push	r7
    1d52:	8f 92       	push	r8
    1d54:	9f 92       	push	r9
    1d56:	af 92       	push	r10
    1d58:	bf 92       	push	r11
    1d5a:	cf 92       	push	r12
    1d5c:	df 92       	push	r13
    1d5e:	ef 92       	push	r14
    1d60:	ff 92       	push	r15
    1d62:	0f 93       	push	r16
    1d64:	1f 93       	push	r17
    1d66:	cf 93       	push	r28
    1d68:	df 93       	push	r29
    1d6a:	d8 2e       	mov	r13, r24
    1d6c:	c6 2e       	mov	r12, r22
    1d6e:	f4 2e       	mov	r15, r20
    1d70:	e2 2e       	mov	r14, r18
    1d72:	50 2e       	mov	r5, r16
	int16_t m;
	
	//
	// vertical line
	//
	if(x1 == x2) {
    1d74:	84 17       	cp	r24, r20
    1d76:	51 f4       	brne	.+20     	; 0x1d8c <ks0108DrawLine+0x42>
		// x1|y1 must be the upper point
		if(y1 > y2) {
    1d78:	26 17       	cp	r18, r22
    1d7a:	10 f4       	brcc	.+4      	; 0x1d80 <ks0108DrawLine+0x36>
    1d7c:	e6 2e       	mov	r14, r22
    1d7e:	c2 2e       	mov	r12, r18
			yTmp = y1;
			y1 = y2;
			y2 = yTmp;
		}
		ks0108DrawVertLine(x1, y1, y2-y1, color);
    1d80:	ec 18       	sub	r14, r12
    1d82:	8d 2d       	mov	r24, r13
    1d84:	6c 2d       	mov	r22, r12
    1d86:	40 e0       	ldi	r20, 0x00	; 0
    1d88:	2e 2d       	mov	r18, r14
    1d8a:	0b c0       	rjmp	.+22     	; 0x1da2 <ks0108DrawLine+0x58>
	
	//
	// horizontal line
	//
	} else if(y1 == y2) {	
    1d8c:	62 17       	cp	r22, r18
    1d8e:	69 f4       	brne	.+26     	; 0x1daa <ks0108DrawLine+0x60>
		// x1|y1 must be the left point
		if(x1 > x2) {
    1d90:	48 17       	cp	r20, r24
    1d92:	10 f4       	brcc	.+4      	; 0x1d98 <ks0108DrawLine+0x4e>
    1d94:	fd 2c       	mov	r15, r13
    1d96:	d4 2e       	mov	r13, r20
			xTmp = x1;
			x1 = x2;
			x2 = xTmp;
		}
		ks0108DrawHoriLine(x1, y1, x2-x1, color);
    1d98:	fd 18       	sub	r15, r13
    1d9a:	8d 2d       	mov	r24, r13
    1d9c:	6c 2d       	mov	r22, r12
    1d9e:	4f 2d       	mov	r20, r15
    1da0:	20 e0       	ldi	r18, 0x00	; 0
    1da2:	05 2d       	mov	r16, r5
    1da4:	0e 94 e4 0c 	call	0x19c8	; 0x19c8 <ks0108FillRect>
    1da8:	d6 c0       	rjmp	.+428    	; 0x1f56 <ks0108DrawLine+0x20c>
	//
	// schiefe line :)
	//
	} else {
		// angle >= 45
		if((y2-y1) >= (x2-x1) || (y1-y2) >= (x2-x1)) {
    1daa:	62 2f       	mov	r22, r18
    1dac:	70 e0       	ldi	r23, 0x00	; 0
    1dae:	4c 2d       	mov	r20, r12
    1db0:	50 e0       	ldi	r21, 0x00	; 0
    1db2:	2f 2d       	mov	r18, r15
    1db4:	30 e0       	ldi	r19, 0x00	; 0
    1db6:	28 1b       	sub	r18, r24
    1db8:	31 09       	sbc	r19, r1
    1dba:	cb 01       	movw	r24, r22
    1dbc:	84 1b       	sub	r24, r20
    1dbe:	95 0b       	sbc	r25, r21
    1dc0:	82 17       	cp	r24, r18
    1dc2:	93 07       	cpc	r25, r19
    1dc4:	34 f4       	brge	.+12     	; 0x1dd2 <ks0108DrawLine+0x88>
    1dc6:	46 1b       	sub	r20, r22
    1dc8:	57 0b       	sbc	r21, r23
    1dca:	42 17       	cp	r20, r18
    1dcc:	53 07       	cpc	r21, r19
    1dce:	0c f4       	brge	.+2      	; 0x1dd2 <ks0108DrawLine+0x88>
    1dd0:	62 c0       	rjmp	.+196    	; 0x1e96 <ks0108DrawLine+0x14c>
			// x1 must be smaller than x2
			if(x1 > x2) {
    1dd2:	fd 14       	cp	r15, r13
    1dd4:	30 f4       	brcc	.+12     	; 0x1de2 <ks0108DrawLine+0x98>
    1dd6:	8f 2d       	mov	r24, r15
    1dd8:	fd 2c       	mov	r15, r13
    1dda:	d8 2e       	mov	r13, r24
    1ddc:	8e 2d       	mov	r24, r14
    1dde:	ec 2c       	mov	r14, r12
    1de0:	c8 2e       	mov	r12, r24
				y1 = y2;
				x2 = xTmp;
				y2 = yTmp;
			}
		
			length = x2-x1;		// not really the length :)
    1de2:	4f 2c       	mov	r4, r15
    1de4:	4d 18       	sub	r4, r13
			m = ((y2-y1)*200)/length;
    1de6:	ee 2d       	mov	r30, r14
    1de8:	f0 e0       	ldi	r31, 0x00	; 0
    1dea:	2c 2d       	mov	r18, r12
    1dec:	30 e0       	ldi	r19, 0x00	; 0
    1dee:	4f 01       	movw	r8, r30
    1df0:	82 1a       	sub	r8, r18
    1df2:	93 0a       	sbc	r9, r19
    1df4:	a4 2c       	mov	r10, r4
    1df6:	bb 24       	eor	r11, r11
    1df8:	88 ec       	ldi	r24, 0xC8	; 200
    1dfa:	90 e0       	ldi	r25, 0x00	; 0
    1dfc:	ac 01       	movw	r20, r24
    1dfe:	84 9e       	mul	r8, r20
    1e00:	c0 01       	movw	r24, r0
    1e02:	85 9e       	mul	r8, r21
    1e04:	90 0d       	add	r25, r0
    1e06:	94 9e       	mul	r9, r20
    1e08:	90 0d       	add	r25, r0
    1e0a:	11 24       	eor	r1, r1
    1e0c:	b5 01       	movw	r22, r10
    1e0e:	0e 94 98 28 	call	0x5130	; 0x5130 <__divmodhi4>
    1e12:	eb 01       	movw	r28, r22
    1e14:	0c 2d       	mov	r16, r12
    1e16:	ff 24       	eor	r15, r15
				
				ks0108DrawLine(x1+i, yAlt, x1+i, y, color);
				
				if(length <= (y2-y1) && y1 < y2)
					yAlt = y+1;
				else if(length <= (y1-y2) && y1 > y2)
    1e18:	39 01       	movw	r6, r18
    1e1a:	6e 1a       	sub	r6, r30
    1e1c:	7f 0a       	sbc	r7, r31
			length = x2-x1;		// not really the length :)
			m = ((y2-y1)*200)/length;
			yAlt = y1;
			
			for(i=0; i<=length; i++) {
				y = ((m*i)/200)+y1;
    1e1e:	8f 2d       	mov	r24, r15
    1e20:	90 e0       	ldi	r25, 0x00	; 0
    1e22:	8c 9f       	mul	r24, r28
    1e24:	90 01       	movw	r18, r0
    1e26:	8d 9f       	mul	r24, r29
    1e28:	30 0d       	add	r19, r0
    1e2a:	9c 9f       	mul	r25, r28
    1e2c:	30 0d       	add	r19, r0
    1e2e:	11 24       	eor	r1, r1
    1e30:	c9 01       	movw	r24, r18
    1e32:	68 ec       	ldi	r22, 0xC8	; 200
    1e34:	70 e0       	ldi	r23, 0x00	; 0
    1e36:	0e 94 98 28 	call	0x5130	; 0x5130 <__divmodhi4>
    1e3a:	16 2f       	mov	r17, r22
    1e3c:	1c 0d       	add	r17, r12
				
				if((m*i)%200 >= 100)
    1e3e:	c9 01       	movw	r24, r18
    1e40:	68 ec       	ldi	r22, 0xC8	; 200
    1e42:	70 e0       	ldi	r23, 0x00	; 0
    1e44:	0e 94 98 28 	call	0x5130	; 0x5130 <__divmodhi4>
    1e48:	84 36       	cpi	r24, 0x64	; 100
    1e4a:	91 05       	cpc	r25, r1
    1e4c:	14 f0       	brlt	.+4      	; 0x1e52 <ks0108DrawLine+0x108>
					y++;
    1e4e:	1f 5f       	subi	r17, 0xFF	; 255
    1e50:	05 c0       	rjmp	.+10     	; 0x1e5c <ks0108DrawLine+0x112>
				else if((m*i)%200 <= -100)
    1e52:	5f ef       	ldi	r21, 0xFF	; 255
    1e54:	8d 39       	cpi	r24, 0x9D	; 157
    1e56:	95 07       	cpc	r25, r21
    1e58:	0c f4       	brge	.+2      	; 0x1e5c <ks0108DrawLine+0x112>
					y--;
    1e5a:	11 50       	subi	r17, 0x01	; 1
    1e5c:	4f 2d       	mov	r20, r15
    1e5e:	4d 0d       	add	r20, r13
				
				ks0108DrawLine(x1+i, yAlt, x1+i, y, color);
    1e60:	84 2f       	mov	r24, r20
    1e62:	60 2f       	mov	r22, r16
    1e64:	21 2f       	mov	r18, r17
    1e66:	05 2d       	mov	r16, r5
    1e68:	0e 94 a5 0e 	call	0x1d4a	; 0x1d4a <ks0108DrawLine>
				
				if(length <= (y2-y1) && y1 < y2)
    1e6c:	8a 14       	cp	r8, r10
    1e6e:	9b 04       	cpc	r9, r11
    1e70:	2c f0       	brlt	.+10     	; 0x1e7c <ks0108DrawLine+0x132>
    1e72:	ce 14       	cp	r12, r14
    1e74:	18 f4       	brcc	.+6      	; 0x1e7c <ks0108DrawLine+0x132>
					yAlt = y+1;
    1e76:	01 2f       	mov	r16, r17
    1e78:	0f 5f       	subi	r16, 0xFF	; 255
    1e7a:	09 c0       	rjmp	.+18     	; 0x1e8e <ks0108DrawLine+0x144>
				else if(length <= (y1-y2) && y1 > y2)
    1e7c:	6a 14       	cp	r6, r10
    1e7e:	7b 04       	cpc	r7, r11
    1e80:	2c f0       	brlt	.+10     	; 0x1e8c <ks0108DrawLine+0x142>
    1e82:	ec 14       	cp	r14, r12
    1e84:	18 f4       	brcc	.+6      	; 0x1e8c <ks0108DrawLine+0x142>
					yAlt = y-1;
    1e86:	01 2f       	mov	r16, r17
    1e88:	01 50       	subi	r16, 0x01	; 1
    1e8a:	01 c0       	rjmp	.+2      	; 0x1e8e <ks0108DrawLine+0x144>
				
				ks0108DrawLine(x1+i, yAlt, x1+i, y, color);
				
				if(length <= (y2-y1) && y1 < y2)
					yAlt = y+1;
				else if(length <= (y1-y2) && y1 > y2)
    1e8c:	01 2f       	mov	r16, r17
		
			length = x2-x1;		// not really the length :)
			m = ((y2-y1)*200)/length;
			yAlt = y1;
			
			for(i=0; i<=length; i++) {
    1e8e:	f3 94       	inc	r15
    1e90:	4f 14       	cp	r4, r15
    1e92:	28 f6       	brcc	.-118    	; 0x1e1e <ks0108DrawLine+0xd4>
    1e94:	60 c0       	rjmp	.+192    	; 0x1f56 <ks0108DrawLine+0x20c>
			}
		
		// angle < 45
		} else {
			// y1 must be smaller than y2
			if(y1 > y2) {
    1e96:	ec 14       	cp	r14, r12
    1e98:	28 f4       	brcc	.+10     	; 0x1ea4 <ks0108DrawLine+0x15a>
    1e9a:	8f 2d       	mov	r24, r15
    1e9c:	fd 2c       	mov	r15, r13
    1e9e:	d8 2e       	mov	r13, r24
    1ea0:	ec 2c       	mov	r14, r12
    1ea2:	c6 2e       	mov	r12, r22
				y1 = y2;
				x2 = xTmp;
				y2 = yTmp;
			}
			
			length = y2-y1;
    1ea4:	4e 2c       	mov	r4, r14
    1ea6:	4c 18       	sub	r4, r12
			m = ((x2-x1)*200)/length;
    1ea8:	ef 2d       	mov	r30, r15
    1eaa:	f0 e0       	ldi	r31, 0x00	; 0
    1eac:	2d 2d       	mov	r18, r13
    1eae:	30 e0       	ldi	r19, 0x00	; 0
    1eb0:	4f 01       	movw	r8, r30
    1eb2:	82 1a       	sub	r8, r18
    1eb4:	93 0a       	sbc	r9, r19
    1eb6:	a4 2c       	mov	r10, r4
    1eb8:	bb 24       	eor	r11, r11
    1eba:	88 ec       	ldi	r24, 0xC8	; 200
    1ebc:	90 e0       	ldi	r25, 0x00	; 0
    1ebe:	ac 01       	movw	r20, r24
    1ec0:	84 9e       	mul	r8, r20
    1ec2:	c0 01       	movw	r24, r0
    1ec4:	85 9e       	mul	r8, r21
    1ec6:	90 0d       	add	r25, r0
    1ec8:	94 9e       	mul	r9, r20
    1eca:	90 0d       	add	r25, r0
    1ecc:	11 24       	eor	r1, r1
    1ece:	b5 01       	movw	r22, r10
    1ed0:	0e 94 98 28 	call	0x5130	; 0x5130 <__divmodhi4>
    1ed4:	eb 01       	movw	r28, r22
    1ed6:	4d 2d       	mov	r20, r13
    1ed8:	ee 24       	eor	r14, r14
					y--;
				
				ks0108DrawLine(yAlt, y1+i, y, y1+i, color);
				if(length <= (x2-x1) && x1 < x2)
					yAlt = y+1;
				else if(length <= (x1-x2) && x1 > x2)
    1eda:	39 01       	movw	r6, r18
    1edc:	6e 1a       	sub	r6, r30
    1ede:	7f 0a       	sbc	r7, r31
			length = y2-y1;
			m = ((x2-x1)*200)/length;
			yAlt = x1;
			
			for(i=0; i<=length; i++) {
				y = ((m*i)/200)+x1;
    1ee0:	8e 2d       	mov	r24, r14
    1ee2:	90 e0       	ldi	r25, 0x00	; 0
    1ee4:	8c 9f       	mul	r24, r28
    1ee6:	90 01       	movw	r18, r0
    1ee8:	8d 9f       	mul	r24, r29
    1eea:	30 0d       	add	r19, r0
    1eec:	9c 9f       	mul	r25, r28
    1eee:	30 0d       	add	r19, r0
    1ef0:	11 24       	eor	r1, r1
    1ef2:	c9 01       	movw	r24, r18
    1ef4:	68 ec       	ldi	r22, 0xC8	; 200
    1ef6:	70 e0       	ldi	r23, 0x00	; 0
    1ef8:	0e 94 98 28 	call	0x5130	; 0x5130 <__divmodhi4>
    1efc:	16 2f       	mov	r17, r22
    1efe:	1d 0d       	add	r17, r13
				
				if((m*i)%200 >= 100)
    1f00:	c9 01       	movw	r24, r18
    1f02:	68 ec       	ldi	r22, 0xC8	; 200
    1f04:	70 e0       	ldi	r23, 0x00	; 0
    1f06:	0e 94 98 28 	call	0x5130	; 0x5130 <__divmodhi4>
    1f0a:	84 36       	cpi	r24, 0x64	; 100
    1f0c:	91 05       	cpc	r25, r1
    1f0e:	14 f0       	brlt	.+4      	; 0x1f14 <ks0108DrawLine+0x1ca>
					y++;
    1f10:	1f 5f       	subi	r17, 0xFF	; 255
    1f12:	05 c0       	rjmp	.+10     	; 0x1f1e <ks0108DrawLine+0x1d4>
				else if((m*i)%200 <= -100)
    1f14:	5f ef       	ldi	r21, 0xFF	; 255
    1f16:	8d 39       	cpi	r24, 0x9D	; 157
    1f18:	95 07       	cpc	r25, r21
    1f1a:	0c f4       	brge	.+2      	; 0x1f1e <ks0108DrawLine+0x1d4>
					y--;
    1f1c:	11 50       	subi	r17, 0x01	; 1
    1f1e:	2e 2d       	mov	r18, r14
    1f20:	2c 0d       	add	r18, r12
				
				ks0108DrawLine(yAlt, y1+i, y, y1+i, color);
    1f22:	84 2f       	mov	r24, r20
    1f24:	62 2f       	mov	r22, r18
    1f26:	41 2f       	mov	r20, r17
    1f28:	05 2d       	mov	r16, r5
    1f2a:	0e 94 a5 0e 	call	0x1d4a	; 0x1d4a <ks0108DrawLine>
				if(length <= (x2-x1) && x1 < x2)
    1f2e:	8a 14       	cp	r8, r10
    1f30:	9b 04       	cpc	r9, r11
    1f32:	2c f0       	brlt	.+10     	; 0x1f3e <ks0108DrawLine+0x1f4>
    1f34:	df 14       	cp	r13, r15
    1f36:	18 f4       	brcc	.+6      	; 0x1f3e <ks0108DrawLine+0x1f4>
					yAlt = y+1;
    1f38:	41 2f       	mov	r20, r17
    1f3a:	4f 5f       	subi	r20, 0xFF	; 255
    1f3c:	09 c0       	rjmp	.+18     	; 0x1f50 <ks0108DrawLine+0x206>
				else if(length <= (x1-x2) && x1 > x2)
    1f3e:	6a 14       	cp	r6, r10
    1f40:	7b 04       	cpc	r7, r11
    1f42:	2c f0       	brlt	.+10     	; 0x1f4e <ks0108DrawLine+0x204>
    1f44:	fd 14       	cp	r15, r13
    1f46:	18 f4       	brcc	.+6      	; 0x1f4e <ks0108DrawLine+0x204>
					yAlt = y-1;
    1f48:	41 2f       	mov	r20, r17
    1f4a:	41 50       	subi	r20, 0x01	; 1
    1f4c:	01 c0       	rjmp	.+2      	; 0x1f50 <ks0108DrawLine+0x206>
					y--;
				
				ks0108DrawLine(yAlt, y1+i, y, y1+i, color);
				if(length <= (x2-x1) && x1 < x2)
					yAlt = y+1;
				else if(length <= (x1-x2) && x1 > x2)
    1f4e:	41 2f       	mov	r20, r17
			
			length = y2-y1;
			m = ((x2-x1)*200)/length;
			yAlt = x1;
			
			for(i=0; i<=length; i++) {
    1f50:	e3 94       	inc	r14
    1f52:	4e 14       	cp	r4, r14
    1f54:	28 f6       	brcc	.-118    	; 0x1ee0 <ks0108DrawLine+0x196>
				else
					yAlt = y;
			}
		}
	}
}
    1f56:	df 91       	pop	r29
    1f58:	cf 91       	pop	r28
    1f5a:	1f 91       	pop	r17
    1f5c:	0f 91       	pop	r16
    1f5e:	ff 90       	pop	r15
    1f60:	ef 90       	pop	r14
    1f62:	df 90       	pop	r13
    1f64:	cf 90       	pop	r12
    1f66:	bf 90       	pop	r11
    1f68:	af 90       	pop	r10
    1f6a:	9f 90       	pop	r9
    1f6c:	8f 90       	pop	r8
    1f6e:	7f 90       	pop	r7
    1f70:	6f 90       	pop	r6
    1f72:	5f 90       	pop	r5
    1f74:	4f 90       	pop	r4
    1f76:	08 95       	ret

00001f78 <__vector_12>:

//char FlashString[] PROGMEM = "This is a string held completely in flash memory."; 

// handler for Output Compare 1 overflow interrupt
ISR(SIG_OUTPUT_COMPARE1A)  
{
    1f78:	1f 92       	push	r1
    1f7a:	0f 92       	push	r0
    1f7c:	0f b6       	in	r0, 0x3f	; 63
    1f7e:	0f 92       	push	r0
    1f80:	11 24       	eor	r1, r1
    1f82:	8f 93       	push	r24
    1f84:	9f 93       	push	r25
    1f86:	af 93       	push	r26
    1f88:	bf 93       	push	r27
	tenms++;
    1f8a:	80 91 1d 05 	lds	r24, 0x051D
    1f8e:	90 91 1e 05 	lds	r25, 0x051E
    1f92:	a0 91 1f 05 	lds	r26, 0x051F
    1f96:	b0 91 20 05 	lds	r27, 0x0520
    1f9a:	01 96       	adiw	r24, 0x01	; 1
    1f9c:	a1 1d       	adc	r26, r1
    1f9e:	b1 1d       	adc	r27, r1
    1fa0:	80 93 1d 05 	sts	0x051D, r24
    1fa4:	90 93 1e 05 	sts	0x051E, r25
    1fa8:	a0 93 1f 05 	sts	0x051F, r26
    1fac:	b0 93 20 05 	sts	0x0520, r27
}
    1fb0:	bf 91       	pop	r27
    1fb2:	af 91       	pop	r26
    1fb4:	9f 91       	pop	r25
    1fb6:	8f 91       	pop	r24
    1fb8:	0f 90       	pop	r0
    1fba:	0f be       	out	0x3f, r0	; 63
    1fbc:	0f 90       	pop	r0
    1fbe:	1f 90       	pop	r1
    1fc0:	18 95       	reti

00001fc2 <disassemble_bytepacket>:


void disassemble_bytepacket(uint8_t *byte_data, uint8_t *datatype, uint8_t *datanumber,
							uint8_t *data1, int len1, 
							uint8_t *data2, int len2,
							uint8_t *data3, int len3) {
    1fc2:	6f 92       	push	r6
    1fc4:	7f 92       	push	r7
    1fc6:	8f 92       	push	r8
    1fc8:	9f 92       	push	r9
    1fca:	af 92       	push	r10
    1fcc:	bf 92       	push	r11
    1fce:	cf 92       	push	r12
    1fd0:	df 92       	push	r13
    1fd2:	ef 92       	push	r14
    1fd4:	ff 92       	push	r15
    1fd6:	0f 93       	push	r16
    1fd8:	1f 93       	push	r17
    1fda:	df 93       	push	r29
    1fdc:	cf 93       	push	r28
    1fde:	cd b7       	in	r28, 0x3d	; 61
    1fe0:	de b7       	in	r29, 0x3e	; 62
    1fe2:	3c 01       	movw	r6, r24
    1fe4:	fa 01       	movw	r30, r20

	int i;

	*datatype = byte_data[0];
    1fe6:	dc 01       	movw	r26, r24
    1fe8:	8c 91       	ld	r24, X
    1fea:	db 01       	movw	r26, r22
    1fec:	8c 93       	st	X, r24
	datanumber[0] = byte_data[1];
    1fee:	d3 01       	movw	r26, r6
    1ff0:	11 96       	adiw	r26, 0x01	; 1
    1ff2:	8c 91       	ld	r24, X
    1ff4:	11 97       	sbiw	r26, 0x01	; 1
    1ff6:	80 83       	st	Z, r24
	datanumber[1] = byte_data[2];
    1ff8:	12 96       	adiw	r26, 0x02	; 2
    1ffa:	8c 91       	ld	r24, X
    1ffc:	12 97       	sbiw	r26, 0x02	; 2
    1ffe:	81 83       	std	Z+1, r24	; 0x01
    2000:	40 e0       	ldi	r20, 0x00	; 0
    2002:	50 e0       	ldi	r21, 0x00	; 0
    2004:	09 c0       	rjmp	.+18     	; 0x2018 <disassemble_bytepacket+0x56>

	for(i=0;i<len1;i++) {
		data1[i] = byte_data[i+3];
    2006:	f9 01       	movw	r30, r18
    2008:	e4 0f       	add	r30, r20
    200a:	f5 1f       	adc	r31, r21
    200c:	12 96       	adiw	r26, 0x02	; 2
    200e:	8c 91       	ld	r24, X
    2010:	12 97       	sbiw	r26, 0x02	; 2
    2012:	80 83       	st	Z, r24

	*datatype = byte_data[0];
	datanumber[0] = byte_data[1];
	datanumber[1] = byte_data[2];

	for(i=0;i<len1;i++) {
    2014:	4f 5f       	subi	r20, 0xFF	; 255
    2016:	5f 4f       	sbci	r21, 0xFF	; 255
    2018:	11 96       	adiw	r26, 0x01	; 1
    201a:	40 17       	cp	r20, r16
    201c:	51 07       	cpc	r21, r17
    201e:	9c f3       	brlt	.-26     	; 0x2006 <disassemble_bytepacket+0x44>
    2020:	d3 01       	movw	r26, r6
    2022:	a4 0f       	add	r26, r20
    2024:	b5 1f       	adc	r27, r21
    2026:	fa 01       	movw	r30, r20
    2028:	e0 1b       	sub	r30, r16
    202a:	f1 0b       	sbc	r31, r17
    202c:	ee 0d       	add	r30, r14
    202e:	ff 1d       	adc	r31, r15
		data1[i] = byte_data[i+3];
	}

	for(i=i;i<(len1+len2);i++) {
    2030:	c0 0e       	add	r12, r16
    2032:	d1 1e       	adc	r13, r17
    2034:	06 c0       	rjmp	.+12     	; 0x2042 <disassemble_bytepacket+0x80>
		data2[i-len1] = byte_data[i+3];
    2036:	12 96       	adiw	r26, 0x02	; 2
    2038:	8c 91       	ld	r24, X
    203a:	12 97       	sbiw	r26, 0x02	; 2
    203c:	81 93       	st	Z+, r24

	for(i=0;i<len1;i++) {
		data1[i] = byte_data[i+3];
	}

	for(i=i;i<(len1+len2);i++) {
    203e:	4f 5f       	subi	r20, 0xFF	; 255
    2040:	5f 4f       	sbci	r21, 0xFF	; 255
    2042:	11 96       	adiw	r26, 0x01	; 1
    2044:	4c 15       	cp	r20, r12
    2046:	5d 05       	cpc	r21, r13
    2048:	b4 f3       	brlt	.-20     	; 0x2036 <disassemble_bytepacket+0x74>
    204a:	d3 01       	movw	r26, r6
    204c:	a4 0f       	add	r26, r20
    204e:	b5 1f       	adc	r27, r21
    2050:	fa 01       	movw	r30, r20
    2052:	ec 19       	sub	r30, r12
    2054:	fd 09       	sbc	r31, r13
    2056:	ea 0d       	add	r30, r10
    2058:	fb 1d       	adc	r31, r11
		data2[i-len1] = byte_data[i+3];
	}

	for(i=i;i<(len1+len2+len3);i++) {
    205a:	8c 0c       	add	r8, r12
    205c:	9d 1c       	adc	r9, r13
    205e:	06 c0       	rjmp	.+12     	; 0x206c <disassemble_bytepacket+0xaa>
		data3[i-(len1+len2)] = byte_data[i+3];
    2060:	12 96       	adiw	r26, 0x02	; 2
    2062:	8c 91       	ld	r24, X
    2064:	12 97       	sbiw	r26, 0x02	; 2
    2066:	81 93       	st	Z+, r24

	for(i=i;i<(len1+len2);i++) {
		data2[i-len1] = byte_data[i+3];
	}

	for(i=i;i<(len1+len2+len3);i++) {
    2068:	4f 5f       	subi	r20, 0xFF	; 255
    206a:	5f 4f       	sbci	r21, 0xFF	; 255
    206c:	11 96       	adiw	r26, 0x01	; 1
    206e:	48 15       	cp	r20, r8
    2070:	59 05       	cpc	r21, r9
    2072:	b4 f3       	brlt	.-20     	; 0x2060 <disassemble_bytepacket+0x9e>
		data3[i-(len1+len2)] = byte_data[i+3];
	}
}
    2074:	cf 91       	pop	r28
    2076:	df 91       	pop	r29
    2078:	1f 91       	pop	r17
    207a:	0f 91       	pop	r16
    207c:	ff 90       	pop	r15
    207e:	ef 90       	pop	r14
    2080:	df 90       	pop	r13
    2082:	cf 90       	pop	r12
    2084:	bf 90       	pop	r11
    2086:	af 90       	pop	r10
    2088:	9f 90       	pop	r9
    208a:	8f 90       	pop	r8
    208c:	7f 90       	pop	r7
    208e:	6f 90       	pop	r6
    2090:	08 95       	ret

00002092 <update_gui>:
		
	}
}

void update_gui(void) {
		if (pgm_state == WELCOME_SCR) {
    2092:	80 91 39 05 	lds	r24, 0x0539
    2096:	88 23       	and	r24, r24
    2098:	19 f4       	brne	.+6      	; 0x20a0 <update_gui+0xe>
			welcome_screen();
    209a:	0e 94 64 1c 	call	0x38c8	; 0x38c8 <welcome_screen>
    209e:	08 95       	ret
		} else if (pgm_state == MAIN_MENU) {
    20a0:	80 91 39 05 	lds	r24, 0x0539
    20a4:	81 30       	cpi	r24, 0x01	; 1
    20a6:	19 f4       	brne	.+6      	; 0x20ae <update_gui+0x1c>
			main_menu_setup();
    20a8:	0e 94 46 1a 	call	0x348c	; 0x348c <main_menu_setup>
    20ac:	08 95       	ret
		} else if (pgm_state == WEIGHT_SEL) {
    20ae:	80 91 39 05 	lds	r24, 0x0539
    20b2:	83 30       	cpi	r24, 0x03	; 3
    20b4:	71 f1       	breq	.+92     	; 0x2112 <update_gui+0x80>

		} else if (pgm_state == CONNECT_SCR) {
    20b6:	80 91 39 05 	lds	r24, 0x0539
    20ba:	85 30       	cpi	r24, 0x05	; 5
    20bc:	a1 f4       	brne	.+40     	; 0x20e6 <update_gui+0x54>
			connect_setup(CONNECT_SCR);
    20be:	0e 94 81 16 	call	0x2d02	; 0x2d02 <connect_setup>
			printf("WAITING FOR DATA\n\r");
    20c2:	00 d0       	rcall	.+0      	; 0x20c4 <update_gui+0x32>
    20c4:	80 e0       	ldi	r24, 0x00	; 0
    20c6:	91 e0       	ldi	r25, 0x01	; 1
    20c8:	ed b7       	in	r30, 0x3d	; 61
    20ca:	fe b7       	in	r31, 0x3e	; 62
    20cc:	92 83       	std	Z+2, r25	; 0x02
    20ce:	81 83       	std	Z+1, r24	; 0x01
    20d0:	0e 94 10 2a 	call	0x5420	; 0x5420 <printf>
			pc_mode = 1;
    20d4:	81 e0       	ldi	r24, 0x01	; 1
    20d6:	90 e0       	ldi	r25, 0x00	; 0
    20d8:	90 93 38 05 	sts	0x0538, r25
    20dc:	80 93 37 05 	sts	0x0537, r24
    20e0:	0f 90       	pop	r0
    20e2:	0f 90       	pop	r0
    20e4:	08 95       	ret
		} else if (pgm_state == SUMMARY_SCR) {
    20e6:	80 91 39 05 	lds	r24, 0x0539
    20ea:	86 30       	cpi	r24, 0x06	; 6
    20ec:	91 f4       	brne	.+36     	; 0x2112 <update_gui+0x80>
			summary_setup(yaxis_max[0], yaxis_max[1]);
    20ee:	60 91 7e 0e 	lds	r22, 0x0E7E
    20f2:	70 91 7f 0e 	lds	r23, 0x0E7F
    20f6:	80 91 80 0e 	lds	r24, 0x0E80
    20fa:	90 91 81 0e 	lds	r25, 0x0E81
    20fe:	20 91 82 0e 	lds	r18, 0x0E82
    2102:	30 91 83 0e 	lds	r19, 0x0E83
    2106:	40 91 84 0e 	lds	r20, 0x0E84
    210a:	50 91 85 0e 	lds	r21, 0x0E85
    210e:	0e 94 d6 18 	call	0x31ac	; 0x31ac <summary_setup>
    2112:	08 95       	ret

00002114 <update_button>:

}

void update_button(int back) {

			if (pgm_state == MAIN_MENU) {
    2114:	80 91 39 05 	lds	r24, 0x0539
    2118:	81 30       	cpi	r24, 0x01	; 1
    211a:	71 f4       	brne	.+28     	; 0x2138 <update_button+0x24>
				pgm_state = WEIGHT_SEL;
    211c:	83 e0       	ldi	r24, 0x03	; 3
    211e:	80 93 39 05 	sts	0x0539, r24
				if (weight_menu_setup() == 3) {
    2122:	0e 94 9e 16 	call	0x2d3c	; 0x2d3c <weight_menu_setup>
    2126:	03 97       	sbiw	r24, 0x03	; 3
    2128:	e1 f4       	brne	.+56     	; 0x2162 <update_button+0x4e>
					pc_mode = 1;
    212a:	81 e0       	ldi	r24, 0x01	; 1
    212c:	90 e0       	ldi	r25, 0x00	; 0
    212e:	90 93 38 05 	sts	0x0538, r25
    2132:	80 93 37 05 	sts	0x0537, r24
    2136:	19 c0       	rjmp	.+50     	; 0x216a <update_button+0x56>
				} else {
					pc_mode = 0;
				}
			} else if (pgm_state == WEIGHT_SEL) {
    2138:	80 91 39 05 	lds	r24, 0x0539
    213c:	83 30       	cpi	r24, 0x03	; 3
    213e:	11 f4       	brne	.+4      	; 0x2144 <update_button+0x30>
				pgm_state = CONNECT_SCR;
    2140:	85 e0       	ldi	r24, 0x05	; 5
    2142:	05 c0       	rjmp	.+10     	; 0x214e <update_button+0x3a>
//				}
		//		if (pc_mode == 1) {
		//			pgm_state = MAIN_MENU;
		//			pc_mode = 0;
		//		}
			} else if (pgm_state == CONNECT_SCR) {
    2144:	80 91 39 05 	lds	r24, 0x0539
    2148:	85 30       	cpi	r24, 0x05	; 5
    214a:	21 f4       	brne	.+8      	; 0x2154 <update_button+0x40>
//				pgm_state = WEIGHT_SEL;
				pgm_state = SUMMARY_SCR;	
    214c:	86 e0       	ldi	r24, 0x06	; 6
    214e:	80 93 39 05 	sts	0x0539, r24
    2152:	0b c0       	rjmp	.+22     	; 0x216a <update_button+0x56>
//			} else if (pgm_state == DATA_COLLECTED) {
//				pgm_state = SUMMARY_SCR;	
//				if (back == 1) {
//					pgm_state = WEIGHT_SEL;
//				}									
			} else if (pgm_state == SUMMARY_SCR) {
    2154:	80 91 39 05 	lds	r24, 0x0539
    2158:	86 30       	cpi	r24, 0x06	; 6
    215a:	39 f4       	brne	.+14     	; 0x216a <update_button+0x56>
//				pgm_state = ACC_GRAPH;
//				if (back == 1) {
					pgm_state = MAIN_MENU;
    215c:	81 e0       	ldi	r24, 0x01	; 1
    215e:	80 93 39 05 	sts	0x0539, r24
//			} else if (pgm_state == ACC_GRAPH) {
//				pgm_state = MAIN_MENU;
//				if (back == 1) {
//					pgm_state = SUMMARY_SCR;
//				}
				pc_mode = 0;
    2162:	10 92 38 05 	sts	0x0538, r1
    2166:	10 92 37 05 	sts	0x0537, r1
			}

			update_gui();
    216a:	0e 94 49 10 	call	0x2092	; 0x2092 <update_gui>
}
    216e:	08 95       	ret

00002170 <__vector_6>:
// encoder B change
ISR(INT7_vect) {
	encoder_logic();
}
// encoder SW change
ISR(INT5_vect) {
    2170:	1f 92       	push	r1
    2172:	0f 92       	push	r0
    2174:	0f b6       	in	r0, 0x3f	; 63
    2176:	0f 92       	push	r0
    2178:	11 24       	eor	r1, r1
    217a:	2f 93       	push	r18
    217c:	3f 93       	push	r19
    217e:	4f 93       	push	r20
    2180:	5f 93       	push	r21
    2182:	6f 93       	push	r22
    2184:	7f 93       	push	r23
    2186:	8f 93       	push	r24
    2188:	9f 93       	push	r25
    218a:	af 93       	push	r26
    218c:	bf 93       	push	r27
    218e:	ef 93       	push	r30
    2190:	ff 93       	push	r31
	button_current = (PINE >> PE5) & 1;
    2192:	81 b1       	in	r24, 0x01	; 1
    2194:	82 95       	swap	r24
    2196:	86 95       	lsr	r24
    2198:	87 70       	andi	r24, 0x07	; 7
    219a:	90 e0       	ldi	r25, 0x00	; 0
    219c:	81 70       	andi	r24, 0x01	; 1
    219e:	90 70       	andi	r25, 0x00	; 0
    21a0:	90 93 2c 05 	sts	0x052C, r25
    21a4:	80 93 2b 05 	sts	0x052B, r24

	button_timer = 0;
    21a8:	10 92 28 05 	sts	0x0528, r1
    21ac:	10 92 27 05 	sts	0x0527, r1
    21b0:	3d c0       	rjmp	.+122    	; 0x222c <__vector_6+0xbc>
	while (button_current == 0) {
		button_current = (PINE >> PE5) & 1;
    21b2:	81 b1       	in	r24, 0x01	; 1
    21b4:	82 95       	swap	r24
    21b6:	86 95       	lsr	r24
    21b8:	87 70       	andi	r24, 0x07	; 7
    21ba:	90 e0       	ldi	r25, 0x00	; 0
    21bc:	81 70       	andi	r24, 0x01	; 1
    21be:	90 70       	andi	r25, 0x00	; 0
    21c0:	90 93 2c 05 	sts	0x052C, r25
    21c4:	80 93 2b 05 	sts	0x052B, r24
		h++;
    21c8:	80 91 2f 05 	lds	r24, 0x052F
    21cc:	90 91 30 05 	lds	r25, 0x0530
    21d0:	01 96       	adiw	r24, 0x01	; 1
    21d2:	90 93 30 05 	sts	0x0530, r25
    21d6:	80 93 2f 05 	sts	0x052F, r24
		if (h >= 1280) {
    21da:	80 91 2f 05 	lds	r24, 0x052F
    21de:	90 91 30 05 	lds	r25, 0x0530
    21e2:	80 50       	subi	r24, 0x00	; 0
    21e4:	95 40       	sbci	r25, 0x05	; 5
    21e6:	6c f0       	brlt	.+26     	; 0x2202 <__vector_6+0x92>
			button_timer++;
    21e8:	80 91 27 05 	lds	r24, 0x0527
    21ec:	90 91 28 05 	lds	r25, 0x0528
    21f0:	01 96       	adiw	r24, 0x01	; 1
    21f2:	90 93 28 05 	sts	0x0528, r25
    21f6:	80 93 27 05 	sts	0x0527, r24
			h = 0;
    21fa:	10 92 30 05 	sts	0x0530, r1
    21fe:	10 92 2f 05 	sts	0x052F, r1
		}
		if (button_timer >= 150) {
    2202:	80 91 27 05 	lds	r24, 0x0527
    2206:	90 91 28 05 	lds	r25, 0x0528
    220a:	86 39       	cpi	r24, 0x96	; 150
    220c:	91 05       	cpc	r25, r1
    220e:	74 f0       	brlt	.+28     	; 0x222c <__vector_6+0xbc>
			update_button(1);
    2210:	81 e0       	ldi	r24, 0x01	; 1
    2212:	90 e0       	ldi	r25, 0x00	; 0
    2214:	0e 94 8a 10 	call	0x2114	; 0x2114 <update_button>
			cond = 1;
    2218:	81 e0       	ldi	r24, 0x01	; 1
    221a:	90 e0       	ldi	r25, 0x00	; 0
    221c:	90 93 2e 05 	sts	0x052E, r25
    2220:	80 93 2d 05 	sts	0x052D, r24
			button_current = 1;
    2224:	90 93 2c 05 	sts	0x052C, r25
    2228:	80 93 2b 05 	sts	0x052B, r24
// encoder SW change
ISR(INT5_vect) {
	button_current = (PINE >> PE5) & 1;

	button_timer = 0;
	while (button_current == 0) {
    222c:	80 91 2b 05 	lds	r24, 0x052B
    2230:	90 91 2c 05 	lds	r25, 0x052C
    2234:	89 2b       	or	r24, r25
    2236:	09 f4       	brne	.+2      	; 0x223a <__vector_6+0xca>
    2238:	bc cf       	rjmp	.-136    	; 0x21b2 <__vector_6+0x42>
			cond = 1;
			button_current = 1;
		}
	}

	if (cond == 0) {
    223a:	80 91 2d 05 	lds	r24, 0x052D
    223e:	90 91 2e 05 	lds	r25, 0x052E
    2242:	89 2b       	or	r24, r25
    2244:	21 f4       	brne	.+8      	; 0x224e <__vector_6+0xde>
		update_button(0);
    2246:	80 e0       	ldi	r24, 0x00	; 0
    2248:	90 e0       	ldi	r25, 0x00	; 0
    224a:	0e 94 8a 10 	call	0x2114	; 0x2114 <update_button>
	}
	h = 0;
    224e:	10 92 30 05 	sts	0x0530, r1
    2252:	10 92 2f 05 	sts	0x052F, r1
	cond = 0;
    2256:	10 92 2e 05 	sts	0x052E, r1
    225a:	10 92 2d 05 	sts	0x052D, r1
}
    225e:	ff 91       	pop	r31
    2260:	ef 91       	pop	r30
    2262:	bf 91       	pop	r27
    2264:	af 91       	pop	r26
    2266:	9f 91       	pop	r25
    2268:	8f 91       	pop	r24
    226a:	7f 91       	pop	r23
    226c:	6f 91       	pop	r22
    226e:	5f 91       	pop	r21
    2270:	4f 91       	pop	r20
    2272:	3f 91       	pop	r19
    2274:	2f 91       	pop	r18
    2276:	0f 90       	pop	r0
    2278:	0f be       	out	0x3f, r0	; 63
    227a:	0f 90       	pop	r0
    227c:	1f 90       	pop	r1
    227e:	18 95       	reti

00002280 <main>:
   sei();

    SREG = sreg;
} 

int main(void) {
    2280:	2f 92       	push	r2
    2282:	3f 92       	push	r3
    2284:	4f 92       	push	r4
    2286:	5f 92       	push	r5
    2288:	6f 92       	push	r6
    228a:	7f 92       	push	r7
    228c:	8f 92       	push	r8
    228e:	9f 92       	push	r9
    2290:	af 92       	push	r10
    2292:	bf 92       	push	r11
    2294:	cf 92       	push	r12
    2296:	df 92       	push	r13
    2298:	ef 92       	push	r14
    229a:	ff 92       	push	r15
    229c:	0f 93       	push	r16
    229e:	1f 93       	push	r17
    22a0:	df 93       	push	r29
    22a2:	cf 93       	push	r28
    22a4:	cd b7       	in	r28, 0x3d	; 61
    22a6:	de b7       	in	r29, 0x3e	; 62
    22a8:	c1 54       	subi	r28, 0x41	; 65
    22aa:	d0 40       	sbci	r29, 0x00	; 0
    22ac:	0f b6       	in	r0, 0x3f	; 63
    22ae:	f8 94       	cli
    22b0:	de bf       	out	0x3e, r29	; 62
    22b2:	0f be       	out	0x3f, r0	; 63
    22b4:	cd bf       	out	0x3d, r28	; 61
	//DDRD |= (1<<PD4);
	//PORTD |= (1<<PD4);

	// Timer setup
    // use CLK/64 prescale value, clear timer/counter on compareA match                               
   	TCCR1B = _BV(CS11) | _BV(WGM12);
    22b6:	8a e0       	ldi	r24, 0x0A	; 10
    22b8:	8e bd       	out	0x2e, r24	; 46
    // preset timer1 high/low byte
    OCR1A = 9216; // 10 milliseconds  
    22ba:	80 e0       	ldi	r24, 0x00	; 0
    22bc:	94 e2       	ldi	r25, 0x24	; 36
    22be:	9b bd       	out	0x2b, r25	; 43
    22c0:	8a bd       	out	0x2a, r24	; 42
    // enable Output Compare 1 overflow interrupt
    TIMSK  = _BV(OCIE1A); 
    22c2:	80 e1       	ldi	r24, 0x10	; 16
    22c4:	87 bf       	out	0x37, r24	; 55
	main_timer = tenms;
    22c6:	80 91 1d 05 	lds	r24, 0x051D
    22ca:	90 91 1e 05 	lds	r25, 0x051E
    22ce:	a0 91 1f 05 	lds	r26, 0x051F
    22d2:	b0 91 20 05 	lds	r27, 0x0520
    22d6:	80 93 21 05 	sts	0x0521, r24
    22da:	90 93 22 05 	sts	0x0522, r25
    22de:	a0 93 23 05 	sts	0x0523, r26
    22e2:	b0 93 24 05 	sts	0x0524, r27
	
	init_nordic_spi();
    22e6:	0e 94 cb 1c 	call	0x3996	; 0x3996 <init_nordic_spi>
	nrf24l01_initialize_debug(true, 32, false); //Initailize as RX, 1 data byte and auto-acknowledge on
    22ea:	81 e0       	ldi	r24, 0x01	; 1
    22ec:	60 e2       	ldi	r22, 0x20	; 32
    22ee:	40 e0       	ldi	r20, 0x00	; 0
    22f0:	0e 94 e4 22 	call	0x45c8	; 0x45c8 <nrf24l01_initialize_debug>

	uart_init( UART_BAUD_SELECT(UART_BAUD_RATE,F_CPU) ); 
    22f4:	83 e0       	ldi	r24, 0x03	; 3
    22f6:	90 e0       	ldi	r25, 0x00	; 0
    22f8:	0e 94 2a 14 	call	0x2854	; 0x2854 <uart_init>
	stdout = &mystdout;
    22fc:	80 e0       	ldi	r24, 0x00	; 0
    22fe:	93 e0       	ldi	r25, 0x03	; 3
    2300:	90 93 d3 0e 	sts	0x0ED3, r25
    2304:	80 93 d2 0e 	sts	0x0ED2, r24

	// Wait a little while the display starts up
	for(volatile uint16_t i=0; i<10000; i++);
    2308:	1d 82       	std	Y+5, r1	; 0x05
    230a:	1c 82       	std	Y+4, r1	; 0x04
    230c:	05 c0       	rjmp	.+10     	; 0x2318 <main+0x98>
    230e:	8c 81       	ldd	r24, Y+4	; 0x04
    2310:	9d 81       	ldd	r25, Y+5	; 0x05
    2312:	01 96       	adiw	r24, 0x01	; 1
    2314:	9d 83       	std	Y+5, r25	; 0x05
    2316:	8c 83       	std	Y+4, r24	; 0x04
    2318:	8c 81       	ldd	r24, Y+4	; 0x04
    231a:	9d 81       	ldd	r25, Y+5	; 0x05
    231c:	80 51       	subi	r24, 0x10	; 16
    231e:	97 42       	sbci	r25, 0x27	; 39
    2320:	b0 f3       	brcs	.-20     	; 0x230e <main+0x8e>
	// Initialize the LCD
	ks0108Init(0);
    2322:	80 e0       	ldi	r24, 0x00	; 0
    2324:	0e 94 7a 0d 	call	0x1af4	; 0x1af4 <ks0108Init>
	// Wait a little while the display starts up
	for(volatile uint16_t i=0; i<10000; i++);
    2328:	1d 82       	std	Y+5, r1	; 0x05
    232a:	1c 82       	std	Y+4, r1	; 0x04
    232c:	05 c0       	rjmp	.+10     	; 0x2338 <main+0xb8>
    232e:	8c 81       	ldd	r24, Y+4	; 0x04
    2330:	9d 81       	ldd	r25, Y+5	; 0x05
    2332:	01 96       	adiw	r24, 0x01	; 1
    2334:	9d 83       	std	Y+5, r25	; 0x05
    2336:	8c 83       	std	Y+4, r24	; 0x04
    2338:	8c 81       	ldd	r24, Y+4	; 0x04
    233a:	9d 81       	ldd	r25, Y+5	; 0x05
    233c:	80 51       	subi	r24, 0x10	; 16
    233e:	97 42       	sbci	r25, 0x27	; 39
    2340:	b0 f3       	brcs	.-20     	; 0x232e <main+0xae>


	init_encoders();
    2342:	0e 94 05 16 	call	0x2c0a	; 0x2c0a <init_encoders>
	init_switches();
    2346:	0e 94 1e 16 	call	0x2c3c	; 0x2c3c <init_switches>

	sei();
    234a:	78 94       	sei

	// Display welcome screen
	pgm_state = WELCOME_SCR;
    234c:	10 92 39 05 	sts	0x0539, r1
	update_gui();
    2350:	0e 94 49 10 	call	0x2092	; 0x2092 <update_gui>


	// Set up main menu
	pgm_state = MAIN_MENU;
    2354:	81 e0       	ldi	r24, 0x01	; 1
    2356:	80 93 39 05 	sts	0x0539, r24
	update_gui();
    235a:	0e 94 49 10 	call	0x2092	; 0x2092 <update_gui>


	printf("SYSTEM INITIALIZED\n\r");
    235e:	00 d0       	rcall	.+0      	; 0x2360 <main+0xe0>
    2360:	83 e1       	ldi	r24, 0x13	; 19
    2362:	91 e0       	ldi	r25, 0x01	; 1
    2364:	ed b7       	in	r30, 0x3d	; 61
    2366:	fe b7       	in	r31, 0x3e	; 62
    2368:	92 83       	std	Z+2, r25	; 0x02
    236a:	81 83       	std	Z+1, r24	; 0x01
    236c:	0e 94 10 2a 	call	0x5420	; 0x5420 <printf>
    2370:	0f 90       	pop	r0
    2372:	0f 90       	pop	r0
		//for(volatile uint16_t i=0; i<5000; i++);
		//printf("TENG IS AWESOME\n\r");
			while ((!(nrf24l01_irq_pin_active() && nrf24l01_irq_rx_dr_active()))) {
				update_encoder(max,pgm_state);
			}
		    nrf24l01_read_rx_payload(nordic_data, 32); //read the packet into data 
    2374:	b2 e2       	ldi	r27, 0x22	; 34
    2376:	6b 2e       	mov	r6, r27
    2378:	71 2c       	mov	r7, r1
    237a:	6c 0e       	add	r6, r28
    237c:	7d 1e       	adc	r7, r29
		    nrf24l01_irq_clear_all(); //clear all interrupts in the 24L01 
			//nordic_data[1] = '\0';

		//printf("%s\n\r", nordic_data);
			disassemble_bytepacket(nordic_data, &datatype, (void*)&datanumber,
    237e:	ae e0       	ldi	r26, 0x0E	; 14
    2380:	2a 2e       	mov	r2, r26
    2382:	31 2c       	mov	r3, r1
    2384:	2c 0e       	add	r2, r28
    2386:	3d 1e       	adc	r3, r29
    2388:	2e 01       	movw	r4, r28
    238a:	08 94       	sec
    238c:	41 1c       	adc	r4, r1
    238e:	51 1c       	adc	r5, r1
	printf("SYSTEM INITIALIZED\n\r");
 

	while(1) {

		if ((pgm_state == CONNECT_SCR) || (pc_mode == 1)) {
    2390:	80 91 39 05 	lds	r24, 0x0539
    2394:	85 30       	cpi	r24, 0x05	; 5
    2396:	a1 f0       	breq	.+40     	; 0x23c0 <main+0x140>
    2398:	80 91 37 05 	lds	r24, 0x0537
    239c:	90 91 38 05 	lds	r25, 0x0538
    23a0:	01 97       	sbiw	r24, 0x01	; 1
    23a2:	09 f0       	breq	.+2      	; 0x23a6 <main+0x126>
    23a4:	b3 c1       	rjmp	.+870    	; 0x270c <main+0x48c>
    23a6:	0c c0       	rjmp	.+24     	; 0x23c0 <main+0x140>
//		if (pc_mode == 1) {
		//for(volatile uint16_t i=0; i<5000; i++);
		//printf("TENG IS AWESOME\n\r");
			while ((!(nrf24l01_irq_pin_active() && nrf24l01_irq_rx_dr_active()))) {
				update_encoder(max,pgm_state);
    23a8:	60 91 3e 05 	lds	r22, 0x053E
    23ac:	70 91 3f 05 	lds	r23, 0x053F
    23b0:	80 91 40 05 	lds	r24, 0x0540
    23b4:	90 91 41 05 	lds	r25, 0x0541
    23b8:	40 91 39 05 	lds	r20, 0x0539
    23bc:	0e 94 8e 1a 	call	0x351c	; 0x351c <update_encoder>

		if ((pgm_state == CONNECT_SCR) || (pc_mode == 1)) {
//		if (pc_mode == 1) {
		//for(volatile uint16_t i=0; i<5000; i++);
		//printf("TENG IS AWESOME\n\r");
			while ((!(nrf24l01_irq_pin_active() && nrf24l01_irq_rx_dr_active()))) {
    23c0:	0e 94 f4 1c 	call	0x39e8	; 0x39e8 <nrf24l01_irq_pin_active>
    23c4:	88 23       	and	r24, r24
    23c6:	81 f3       	breq	.-32     	; 0x23a8 <main+0x128>
    23c8:	0e 94 74 1d 	call	0x3ae8	; 0x3ae8 <nrf24l01_irq_rx_dr_active>
    23cc:	88 23       	and	r24, r24
    23ce:	61 f3       	breq	.-40     	; 0x23a8 <main+0x128>
				update_encoder(max,pgm_state);
			}
		    nrf24l01_read_rx_payload(nordic_data, 32); //read the packet into data 
    23d0:	c3 01       	movw	r24, r6
    23d2:	60 e2       	ldi	r22, 0x20	; 32
    23d4:	70 e0       	ldi	r23, 0x00	; 0
    23d6:	0e 94 99 1d 	call	0x3b32	; 0x3b32 <nrf24l01_read_rx_payload>
		    nrf24l01_irq_clear_all(); //clear all interrupts in the 24L01 
    23da:	0e 94 84 1f 	call	0x3f08	; 0x3f08 <nrf24l01_irq_clear_all>
			//nordic_data[1] = '\0';

		//printf("%s\n\r", nordic_data);
			disassemble_bytepacket(nordic_data, &datatype, (void*)&datanumber,
    23de:	c3 01       	movw	r24, r6
    23e0:	b2 01       	movw	r22, r4
    23e2:	ae 01       	movw	r20, r28
    23e4:	4e 5f       	subi	r20, 0xFE	; 254
    23e6:	5f 4f       	sbci	r21, 0xFF	; 255
    23e8:	9e 01       	movw	r18, r28
    23ea:	2a 5e       	subi	r18, 0xEA	; 234
    23ec:	3f 4f       	sbci	r19, 0xFF	; 255
    23ee:	0c e0       	ldi	r16, 0x0C	; 12
    23f0:	10 e0       	ldi	r17, 0x00	; 0
    23f2:	f6 e0       	ldi	r31, 0x06	; 6
    23f4:	ef 2e       	mov	r14, r31
    23f6:	f1 2c       	mov	r15, r1
    23f8:	ec 0e       	add	r14, r28
    23fa:	fd 1e       	adc	r15, r29
    23fc:	e8 e0       	ldi	r30, 0x08	; 8
    23fe:	ce 2e       	mov	r12, r30
    2400:	d1 2c       	mov	r13, r1
    2402:	51 01       	movw	r10, r2
    2404:	b8 e0       	ldi	r27, 0x08	; 8
    2406:	8b 2e       	mov	r8, r27
    2408:	91 2c       	mov	r9, r1
    240a:	0e 94 e1 0f 	call	0x1fc2	; 0x1fc2 <disassemble_bytepacket>
			//	pgm_state = CONNECT_SCR;
			//	update_gui();
			//}			


			if(datatype == 0) {
    240e:	89 81       	ldd	r24, Y+1	; 0x01
    2410:	88 23       	and	r24, r24
    2412:	09 f0       	breq	.+2      	; 0x2416 <main+0x196>
    2414:	84 c0       	rjmp	.+264    	; 0x251e <main+0x29e>

				disassemble_bytepacket(nordic_data, &datatype, (void*)&datanumber,
    2416:	c3 01       	movw	r24, r6
    2418:	b2 01       	movw	r22, r4
    241a:	ae 01       	movw	r20, r28
    241c:	4e 5f       	subi	r20, 0xFE	; 254
    241e:	5f 4f       	sbci	r21, 0xFF	; 255
    2420:	9e 01       	movw	r18, r28
    2422:	2a 5e       	subi	r18, 0xEA	; 234
    2424:	3f 4f       	sbci	r19, 0xFF	; 255
    2426:	a6 e0       	ldi	r26, 0x06	; 6
    2428:	ea 2e       	mov	r14, r26
    242a:	f1 2c       	mov	r15, r1
    242c:	ec 0e       	add	r14, r28
    242e:	fd 1e       	adc	r15, r29
    2430:	0e 94 e1 0f 	call	0x1fc2	; 0x1fc2 <disassemble_bytepacket>
								(void*)gyrodata, 4*sizeof(uint16_t));
//				printf("%d#F:%.4f:%.4f:%.4f#A#X:%dY:%dZ:%dT:%d#G#X:%dY:%dZ:%dT%d\n\r",(unsigned int)datanumber, vertical_data[0],vertical_data[1],vertical_data[2],bmadata[0],bmadata[1],bmadata[2],bmadata[3],gyrodata[0],gyrodata[1],gyrodata[2],gyrodata[3]);
//				printf("%d#F:%.4f:%.4f:%.4f\n\r",(unsigned int)datanumber, vertical_data[0],vertical_data[1],vertical_data[2]);
				//if (pc_mode) {
					// acc angle, gyro angle, kalman angle
					printf("%d:A%.4f,B%.4f,C%.4f,S123\r\n",(unsigned int)datanumber, vertical_data[0],vertical_data[1],vertical_data[2]);
    2434:	8d b7       	in	r24, 0x3d	; 61
    2436:	9e b7       	in	r25, 0x3e	; 62
    2438:	40 97       	sbiw	r24, 0x10	; 16
    243a:	0f b6       	in	r0, 0x3f	; 63
    243c:	f8 94       	cli
    243e:	9e bf       	out	0x3e, r25	; 62
    2440:	0f be       	out	0x3f, r0	; 63
    2442:	8d bf       	out	0x3d, r24	; 61
    2444:	ed b7       	in	r30, 0x3d	; 61
    2446:	fe b7       	in	r31, 0x3e	; 62
    2448:	31 96       	adiw	r30, 0x01	; 1
    244a:	88 e2       	ldi	r24, 0x28	; 40
    244c:	91 e0       	ldi	r25, 0x01	; 1
    244e:	ad b7       	in	r26, 0x3d	; 61
    2450:	be b7       	in	r27, 0x3e	; 62
    2452:	12 96       	adiw	r26, 0x02	; 2
    2454:	9c 93       	st	X, r25
    2456:	8e 93       	st	-X, r24
    2458:	11 97       	sbiw	r26, 0x01	; 1
    245a:	8a 81       	ldd	r24, Y+2	; 0x02
    245c:	9b 81       	ldd	r25, Y+3	; 0x03
    245e:	93 83       	std	Z+3, r25	; 0x03
    2460:	82 83       	std	Z+2, r24	; 0x02
    2462:	8e 89       	ldd	r24, Y+22	; 0x16
    2464:	9f 89       	ldd	r25, Y+23	; 0x17
    2466:	a8 8d       	ldd	r26, Y+24	; 0x18
    2468:	b9 8d       	ldd	r27, Y+25	; 0x19
    246a:	84 83       	std	Z+4, r24	; 0x04
    246c:	95 83       	std	Z+5, r25	; 0x05
    246e:	a6 83       	std	Z+6, r26	; 0x06
    2470:	b7 83       	std	Z+7, r27	; 0x07
    2472:	8a 8d       	ldd	r24, Y+26	; 0x1a
    2474:	9b 8d       	ldd	r25, Y+27	; 0x1b
    2476:	ac 8d       	ldd	r26, Y+28	; 0x1c
    2478:	bd 8d       	ldd	r27, Y+29	; 0x1d
    247a:	80 87       	std	Z+8, r24	; 0x08
    247c:	91 87       	std	Z+9, r25	; 0x09
    247e:	a2 87       	std	Z+10, r26	; 0x0a
    2480:	b3 87       	std	Z+11, r27	; 0x0b
    2482:	8e 8d       	ldd	r24, Y+30	; 0x1e
    2484:	9f 8d       	ldd	r25, Y+31	; 0x1f
    2486:	a8 a1       	ldd	r26, Y+32	; 0x20
    2488:	b9 a1       	ldd	r27, Y+33	; 0x21
    248a:	84 87       	std	Z+12, r24	; 0x0c
    248c:	95 87       	std	Z+13, r25	; 0x0d
    248e:	a6 87       	std	Z+14, r26	; 0x0e
    2490:	b7 87       	std	Z+15, r27	; 0x0f
    2492:	0e 94 10 2a 	call	0x5420	; 0x5420 <printf>
					// acc x,y,z
					printf("%d:D%d,E%d,F%d\r\n",(unsigned int)datanumber, bmadata[0],bmadata[1],bmadata[2]);
    2496:	ad b7       	in	r26, 0x3d	; 61
    2498:	be b7       	in	r27, 0x3e	; 62
    249a:	16 96       	adiw	r26, 0x06	; 6
    249c:	0f b6       	in	r0, 0x3f	; 63
    249e:	f8 94       	cli
    24a0:	be bf       	out	0x3e, r27	; 62
    24a2:	0f be       	out	0x3f, r0	; 63
    24a4:	ad bf       	out	0x3d, r26	; 61
    24a6:	ed b7       	in	r30, 0x3d	; 61
    24a8:	fe b7       	in	r31, 0x3e	; 62
    24aa:	31 96       	adiw	r30, 0x01	; 1
    24ac:	84 e4       	ldi	r24, 0x44	; 68
    24ae:	91 e0       	ldi	r25, 0x01	; 1
    24b0:	12 96       	adiw	r26, 0x02	; 2
    24b2:	9c 93       	st	X, r25
    24b4:	8e 93       	st	-X, r24
    24b6:	11 97       	sbiw	r26, 0x01	; 1
    24b8:	8a 81       	ldd	r24, Y+2	; 0x02
    24ba:	9b 81       	ldd	r25, Y+3	; 0x03
    24bc:	93 83       	std	Z+3, r25	; 0x03
    24be:	82 83       	std	Z+2, r24	; 0x02
    24c0:	8e 81       	ldd	r24, Y+6	; 0x06
    24c2:	9f 81       	ldd	r25, Y+7	; 0x07
    24c4:	95 83       	std	Z+5, r25	; 0x05
    24c6:	84 83       	std	Z+4, r24	; 0x04
    24c8:	88 85       	ldd	r24, Y+8	; 0x08
    24ca:	99 85       	ldd	r25, Y+9	; 0x09
    24cc:	97 83       	std	Z+7, r25	; 0x07
    24ce:	86 83       	std	Z+6, r24	; 0x06
    24d0:	8a 85       	ldd	r24, Y+10	; 0x0a
    24d2:	9b 85       	ldd	r25, Y+11	; 0x0b
    24d4:	91 87       	std	Z+9, r25	; 0x09
    24d6:	80 87       	std	Z+8, r24	; 0x08
    24d8:	0e 94 10 2a 	call	0x5420	; 0x5420 <printf>
					// gyro x, y, z
					printf("%d:G%d,H%d,I%d\r\n",(unsigned int)datanumber, gyrodata[0],gyrodata[1],gyrodata[2]);
    24dc:	ed b7       	in	r30, 0x3d	; 61
    24de:	fe b7       	in	r31, 0x3e	; 62
    24e0:	31 96       	adiw	r30, 0x01	; 1
    24e2:	85 e5       	ldi	r24, 0x55	; 85
    24e4:	91 e0       	ldi	r25, 0x01	; 1
    24e6:	ad b7       	in	r26, 0x3d	; 61
    24e8:	be b7       	in	r27, 0x3e	; 62
    24ea:	12 96       	adiw	r26, 0x02	; 2
    24ec:	9c 93       	st	X, r25
    24ee:	8e 93       	st	-X, r24
    24f0:	11 97       	sbiw	r26, 0x01	; 1
    24f2:	8a 81       	ldd	r24, Y+2	; 0x02
    24f4:	9b 81       	ldd	r25, Y+3	; 0x03
    24f6:	93 83       	std	Z+3, r25	; 0x03
    24f8:	82 83       	std	Z+2, r24	; 0x02
    24fa:	8e 85       	ldd	r24, Y+14	; 0x0e
    24fc:	9f 85       	ldd	r25, Y+15	; 0x0f
    24fe:	95 83       	std	Z+5, r25	; 0x05
    2500:	84 83       	std	Z+4, r24	; 0x04
    2502:	88 89       	ldd	r24, Y+16	; 0x10
    2504:	99 89       	ldd	r25, Y+17	; 0x11
    2506:	97 83       	std	Z+7, r25	; 0x07
    2508:	86 83       	std	Z+6, r24	; 0x06
    250a:	8a 89       	ldd	r24, Y+18	; 0x12
    250c:	9b 89       	ldd	r25, Y+19	; 0x13
    250e:	91 87       	std	Z+9, r25	; 0x09
    2510:	80 87       	std	Z+8, r24	; 0x08
    2512:	0e 94 10 2a 	call	0x5420	; 0x5420 <printf>
    2516:	ad b7       	in	r26, 0x3d	; 61
    2518:	be b7       	in	r27, 0x3e	; 62
    251a:	1a 96       	adiw	r26, 0x0a	; 10
    251c:	56 c0       	rjmp	.+172    	; 0x25ca <main+0x34a>
				//}

			}
			else if (datatype == 1) {
    251e:	81 30       	cpi	r24, 0x01	; 1
    2520:	09 f0       	breq	.+2      	; 0x2524 <main+0x2a4>
    2522:	59 c0       	rjmp	.+178    	; 0x25d6 <main+0x356>

				disassemble_bytepacket(nordic_data, &datatype, (void*)&datanumber,
    2524:	c3 01       	movw	r24, r6
    2526:	b2 01       	movw	r22, r4
    2528:	ae 01       	movw	r20, r28
    252a:	4e 5f       	subi	r20, 0xFE	; 254
    252c:	5f 4f       	sbci	r21, 0xFF	; 255
    252e:	2a e8       	ldi	r18, 0x8A	; 138
    2530:	3e e0       	ldi	r19, 0x0E	; 14
    2532:	0c e0       	ldi	r16, 0x0C	; 12
    2534:	10 e0       	ldi	r17, 0x00	; 0
    2536:	f6 e0       	ldi	r31, 0x06	; 6
    2538:	ef 2e       	mov	r14, r31
    253a:	f1 2c       	mov	r15, r1
    253c:	ec 0e       	add	r14, r28
    253e:	fd 1e       	adc	r15, r29
    2540:	cc 24       	eor	r12, r12
    2542:	dd 24       	eor	r13, r13
    2544:	51 01       	movw	r10, r2
    2546:	88 24       	eor	r8, r8
    2548:	99 24       	eor	r9, r9
    254a:	0e 94 e1 0f 	call	0x1fc2	; 0x1fc2 <disassemble_bytepacket>
									(void*)yaxis_n, 3*sizeof(float),
									(void*)bmadata, 0,
									(void*)gyrodata, 0);

				//if (pc_mode) {
					printf("%d:J%.4f,K%.4f,L%.4f,Z123\r\n",(unsigned int)datanumber, yaxis_n[0], yaxis_n[1], yaxis_n[2]);
    254e:	ed b7       	in	r30, 0x3d	; 61
    2550:	fe b7       	in	r31, 0x3e	; 62
    2552:	70 97       	sbiw	r30, 0x10	; 16
    2554:	0f b6       	in	r0, 0x3f	; 63
    2556:	f8 94       	cli
    2558:	fe bf       	out	0x3e, r31	; 62
    255a:	0f be       	out	0x3f, r0	; 63
    255c:	ed bf       	out	0x3d, r30	; 61
    255e:	31 96       	adiw	r30, 0x01	; 1
    2560:	86 e6       	ldi	r24, 0x66	; 102
    2562:	91 e0       	ldi	r25, 0x01	; 1
    2564:	ad b7       	in	r26, 0x3d	; 61
    2566:	be b7       	in	r27, 0x3e	; 62
    2568:	12 96       	adiw	r26, 0x02	; 2
    256a:	9c 93       	st	X, r25
    256c:	8e 93       	st	-X, r24
    256e:	11 97       	sbiw	r26, 0x01	; 1
    2570:	8a 81       	ldd	r24, Y+2	; 0x02
    2572:	9b 81       	ldd	r25, Y+3	; 0x03
    2574:	93 83       	std	Z+3, r25	; 0x03
    2576:	82 83       	std	Z+2, r24	; 0x02
    2578:	80 91 8a 0e 	lds	r24, 0x0E8A
    257c:	90 91 8b 0e 	lds	r25, 0x0E8B
    2580:	a0 91 8c 0e 	lds	r26, 0x0E8C
    2584:	b0 91 8d 0e 	lds	r27, 0x0E8D
    2588:	84 83       	std	Z+4, r24	; 0x04
    258a:	95 83       	std	Z+5, r25	; 0x05
    258c:	a6 83       	std	Z+6, r26	; 0x06
    258e:	b7 83       	std	Z+7, r27	; 0x07
    2590:	80 91 8e 0e 	lds	r24, 0x0E8E
    2594:	90 91 8f 0e 	lds	r25, 0x0E8F
    2598:	a0 91 90 0e 	lds	r26, 0x0E90
    259c:	b0 91 91 0e 	lds	r27, 0x0E91
    25a0:	80 87       	std	Z+8, r24	; 0x08
    25a2:	91 87       	std	Z+9, r25	; 0x09
    25a4:	a2 87       	std	Z+10, r26	; 0x0a
    25a6:	b3 87       	std	Z+11, r27	; 0x0b
    25a8:	80 91 92 0e 	lds	r24, 0x0E92
    25ac:	90 91 93 0e 	lds	r25, 0x0E93
    25b0:	a0 91 94 0e 	lds	r26, 0x0E94
    25b4:	b0 91 95 0e 	lds	r27, 0x0E95
    25b8:	84 87       	std	Z+12, r24	; 0x0c
    25ba:	95 87       	std	Z+13, r25	; 0x0d
    25bc:	a6 87       	std	Z+14, r26	; 0x0e
    25be:	b7 87       	std	Z+15, r27	; 0x0f
    25c0:	0e 94 10 2a 	call	0x5420	; 0x5420 <printf>
    25c4:	ad b7       	in	r26, 0x3d	; 61
    25c6:	be b7       	in	r27, 0x3e	; 62
    25c8:	50 96       	adiw	r26, 0x10	; 16
    25ca:	0f b6       	in	r0, 0x3f	; 63
    25cc:	f8 94       	cli
    25ce:	be bf       	out	0x3e, r27	; 62
    25d0:	0f be       	out	0x3f, r0	; 63
    25d2:	ad bf       	out	0x3d, r26	; 61
    25d4:	9b c0       	rjmp	.+310    	; 0x270c <main+0x48c>
				//}

			}
			else if (datatype == 2) {
    25d6:	82 30       	cpi	r24, 0x02	; 2
    25d8:	09 f0       	breq	.+2      	; 0x25dc <main+0x35c>
    25da:	98 c0       	rjmp	.+304    	; 0x270c <main+0x48c>
				disassemble_bytepacket(nordic_data, &datatype, (void*)&datanumber,
    25dc:	c3 01       	movw	r24, r6
    25de:	b2 01       	movw	r22, r4
    25e0:	ae 01       	movw	r20, r28
    25e2:	4e 5f       	subi	r20, 0xFE	; 254
    25e4:	5f 4f       	sbci	r21, 0xFF	; 255
    25e6:	2e e7       	ldi	r18, 0x7E	; 126
    25e8:	3e e0       	ldi	r19, 0x0E	; 14
    25ea:	0c e0       	ldi	r16, 0x0C	; 12
    25ec:	10 e0       	ldi	r17, 0x00	; 0
    25ee:	e6 e0       	ldi	r30, 0x06	; 6
    25f0:	ee 2e       	mov	r14, r30
    25f2:	f1 2c       	mov	r15, r1
    25f4:	ec 0e       	add	r14, r28
    25f6:	fd 1e       	adc	r15, r29
    25f8:	cc 24       	eor	r12, r12
    25fa:	dd 24       	eor	r13, r13
    25fc:	51 01       	movw	r10, r2
    25fe:	88 24       	eor	r8, r8
    2600:	99 24       	eor	r9, r9
    2602:	0e 94 e1 0f 	call	0x1fc2	; 0x1fc2 <disassemble_bytepacket>
									(void*)yaxis_max, 3*sizeof(float),
									(void*)bmadata, 0,
									(void*)gyrodata, 0);

				//if (pc_mode) {
					printf("%d:M%.4f,N%.4f,P%.4f,Z123\r\n",(unsigned int)datanumber, yaxis_max[0], yaxis_max[1], yaxis_max[2]);
    2606:	ed b7       	in	r30, 0x3d	; 61
    2608:	fe b7       	in	r31, 0x3e	; 62
    260a:	70 97       	sbiw	r30, 0x10	; 16
    260c:	0f b6       	in	r0, 0x3f	; 63
    260e:	f8 94       	cli
    2610:	fe bf       	out	0x3e, r31	; 62
    2612:	0f be       	out	0x3f, r0	; 63
    2614:	ed bf       	out	0x3d, r30	; 61
    2616:	31 96       	adiw	r30, 0x01	; 1
    2618:	82 e8       	ldi	r24, 0x82	; 130
    261a:	91 e0       	ldi	r25, 0x01	; 1
    261c:	ad b7       	in	r26, 0x3d	; 61
    261e:	be b7       	in	r27, 0x3e	; 62
    2620:	12 96       	adiw	r26, 0x02	; 2
    2622:	9c 93       	st	X, r25
    2624:	8e 93       	st	-X, r24
    2626:	11 97       	sbiw	r26, 0x01	; 1
    2628:	8a 81       	ldd	r24, Y+2	; 0x02
    262a:	9b 81       	ldd	r25, Y+3	; 0x03
    262c:	93 83       	std	Z+3, r25	; 0x03
    262e:	82 83       	std	Z+2, r24	; 0x02
    2630:	80 91 7e 0e 	lds	r24, 0x0E7E
    2634:	90 91 7f 0e 	lds	r25, 0x0E7F
    2638:	a0 91 80 0e 	lds	r26, 0x0E80
    263c:	b0 91 81 0e 	lds	r27, 0x0E81
    2640:	84 83       	std	Z+4, r24	; 0x04
    2642:	95 83       	std	Z+5, r25	; 0x05
    2644:	a6 83       	std	Z+6, r26	; 0x06
    2646:	b7 83       	std	Z+7, r27	; 0x07
    2648:	80 91 82 0e 	lds	r24, 0x0E82
    264c:	90 91 83 0e 	lds	r25, 0x0E83
    2650:	a0 91 84 0e 	lds	r26, 0x0E84
    2654:	b0 91 85 0e 	lds	r27, 0x0E85
    2658:	80 87       	std	Z+8, r24	; 0x08
    265a:	91 87       	std	Z+9, r25	; 0x09
    265c:	a2 87       	std	Z+10, r26	; 0x0a
    265e:	b3 87       	std	Z+11, r27	; 0x0b
    2660:	80 91 86 0e 	lds	r24, 0x0E86
    2664:	90 91 87 0e 	lds	r25, 0x0E87
    2668:	a0 91 88 0e 	lds	r26, 0x0E88
    266c:	b0 91 89 0e 	lds	r27, 0x0E89
    2670:	84 87       	std	Z+12, r24	; 0x0c
    2672:	95 87       	std	Z+13, r25	; 0x0d
    2674:	a6 87       	std	Z+14, r26	; 0x0e
    2676:	b7 87       	std	Z+15, r27	; 0x0f
    2678:	0e 94 10 2a 	call	0x5420	; 0x5420 <printf>
					printf("&&&&&&&&&&&&&&&&&&&&&\r\n");
    267c:	ad b7       	in	r26, 0x3d	; 61
    267e:	be b7       	in	r27, 0x3e	; 62
    2680:	50 96       	adiw	r26, 0x10	; 16
    2682:	0f b6       	in	r0, 0x3f	; 63
    2684:	f8 94       	cli
    2686:	be bf       	out	0x3e, r27	; 62
    2688:	0f be       	out	0x3f, r0	; 63
    268a:	ad bf       	out	0x3d, r26	; 61
    268c:	8e e9       	ldi	r24, 0x9E	; 158
    268e:	91 e0       	ldi	r25, 0x01	; 1
    2690:	0e 94 25 2a 	call	0x544a	; 0x544a <puts>
					printf("&&&&&&&&&&&&&&&&&&&&&\r\n");
    2694:	8e e9       	ldi	r24, 0x9E	; 158
    2696:	91 e0       	ldi	r25, 0x01	; 1
    2698:	0e 94 25 2a 	call	0x544a	; 0x544a <puts>
					printf("&&&&&&&&&&&&&&&&&&&&&\r\n");
    269c:	8e e9       	ldi	r24, 0x9E	; 158
    269e:	91 e0       	ldi	r25, 0x01	; 1
    26a0:	0e 94 25 2a 	call	0x544a	; 0x544a <puts>
					printf("&&&&&&&&&&&&&&&&&&&&&\r\n");
    26a4:	8e e9       	ldi	r24, 0x9E	; 158
    26a6:	91 e0       	ldi	r25, 0x01	; 1
    26a8:	0e 94 25 2a 	call	0x544a	; 0x544a <puts>
					printf("&&&&&&&&&&&&&&&&&&&&&\r\n");
    26ac:	8e e9       	ldi	r24, 0x9E	; 158
    26ae:	91 e0       	ldi	r25, 0x01	; 1
    26b0:	0e 94 25 2a 	call	0x544a	; 0x544a <puts>
					printf("&&&&&&&&&&&&&&&&&&&&&\r\n");
    26b4:	8e e9       	ldi	r24, 0x9E	; 158
    26b6:	91 e0       	ldi	r25, 0x01	; 1
    26b8:	0e 94 25 2a 	call	0x544a	; 0x544a <puts>
					printf("&&&&&&&&&&&&&&&&&&&&&\r\n");
    26bc:	8e e9       	ldi	r24, 0x9E	; 158
    26be:	91 e0       	ldi	r25, 0x01	; 1
    26c0:	0e 94 25 2a 	call	0x544a	; 0x544a <puts>
					printf("&&&&&&&&&&&&&&&&&&&&&\r\n");
    26c4:	8e e9       	ldi	r24, 0x9E	; 158
    26c6:	91 e0       	ldi	r25, 0x01	; 1
    26c8:	0e 94 25 2a 	call	0x544a	; 0x544a <puts>
					printf("&&&&&&&&&&&&&&&&&&&&&\r\n");
    26cc:	8e e9       	ldi	r24, 0x9E	; 158
    26ce:	91 e0       	ldi	r25, 0x01	; 1
    26d0:	0e 94 25 2a 	call	0x544a	; 0x544a <puts>
					printf("&&&&&&&&&&&&&&&&&&&&&\r\n");
    26d4:	8e e9       	ldi	r24, 0x9E	; 158
    26d6:	91 e0       	ldi	r25, 0x01	; 1
    26d8:	0e 94 25 2a 	call	0x544a	; 0x544a <puts>
					printf("&&&&&&&&&&&&&&&&&&&&&\r\n");
    26dc:	8e e9       	ldi	r24, 0x9E	; 158
    26de:	91 e0       	ldi	r25, 0x01	; 1
    26e0:	0e 94 25 2a 	call	0x544a	; 0x544a <puts>
					printf("&&&&&&&&&&&&&&&&&&&&&\r\n");
    26e4:	8e e9       	ldi	r24, 0x9E	; 158
    26e6:	91 e0       	ldi	r25, 0x01	; 1
    26e8:	0e 94 25 2a 	call	0x544a	; 0x544a <puts>
					printf("&&&&&&&&&&&&&&&&&&&&&\r\n");
    26ec:	8e e9       	ldi	r24, 0x9E	; 158
    26ee:	91 e0       	ldi	r25, 0x01	; 1
    26f0:	0e 94 25 2a 	call	0x544a	; 0x544a <puts>
				//}

				pgm_state = SUMMARY_SCR;
    26f4:	b6 e0       	ldi	r27, 0x06	; 6
    26f6:	b0 93 39 05 	sts	0x0539, r27
				ks0108ClearScreen()
    26fa:	80 e0       	ldi	r24, 0x00	; 0
    26fc:	60 e0       	ldi	r22, 0x00	; 0
    26fe:	4f e7       	ldi	r20, 0x7F	; 127
    2700:	2f e3       	ldi	r18, 0x3F	; 63
    2702:	00 e0       	ldi	r16, 0x00	; 0
    2704:	0e 94 e4 0c 	call	0x19c8	; 0x19c8 <ks0108FillRect>
				update_gui();
    2708:	0e 94 49 10 	call	0x2092	; 0x2092 <update_gui>
			}
		}
			

		// respond to encoder movements
		update_encoder(max,pgm_state);
    270c:	60 91 3e 05 	lds	r22, 0x053E
    2710:	70 91 3f 05 	lds	r23, 0x053F
    2714:	80 91 40 05 	lds	r24, 0x0540
    2718:	90 91 41 05 	lds	r25, 0x0541
    271c:	40 91 39 05 	lds	r20, 0x0539
    2720:	0e 94 8e 1a 	call	0x351c	; 0x351c <update_encoder>
    2724:	35 ce       	rjmp	.-918    	; 0x2390 <main+0x110>

00002726 <__vector_8>:
// encoder A change
ISR(INT4_vect) {
	encoder_logic();
}
// encoder B change
ISR(INT7_vect) {
    2726:	1f 92       	push	r1
    2728:	0f 92       	push	r0
    272a:	0f b6       	in	r0, 0x3f	; 63
    272c:	0f 92       	push	r0
    272e:	11 24       	eor	r1, r1
    2730:	2f 93       	push	r18
    2732:	3f 93       	push	r19
    2734:	4f 93       	push	r20
    2736:	5f 93       	push	r21
    2738:	6f 93       	push	r22
    273a:	7f 93       	push	r23
    273c:	8f 93       	push	r24
    273e:	9f 93       	push	r25
    2740:	af 93       	push	r26
    2742:	bf 93       	push	r27
    2744:	ef 93       	push	r30
    2746:	ff 93       	push	r31
	encoder_logic();
    2748:	0e 94 49 15 	call	0x2a92	; 0x2a92 <encoder_logic>
}
    274c:	ff 91       	pop	r31
    274e:	ef 91       	pop	r30
    2750:	bf 91       	pop	r27
    2752:	af 91       	pop	r26
    2754:	9f 91       	pop	r25
    2756:	8f 91       	pop	r24
    2758:	7f 91       	pop	r23
    275a:	6f 91       	pop	r22
    275c:	5f 91       	pop	r21
    275e:	4f 91       	pop	r20
    2760:	3f 91       	pop	r19
    2762:	2f 91       	pop	r18
    2764:	0f 90       	pop	r0
    2766:	0f be       	out	0x3f, r0	; 63
    2768:	0f 90       	pop	r0
    276a:	1f 90       	pop	r1
    276c:	18 95       	reti

0000276e <__vector_5>:
{
	tenms++;
}

// encoder A change
ISR(INT4_vect) {
    276e:	1f 92       	push	r1
    2770:	0f 92       	push	r0
    2772:	0f b6       	in	r0, 0x3f	; 63
    2774:	0f 92       	push	r0
    2776:	11 24       	eor	r1, r1
    2778:	2f 93       	push	r18
    277a:	3f 93       	push	r19
    277c:	4f 93       	push	r20
    277e:	5f 93       	push	r21
    2780:	6f 93       	push	r22
    2782:	7f 93       	push	r23
    2784:	8f 93       	push	r24
    2786:	9f 93       	push	r25
    2788:	af 93       	push	r26
    278a:	bf 93       	push	r27
    278c:	ef 93       	push	r30
    278e:	ff 93       	push	r31
	encoder_logic();
    2790:	0e 94 49 15 	call	0x2a92	; 0x2a92 <encoder_logic>
}
    2794:	ff 91       	pop	r31
    2796:	ef 91       	pop	r30
    2798:	bf 91       	pop	r27
    279a:	af 91       	pop	r26
    279c:	9f 91       	pop	r25
    279e:	8f 91       	pop	r24
    27a0:	7f 91       	pop	r23
    27a2:	6f 91       	pop	r22
    27a4:	5f 91       	pop	r21
    27a6:	4f 91       	pop	r20
    27a8:	3f 91       	pop	r19
    27aa:	2f 91       	pop	r18
    27ac:	0f 90       	pop	r0
    27ae:	0f be       	out	0x3f, r0	; 63
    27b0:	0f 90       	pop	r0
    27b2:	1f 90       	pop	r1
    27b4:	18 95       	reti

000027b6 <__vector_18>:
SIGNAL(UART0_RECEIVE_INTERRUPT)
/*************************************************************************
Function: UART Receive Complete interrupt
Purpose:  called when the UART has received a character
**************************************************************************/
{
    27b6:	1f 92       	push	r1
    27b8:	0f 92       	push	r0
    27ba:	0f b6       	in	r0, 0x3f	; 63
    27bc:	0f 92       	push	r0
    27be:	11 24       	eor	r1, r1
    27c0:	2f 93       	push	r18
    27c2:	8f 93       	push	r24
    27c4:	9f 93       	push	r25
    27c6:	ef 93       	push	r30
    27c8:	ff 93       	push	r31
    unsigned char usr;
    unsigned char lastRxError;
 
 
    /* read UART status register and UART data register */ 
    usr  = UART0_STATUS;
    27ca:	9b b1       	in	r25, 0x0b	; 11
    data = UART0_DATA;
    27cc:	2c b1       	in	r18, 0x0c	; 12
#elif defined ( ATMEGA_UART )
    lastRxError = (usr & (_BV(FE)|_BV(DOR)) );
#endif
        
    /* calculate buffer index */ 
    tmphead = ( UART_RxHead + 1) & UART_RX_BUFFER_MASK;
    27ce:	e0 91 e8 05 	lds	r30, 0x05E8
    27d2:	ef 5f       	subi	r30, 0xFF	; 255
    27d4:	ef 71       	andi	r30, 0x1F	; 31
    
    if ( tmphead == UART_RxTail ) {
    27d6:	80 91 e9 05 	lds	r24, 0x05E9
    27da:	e8 17       	cp	r30, r24
    27dc:	11 f4       	brne	.+4      	; 0x27e2 <__vector_18+0x2c>
    27de:	82 e0       	ldi	r24, 0x02	; 2
    27e0:	08 c0       	rjmp	.+16     	; 0x27f2 <__vector_18+0x3c>
#if defined( AT90_UART )
    lastRxError = (usr & (_BV(FE)|_BV(DOR)) );
#elif defined( ATMEGA_USART )
    lastRxError = (usr & (_BV(FE)|_BV(DOR)) );
#elif defined( ATMEGA_USART0 )
    lastRxError = (usr & (_BV(FE0)|_BV(DOR0)) );
    27e2:	89 2f       	mov	r24, r25
    27e4:	88 71       	andi	r24, 0x18	; 24
    if ( tmphead == UART_RxTail ) {
        /* error: receive buffer overflow */
        lastRxError = UART_BUFFER_OVERFLOW >> 8;
    }else{
        /* store new index */
        UART_RxHead = tmphead;
    27e6:	e0 93 e8 05 	sts	0x05E8, r30
        /* store received data in buffer */
        UART_RxBuf[tmphead] = data;
    27ea:	f0 e0       	ldi	r31, 0x00	; 0
    27ec:	ea 53       	subi	r30, 0x3A	; 58
    27ee:	fa 4f       	sbci	r31, 0xFA	; 250
    27f0:	20 83       	st	Z, r18
    }
    UART_LastRxError = lastRxError;   
    27f2:	80 93 ea 05 	sts	0x05EA, r24
}
    27f6:	ff 91       	pop	r31
    27f8:	ef 91       	pop	r30
    27fa:	9f 91       	pop	r25
    27fc:	8f 91       	pop	r24
    27fe:	2f 91       	pop	r18
    2800:	0f 90       	pop	r0
    2802:	0f be       	out	0x3f, r0	; 63
    2804:	0f 90       	pop	r0
    2806:	1f 90       	pop	r1
    2808:	18 95       	reti

0000280a <__vector_19>:
SIGNAL(UART0_TRANSMIT_INTERRUPT)
/*************************************************************************
Function: UART Data Register Empty interrupt
Purpose:  called when the UART is ready to transmit the next byte
**************************************************************************/
{
    280a:	1f 92       	push	r1
    280c:	0f 92       	push	r0
    280e:	0f b6       	in	r0, 0x3f	; 63
    2810:	0f 92       	push	r0
    2812:	11 24       	eor	r1, r1
    2814:	8f 93       	push	r24
    2816:	9f 93       	push	r25
    2818:	ef 93       	push	r30
    281a:	ff 93       	push	r31
    unsigned char tmptail;

    
    if ( UART_TxHead != UART_TxTail) {
    281c:	90 91 e6 05 	lds	r25, 0x05E6
    2820:	80 91 e7 05 	lds	r24, 0x05E7
    2824:	98 17       	cp	r25, r24
    2826:	61 f0       	breq	.+24     	; 0x2840 <__vector_19+0x36>
        /* calculate and store new buffer index */
        tmptail = (UART_TxTail + 1) & UART_TX_BUFFER_MASK;
    2828:	e0 91 e7 05 	lds	r30, 0x05E7
    282c:	ef 5f       	subi	r30, 0xFF	; 255
    282e:	ef 77       	andi	r30, 0x7F	; 127
        UART_TxTail = tmptail;
    2830:	e0 93 e7 05 	sts	0x05E7, r30
        /* get one byte from buffer and write it to UART */
        UART0_DATA = UART_TxBuf[tmptail];  /* start transmission */
    2834:	f0 e0       	ldi	r31, 0x00	; 0
    2836:	ea 5b       	subi	r30, 0xBA	; 186
    2838:	fa 4f       	sbci	r31, 0xFA	; 250
    283a:	80 81       	ld	r24, Z
    283c:	8c b9       	out	0x0c, r24	; 12
    283e:	01 c0       	rjmp	.+2      	; 0x2842 <__vector_19+0x38>
    }else{
        /* tx buffer empty, disable UDRE interrupt */
        UART0_CONTROL &= ~_BV(UART0_UDRIE);
    2840:	55 98       	cbi	0x0a, 5	; 10
    }
}
    2842:	ff 91       	pop	r31
    2844:	ef 91       	pop	r30
    2846:	9f 91       	pop	r25
    2848:	8f 91       	pop	r24
    284a:	0f 90       	pop	r0
    284c:	0f be       	out	0x3f, r0	; 63
    284e:	0f 90       	pop	r0
    2850:	1f 90       	pop	r1
    2852:	18 95       	reti

00002854 <uart_init>:
Purpose:  initialize UART and set baudrate
Input:    baudrate using macro UART_BAUD_SELECT()
Returns:  none
**************************************************************************/
void uart_init(unsigned int baudrate)
{
    2854:	9c 01       	movw	r18, r24
    UART_TxHead = 0;
    2856:	10 92 e6 05 	sts	0x05E6, r1
    UART_TxTail = 0;
    285a:	10 92 e7 05 	sts	0x05E7, r1
    UART_RxHead = 0;
    285e:	10 92 e8 05 	sts	0x05E8, r1
    UART_RxTail = 0;
    2862:	10 92 e9 05 	sts	0x05E9, r1
    UCSRC = (3<<UCSZ0);
    #endif 
    
#elif defined (ATMEGA_USART0 )
    /* Set baud rate */
    if ( baudrate & 0x8000 ) 
    2866:	97 ff       	sbrs	r25, 7
    2868:	03 c0       	rjmp	.+6      	; 0x2870 <uart_init+0x1c>
    {
   		UART0_STATUS = (1<<U2X0);  //Enable 2x speed 
    286a:	82 e0       	ldi	r24, 0x02	; 2
    286c:	8b b9       	out	0x0b, r24	; 11
   		baudrate &= ~0x8000;
    286e:	3f 77       	andi	r19, 0x7F	; 127
   	}
    UBRR0H = (unsigned char)(baudrate>>8);
    2870:	30 93 90 00 	sts	0x0090, r19
    UBRR0L = (unsigned char) baudrate;
    2874:	29 b9       	out	0x09, r18	; 9

    /* Enable USART receiver and transmitter and receive complete interrupt */
    UART0_CONTROL = _BV(RXCIE0)|(1<<RXEN0)|(1<<TXEN0);
    2876:	88 e9       	ldi	r24, 0x98	; 152
    2878:	8a b9       	out	0x0a, r24	; 10
    
    /* Set frame format: asynchronous, 8data, no parity, 1stop bit */
    #ifdef URSEL0
    UCSR0C = (1<<URSEL0)|(3<<UCSZ00);
    #else
    UCSR0C = (3<<UCSZ00);
    287a:	86 e0       	ldi	r24, 0x06	; 6
    287c:	80 93 95 00 	sts	0x0095, r24
    /* Enable UART receiver and transmitter and receive complete interrupt */
    UART0_CONTROL = _BV(RXCIE)|(1<<RXEN)|(1<<TXEN);

#endif

}/* uart_init */
    2880:	08 95       	ret

00002882 <uart_getc>:
{    
    unsigned char tmptail;
    unsigned char data;


    if ( UART_RxHead == UART_RxTail ) {
    2882:	90 91 e8 05 	lds	r25, 0x05E8
    2886:	80 91 e9 05 	lds	r24, 0x05E9
    288a:	98 17       	cp	r25, r24
    288c:	19 f4       	brne	.+6      	; 0x2894 <uart_getc+0x12>
    288e:	20 e0       	ldi	r18, 0x00	; 0
    2890:	31 e0       	ldi	r19, 0x01	; 1
    2892:	12 c0       	rjmp	.+36     	; 0x28b8 <uart_getc+0x36>
        return UART_NO_DATA;   /* no data available */
    }
    
    /* calculate /store buffer index */
    tmptail = (UART_RxTail + 1) & UART_RX_BUFFER_MASK;
    2894:	e0 91 e9 05 	lds	r30, 0x05E9
    2898:	ef 5f       	subi	r30, 0xFF	; 255
    289a:	ef 71       	andi	r30, 0x1F	; 31
    UART_RxTail = tmptail; 
    289c:	e0 93 e9 05 	sts	0x05E9, r30
    
    /* get data from receive buffer */
    data = UART_RxBuf[tmptail];
    28a0:	f0 e0       	ldi	r31, 0x00	; 0
    28a2:	ea 53       	subi	r30, 0x3A	; 58
    28a4:	fa 4f       	sbci	r31, 0xFA	; 250
    28a6:	30 81       	ld	r19, Z
    
    return (UART_LastRxError << 8) + data;
    28a8:	20 91 ea 05 	lds	r18, 0x05EA
    28ac:	92 2f       	mov	r25, r18
    28ae:	80 e0       	ldi	r24, 0x00	; 0
    28b0:	ac 01       	movw	r20, r24
    28b2:	43 0f       	add	r20, r19
    28b4:	51 1d       	adc	r21, r1
    28b6:	9a 01       	movw	r18, r20

}/* uart_getc */
    28b8:	c9 01       	movw	r24, r18
    28ba:	08 95       	ret

000028bc <uart_putc>:
Purpose:  write byte to ringbuffer for transmitting via UART
Input:    byte to be transmitted
Returns:  none          
**************************************************************************/
void uart_putc(unsigned char data)
{
    28bc:	28 2f       	mov	r18, r24
    unsigned char tmphead;

    
    tmphead  = (UART_TxHead + 1) & UART_TX_BUFFER_MASK;
    28be:	90 91 e6 05 	lds	r25, 0x05E6
    28c2:	9f 5f       	subi	r25, 0xFF	; 255
    28c4:	9f 77       	andi	r25, 0x7F	; 127
    
    while ( tmphead == UART_TxTail ){
    28c6:	80 91 e7 05 	lds	r24, 0x05E7
    28ca:	98 17       	cp	r25, r24
    28cc:	e1 f3       	breq	.-8      	; 0x28c6 <uart_putc+0xa>
        ;/* wait for free space in buffer */
    }
    
    UART_TxBuf[tmphead] = data;
    28ce:	e9 2f       	mov	r30, r25
    28d0:	f0 e0       	ldi	r31, 0x00	; 0
    28d2:	ea 5b       	subi	r30, 0xBA	; 186
    28d4:	fa 4f       	sbci	r31, 0xFA	; 250
    28d6:	20 83       	st	Z, r18
    UART_TxHead = tmphead;
    28d8:	90 93 e6 05 	sts	0x05E6, r25

    /* enable UDRE interrupt */
    UART0_CONTROL    |= _BV(UART0_UDRIE);
    28dc:	55 9a       	sbi	0x0a, 5	; 10

}/* uart_putc */
    28de:	08 95       	ret

000028e0 <uart_puts>:
Purpose:  transmit string to UART
Input:    string to be transmitted
Returns:  none          
**************************************************************************/
void uart_puts(const char *s )
{
    28e0:	cf 93       	push	r28
    28e2:	df 93       	push	r29
    28e4:	ec 01       	movw	r28, r24
    28e6:	03 c0       	rjmp	.+6      	; 0x28ee <uart_puts+0xe>
    while (*s) 
      uart_putc(*s++);
    28e8:	21 96       	adiw	r28, 0x01	; 1
    28ea:	0e 94 5e 14 	call	0x28bc	; 0x28bc <uart_putc>
Input:    string to be transmitted
Returns:  none          
**************************************************************************/
void uart_puts(const char *s )
{
    while (*s) 
    28ee:	88 81       	ld	r24, Y
    28f0:	88 23       	and	r24, r24
    28f2:	d1 f7       	brne	.-12     	; 0x28e8 <uart_puts+0x8>
      uart_putc(*s++);

}/* uart_puts */
    28f4:	df 91       	pop	r29
    28f6:	cf 91       	pop	r28
    28f8:	08 95       	ret

000028fa <uart_puts_p>:
Purpose:  transmit string from program memory to UART
Input:    program memory string to be transmitted
Returns:  none
**************************************************************************/
void uart_puts_p(const char *progmem_s )
{
    28fa:	cf 93       	push	r28
    28fc:	df 93       	push	r29
    28fe:	ec 01       	movw	r28, r24
    2900:	02 c0       	rjmp	.+4      	; 0x2906 <uart_puts_p+0xc>
    register char c;
    
    while ( (c = pgm_read_byte(progmem_s++)) ) 
      uart_putc(c);
    2902:	0e 94 5e 14 	call	0x28bc	; 0x28bc <uart_putc>
    2906:	fe 01       	movw	r30, r28
**************************************************************************/
void uart_puts_p(const char *progmem_s )
{
    register char c;
    
    while ( (c = pgm_read_byte(progmem_s++)) ) 
    2908:	21 96       	adiw	r28, 0x01	; 1
    290a:	84 91       	lpm	r24, Z+
    290c:	88 23       	and	r24, r24
    290e:	c9 f7       	brne	.-14     	; 0x2902 <uart_puts_p+0x8>
      uart_putc(c);

}/* uart_puts_p */
    2910:	df 91       	pop	r29
    2912:	cf 91       	pop	r28
    2914:	08 95       	ret

00002916 <__vector_30>:
SIGNAL(UART1_RECEIVE_INTERRUPT)
/*************************************************************************
Function: UART1 Receive Complete interrupt
Purpose:  called when the UART1 has received a character
**************************************************************************/
{
    2916:	1f 92       	push	r1
    2918:	0f 92       	push	r0
    291a:	0f b6       	in	r0, 0x3f	; 63
    291c:	0f 92       	push	r0
    291e:	11 24       	eor	r1, r1
    2920:	2f 93       	push	r18
    2922:	8f 93       	push	r24
    2924:	9f 93       	push	r25
    2926:	ef 93       	push	r30
    2928:	ff 93       	push	r31
    unsigned char usr;
    unsigned char lastRxError;
 
 
    /* read UART status register and UART data register */ 
    usr  = UART1_STATUS;
    292a:	90 91 9b 00 	lds	r25, 0x009B
    data = UART1_DATA;
    292e:	20 91 9c 00 	lds	r18, 0x009C
    
    /* */
    lastRxError = (usr & (_BV(FE1)|_BV(DOR1)) );
        
    /* calculate buffer index */ 
    tmphead = ( UART1_RxHead + 1) & UART_RX_BUFFER_MASK;
    2932:	e0 91 8d 06 	lds	r30, 0x068D
    2936:	ef 5f       	subi	r30, 0xFF	; 255
    2938:	ef 71       	andi	r30, 0x1F	; 31
    
    if ( tmphead == UART1_RxTail ) {
    293a:	80 91 8e 06 	lds	r24, 0x068E
    293e:	e8 17       	cp	r30, r24
    2940:	11 f4       	brne	.+4      	; 0x2946 <__vector_30+0x30>
    2942:	82 e0       	ldi	r24, 0x02	; 2
    2944:	08 c0       	rjmp	.+16     	; 0x2956 <__vector_30+0x40>
    /* read UART status register and UART data register */ 
    usr  = UART1_STATUS;
    data = UART1_DATA;
    
    /* */
    lastRxError = (usr & (_BV(FE1)|_BV(DOR1)) );
    2946:	89 2f       	mov	r24, r25
    2948:	88 71       	andi	r24, 0x18	; 24
    if ( tmphead == UART1_RxTail ) {
        /* error: receive buffer overflow */
        lastRxError = UART_BUFFER_OVERFLOW >> 8;
    }else{
        /* store new index */
        UART1_RxHead = tmphead;
    294a:	e0 93 8d 06 	sts	0x068D, r30
        /* store received data in buffer */
        UART1_RxBuf[tmphead] = data;
    294e:	f0 e0       	ldi	r31, 0x00	; 0
    2950:	e5 59       	subi	r30, 0x95	; 149
    2952:	f9 4f       	sbci	r31, 0xF9	; 249
    2954:	20 83       	st	Z, r18
    }
    UART1_LastRxError = lastRxError;   
    2956:	80 93 8f 06 	sts	0x068F, r24
}
    295a:	ff 91       	pop	r31
    295c:	ef 91       	pop	r30
    295e:	9f 91       	pop	r25
    2960:	8f 91       	pop	r24
    2962:	2f 91       	pop	r18
    2964:	0f 90       	pop	r0
    2966:	0f be       	out	0x3f, r0	; 63
    2968:	0f 90       	pop	r0
    296a:	1f 90       	pop	r1
    296c:	18 95       	reti

0000296e <__vector_31>:
SIGNAL(UART1_TRANSMIT_INTERRUPT)
/*************************************************************************
Function: UART1 Data Register Empty interrupt
Purpose:  called when the UART1 is ready to transmit the next byte
**************************************************************************/
{
    296e:	1f 92       	push	r1
    2970:	0f 92       	push	r0
    2972:	0f b6       	in	r0, 0x3f	; 63
    2974:	0f 92       	push	r0
    2976:	11 24       	eor	r1, r1
    2978:	8f 93       	push	r24
    297a:	9f 93       	push	r25
    297c:	ef 93       	push	r30
    297e:	ff 93       	push	r31
    unsigned char tmptail;

    
    if ( UART1_TxHead != UART1_TxTail) {
    2980:	90 91 8b 06 	lds	r25, 0x068B
    2984:	80 91 8c 06 	lds	r24, 0x068C
    2988:	98 17       	cp	r25, r24
    298a:	69 f0       	breq	.+26     	; 0x29a6 <__vector_31+0x38>
        /* calculate and store new buffer index */
        tmptail = (UART1_TxTail + 1) & UART_TX_BUFFER_MASK;
    298c:	e0 91 8c 06 	lds	r30, 0x068C
    2990:	ef 5f       	subi	r30, 0xFF	; 255
    2992:	ef 77       	andi	r30, 0x7F	; 127
        UART1_TxTail = tmptail;
    2994:	e0 93 8c 06 	sts	0x068C, r30
        /* get one byte from buffer and write it to UART */
        UART1_DATA = UART1_TxBuf[tmptail];  /* start transmission */
    2998:	f0 e0       	ldi	r31, 0x00	; 0
    299a:	e5 51       	subi	r30, 0x15	; 21
    299c:	fa 4f       	sbci	r31, 0xFA	; 250
    299e:	80 81       	ld	r24, Z
    29a0:	80 93 9c 00 	sts	0x009C, r24
    29a4:	05 c0       	rjmp	.+10     	; 0x29b0 <__vector_31+0x42>
    }else{
        /* tx buffer empty, disable UDRE interrupt */
        UART1_CONTROL &= ~_BV(UART1_UDRIE);
    29a6:	80 91 9a 00 	lds	r24, 0x009A
    29aa:	8f 7d       	andi	r24, 0xDF	; 223
    29ac:	80 93 9a 00 	sts	0x009A, r24
    }
}
    29b0:	ff 91       	pop	r31
    29b2:	ef 91       	pop	r30
    29b4:	9f 91       	pop	r25
    29b6:	8f 91       	pop	r24
    29b8:	0f 90       	pop	r0
    29ba:	0f be       	out	0x3f, r0	; 63
    29bc:	0f 90       	pop	r0
    29be:	1f 90       	pop	r1
    29c0:	18 95       	reti

000029c2 <uart1_init>:
Purpose:  initialize UART1 and set baudrate
Input:    baudrate using macro UART_BAUD_SELECT()
Returns:  none
**************************************************************************/
void uart1_init(unsigned int baudrate)
{
    29c2:	9c 01       	movw	r18, r24
    UART1_TxHead = 0;
    29c4:	10 92 8b 06 	sts	0x068B, r1
    UART1_TxTail = 0;
    29c8:	10 92 8c 06 	sts	0x068C, r1
    UART1_RxHead = 0;
    29cc:	10 92 8d 06 	sts	0x068D, r1
    UART1_RxTail = 0;
    29d0:	10 92 8e 06 	sts	0x068E, r1
    

    /* Set baud rate */
    if ( baudrate & 0x8000 ) 
    29d4:	97 ff       	sbrs	r25, 7
    29d6:	04 c0       	rjmp	.+8      	; 0x29e0 <uart1_init+0x1e>
    {
    	UART1_STATUS = (1<<U2X1);  //Enable 2x speed 
    29d8:	82 e0       	ldi	r24, 0x02	; 2
    29da:	80 93 9b 00 	sts	0x009B, r24
      baudrate &= ~0x8000;
    29de:	3f 77       	andi	r19, 0x7F	; 127
    }
    UBRR1H = (unsigned char)(baudrate>>8);
    29e0:	30 93 98 00 	sts	0x0098, r19
    UBRR1L = (unsigned char) baudrate;
    29e4:	20 93 99 00 	sts	0x0099, r18

    /* Enable USART receiver and transmitter and receive complete interrupt */
    UART1_CONTROL = _BV(RXCIE1)|(1<<RXEN1)|(1<<TXEN1);
    29e8:	88 e9       	ldi	r24, 0x98	; 152
    29ea:	80 93 9a 00 	sts	0x009A, r24
    
    /* Set frame format: asynchronous, 8data, no parity, 1stop bit */   
    #ifdef URSEL1
    UCSR1C = (1<<URSEL1)|(3<<UCSZ10);
    #else
    UCSR1C = (3<<UCSZ10);
    29ee:	86 e0       	ldi	r24, 0x06	; 6
    29f0:	80 93 9d 00 	sts	0x009D, r24
    #endif 
}/* uart_init */
    29f4:	08 95       	ret

000029f6 <uart1_getc>:
{    
    unsigned char tmptail;
    unsigned char data;


    if ( UART1_RxHead == UART1_RxTail ) {
    29f6:	90 91 8d 06 	lds	r25, 0x068D
    29fa:	80 91 8e 06 	lds	r24, 0x068E
    29fe:	98 17       	cp	r25, r24
    2a00:	19 f4       	brne	.+6      	; 0x2a08 <uart1_getc+0x12>
    2a02:	20 e0       	ldi	r18, 0x00	; 0
    2a04:	31 e0       	ldi	r19, 0x01	; 1
    2a06:	12 c0       	rjmp	.+36     	; 0x2a2c <uart1_getc+0x36>
        return UART_NO_DATA;   /* no data available */
    }
    
    /* calculate /store buffer index */
    tmptail = (UART1_RxTail + 1) & UART_RX_BUFFER_MASK;
    2a08:	e0 91 8e 06 	lds	r30, 0x068E
    2a0c:	ef 5f       	subi	r30, 0xFF	; 255
    2a0e:	ef 71       	andi	r30, 0x1F	; 31
    UART1_RxTail = tmptail; 
    2a10:	e0 93 8e 06 	sts	0x068E, r30
    
    /* get data from receive buffer */
    data = UART1_RxBuf[tmptail];
    2a14:	f0 e0       	ldi	r31, 0x00	; 0
    2a16:	e5 59       	subi	r30, 0x95	; 149
    2a18:	f9 4f       	sbci	r31, 0xF9	; 249
    2a1a:	30 81       	ld	r19, Z
    
    return (UART1_LastRxError << 8) + data;
    2a1c:	20 91 8f 06 	lds	r18, 0x068F
    2a20:	92 2f       	mov	r25, r18
    2a22:	80 e0       	ldi	r24, 0x00	; 0
    2a24:	ac 01       	movw	r20, r24
    2a26:	43 0f       	add	r20, r19
    2a28:	51 1d       	adc	r21, r1
    2a2a:	9a 01       	movw	r18, r20

}/* uart1_getc */
    2a2c:	c9 01       	movw	r24, r18
    2a2e:	08 95       	ret

00002a30 <uart1_putc>:
Purpose:  write byte to ringbuffer for transmitting via UART
Input:    byte to be transmitted
Returns:  none          
**************************************************************************/
void uart1_putc(unsigned char data)
{
    2a30:	28 2f       	mov	r18, r24
    unsigned char tmphead;

    
    tmphead  = (UART1_TxHead + 1) & UART_TX_BUFFER_MASK;
    2a32:	90 91 8b 06 	lds	r25, 0x068B
    2a36:	9f 5f       	subi	r25, 0xFF	; 255
    2a38:	9f 77       	andi	r25, 0x7F	; 127
    
    while ( tmphead == UART1_TxTail ){
    2a3a:	80 91 8c 06 	lds	r24, 0x068C
    2a3e:	98 17       	cp	r25, r24
    2a40:	e1 f3       	breq	.-8      	; 0x2a3a <uart1_putc+0xa>
        ;/* wait for free space in buffer */
    }
    
    UART1_TxBuf[tmphead] = data;
    2a42:	e9 2f       	mov	r30, r25
    2a44:	f0 e0       	ldi	r31, 0x00	; 0
    2a46:	e5 51       	subi	r30, 0x15	; 21
    2a48:	fa 4f       	sbci	r31, 0xFA	; 250
    2a4a:	20 83       	st	Z, r18
    UART1_TxHead = tmphead;
    2a4c:	90 93 8b 06 	sts	0x068B, r25

    /* enable UDRE interrupt */
    UART1_CONTROL    |= _BV(UART1_UDRIE);
    2a50:	80 91 9a 00 	lds	r24, 0x009A
    2a54:	80 62       	ori	r24, 0x20	; 32
    2a56:	80 93 9a 00 	sts	0x009A, r24

}/* uart1_putc */
    2a5a:	08 95       	ret

00002a5c <uart1_puts>:
Purpose:  transmit string to UART1
Input:    string to be transmitted
Returns:  none          
**************************************************************************/
void uart1_puts(const char *s )
{
    2a5c:	cf 93       	push	r28
    2a5e:	df 93       	push	r29
    2a60:	ec 01       	movw	r28, r24
    2a62:	03 c0       	rjmp	.+6      	; 0x2a6a <uart1_puts+0xe>
    while (*s) 
      uart1_putc(*s++);
    2a64:	21 96       	adiw	r28, 0x01	; 1
    2a66:	0e 94 18 15 	call	0x2a30	; 0x2a30 <uart1_putc>
Input:    string to be transmitted
Returns:  none          
**************************************************************************/
void uart1_puts(const char *s )
{
    while (*s) 
    2a6a:	88 81       	ld	r24, Y
    2a6c:	88 23       	and	r24, r24
    2a6e:	d1 f7       	brne	.-12     	; 0x2a64 <uart1_puts+0x8>
      uart1_putc(*s++);

}/* uart1_puts */
    2a70:	df 91       	pop	r29
    2a72:	cf 91       	pop	r28
    2a74:	08 95       	ret

00002a76 <uart1_puts_p>:
Purpose:  transmit string from program memory to UART1
Input:    program memory string to be transmitted
Returns:  none
**************************************************************************/
void uart1_puts_p(const char *progmem_s )
{
    2a76:	cf 93       	push	r28
    2a78:	df 93       	push	r29
    2a7a:	ec 01       	movw	r28, r24
    2a7c:	02 c0       	rjmp	.+4      	; 0x2a82 <uart1_puts_p+0xc>
    register char c;
    
    while ( (c = pgm_read_byte(progmem_s++)) ) 
      uart1_putc(c);
    2a7e:	0e 94 18 15 	call	0x2a30	; 0x2a30 <uart1_putc>
    2a82:	fe 01       	movw	r30, r28
**************************************************************************/
void uart1_puts_p(const char *progmem_s )
{
    register char c;
    
    while ( (c = pgm_read_byte(progmem_s++)) ) 
    2a84:	21 96       	adiw	r28, 0x01	; 1
    2a86:	84 91       	lpm	r24, Z+
    2a88:	88 23       	and	r24, r24
    2a8a:	c9 f7       	brne	.-14     	; 0x2a7e <uart1_puts_p+0x8>
      uart1_putc(c);

}/* uart1_puts_p */
    2a8c:	df 91       	pop	r29
    2a8e:	cf 91       	pop	r28
    2a90:	08 95       	ret

00002a92 <encoder_logic>:
//	encoder_timer_curr++;
//	fast_rotate = 0;
//}


void encoder_logic(void) {
    2a92:	df 93       	push	r29
    2a94:	cf 93       	push	r28
    2a96:	00 d0       	rcall	.+0      	; 0x2a98 <encoder_logic+0x6>
    2a98:	cd b7       	in	r28, 0x3d	; 61
    2a9a:	de b7       	in	r29, 0x3e	; 62
//		fast_rotate++;
//	}		
	// else set timer to current time

	//Obtain current states
	curr_state[0][0] = (PINE >> PE4) & 1; // A
    2a9c:	81 b1       	in	r24, 0x01	; 1
    2a9e:	82 95       	swap	r24
    2aa0:	81 70       	andi	r24, 0x01	; 1
    2aa2:	80 93 cc 0e 	sts	0x0ECC, r24
	curr_state[0][1] = (PINE >> PE7) & 1; // B
    2aa6:	81 b1       	in	r24, 0x01	; 1
    2aa8:	88 1f       	adc	r24, r24
    2aaa:	88 27       	eor	r24, r24
    2aac:	88 1f       	adc	r24, r24
    2aae:	80 93 cd 0e 	sts	0x0ECD, r24

	for(volatile uint16_t i=0; i<50; i++);
    2ab2:	1a 82       	std	Y+2, r1	; 0x02
    2ab4:	19 82       	std	Y+1, r1	; 0x01
    2ab6:	05 c0       	rjmp	.+10     	; 0x2ac2 <encoder_logic+0x30>
    2ab8:	89 81       	ldd	r24, Y+1	; 0x01
    2aba:	9a 81       	ldd	r25, Y+2	; 0x02
    2abc:	01 96       	adiw	r24, 0x01	; 1
    2abe:	9a 83       	std	Y+2, r25	; 0x02
    2ac0:	89 83       	std	Y+1, r24	; 0x01
    2ac2:	89 81       	ldd	r24, Y+1	; 0x01
    2ac4:	9a 81       	ldd	r25, Y+2	; 0x02
    2ac6:	c2 97       	sbiw	r24, 0x32	; 50
    2ac8:	b8 f3       	brcs	.-18     	; 0x2ab8 <encoder_logic+0x26>

	//Process the hue encoder
	if(((prev_state[0][0] == 0) && (prev_state[0][1] == 0) && (curr_state[0][0] == 0) && (curr_state[0][1] == 1))
    2aca:	80 91 96 0e 	lds	r24, 0x0E96
    2ace:	88 23       	and	r24, r24
    2ad0:	61 f4       	brne	.+24     	; 0x2aea <encoder_logic+0x58>
    2ad2:	80 91 97 0e 	lds	r24, 0x0E97
    2ad6:	88 23       	and	r24, r24
    2ad8:	41 f4       	brne	.+16     	; 0x2aea <encoder_logic+0x58>
    2ada:	80 91 cc 0e 	lds	r24, 0x0ECC
    2ade:	88 23       	and	r24, r24
    2ae0:	21 f4       	brne	.+8      	; 0x2aea <encoder_logic+0x58>
    2ae2:	80 91 cd 0e 	lds	r24, 0x0ECD
    2ae6:	81 30       	cpi	r24, 0x01	; 1
    2ae8:	81 f1       	breq	.+96     	; 0x2b4a <encoder_logic+0xb8>
    2aea:	80 91 96 0e 	lds	r24, 0x0E96
    2aee:	88 23       	and	r24, r24
    2af0:	61 f4       	brne	.+24     	; 0x2b0a <encoder_logic+0x78>
    2af2:	80 91 97 0e 	lds	r24, 0x0E97
    2af6:	81 30       	cpi	r24, 0x01	; 1
    2af8:	41 f4       	brne	.+16     	; 0x2b0a <encoder_logic+0x78>
    2afa:	80 91 cc 0e 	lds	r24, 0x0ECC
    2afe:	81 30       	cpi	r24, 0x01	; 1
    2b00:	21 f4       	brne	.+8      	; 0x2b0a <encoder_logic+0x78>
    2b02:	80 91 cd 0e 	lds	r24, 0x0ECD
    2b06:	81 30       	cpi	r24, 0x01	; 1
    2b08:	01 f1       	breq	.+64     	; 0x2b4a <encoder_logic+0xb8>
    2b0a:	80 91 96 0e 	lds	r24, 0x0E96
    2b0e:	81 30       	cpi	r24, 0x01	; 1
    2b10:	61 f4       	brne	.+24     	; 0x2b2a <encoder_logic+0x98>
    2b12:	80 91 97 0e 	lds	r24, 0x0E97
    2b16:	81 30       	cpi	r24, 0x01	; 1
    2b18:	41 f4       	brne	.+16     	; 0x2b2a <encoder_logic+0x98>
    2b1a:	80 91 cc 0e 	lds	r24, 0x0ECC
    2b1e:	81 30       	cpi	r24, 0x01	; 1
    2b20:	21 f4       	brne	.+8      	; 0x2b2a <encoder_logic+0x98>
    2b22:	80 91 cd 0e 	lds	r24, 0x0ECD
    2b26:	88 23       	and	r24, r24
    2b28:	81 f0       	breq	.+32     	; 0x2b4a <encoder_logic+0xb8>
    2b2a:	80 91 96 0e 	lds	r24, 0x0E96
    2b2e:	81 30       	cpi	r24, 0x01	; 1
    2b30:	b1 f4       	brne	.+44     	; 0x2b5e <encoder_logic+0xcc>
    2b32:	80 91 97 0e 	lds	r24, 0x0E97
    2b36:	88 23       	and	r24, r24
    2b38:	91 f4       	brne	.+36     	; 0x2b5e <encoder_logic+0xcc>
    2b3a:	80 91 cc 0e 	lds	r24, 0x0ECC
    2b3e:	88 23       	and	r24, r24
    2b40:	71 f4       	brne	.+28     	; 0x2b5e <encoder_logic+0xcc>
    2b42:	80 91 cd 0e 	lds	r24, 0x0ECD
    2b46:	81 30       	cpi	r24, 0x01	; 1
    2b48:	51 f4       	brne	.+20     	; 0x2b5e <encoder_logic+0xcc>
	|| ((prev_state[0][0] == 1) && (prev_state[0][1] == 0) && (curr_state[0][0] == 0) && (curr_state[0][1] == 1))) {
		
//		if (fast_rotate) {
//			ccw += 25;
//		} else {
			cw++;
    2b4a:	80 91 92 06 	lds	r24, 0x0692
    2b4e:	90 91 93 06 	lds	r25, 0x0693
    2b52:	01 96       	adiw	r24, 0x01	; 1
    2b54:	90 93 93 06 	sts	0x0693, r25
    2b58:	80 93 92 06 	sts	0x0692, r24
    2b5c:	49 c0       	rjmp	.+146    	; 0x2bf0 <encoder_logic+0x15e>
//		}
	} 
	else if(((prev_state[0][0] == 0) && (prev_state[0][1] == 0) && (curr_state[0][0] == 1) && (curr_state[0][1] == 1))
    2b5e:	80 91 96 0e 	lds	r24, 0x0E96
    2b62:	88 23       	and	r24, r24
    2b64:	61 f4       	brne	.+24     	; 0x2b7e <encoder_logic+0xec>
    2b66:	80 91 97 0e 	lds	r24, 0x0E97
    2b6a:	88 23       	and	r24, r24
    2b6c:	41 f4       	brne	.+16     	; 0x2b7e <encoder_logic+0xec>
    2b6e:	80 91 cc 0e 	lds	r24, 0x0ECC
    2b72:	81 30       	cpi	r24, 0x01	; 1
    2b74:	21 f4       	brne	.+8      	; 0x2b7e <encoder_logic+0xec>
    2b76:	80 91 cd 0e 	lds	r24, 0x0ECD
    2b7a:	81 30       	cpi	r24, 0x01	; 1
    2b7c:	81 f1       	breq	.+96     	; 0x2bde <encoder_logic+0x14c>
    2b7e:	80 91 96 0e 	lds	r24, 0x0E96
    2b82:	81 30       	cpi	r24, 0x01	; 1
    2b84:	61 f4       	brne	.+24     	; 0x2b9e <encoder_logic+0x10c>
    2b86:	80 91 97 0e 	lds	r24, 0x0E97
    2b8a:	88 23       	and	r24, r24
    2b8c:	41 f4       	brne	.+16     	; 0x2b9e <encoder_logic+0x10c>
    2b8e:	80 91 cc 0e 	lds	r24, 0x0ECC
    2b92:	81 30       	cpi	r24, 0x01	; 1
    2b94:	21 f4       	brne	.+8      	; 0x2b9e <encoder_logic+0x10c>
    2b96:	80 91 cd 0e 	lds	r24, 0x0ECD
    2b9a:	81 30       	cpi	r24, 0x01	; 1
    2b9c:	01 f1       	breq	.+64     	; 0x2bde <encoder_logic+0x14c>
    2b9e:	80 91 96 0e 	lds	r24, 0x0E96
    2ba2:	81 30       	cpi	r24, 0x01	; 1
    2ba4:	61 f4       	brne	.+24     	; 0x2bbe <encoder_logic+0x12c>
    2ba6:	80 91 97 0e 	lds	r24, 0x0E97
    2baa:	81 30       	cpi	r24, 0x01	; 1
    2bac:	41 f4       	brne	.+16     	; 0x2bbe <encoder_logic+0x12c>
    2bae:	80 91 cc 0e 	lds	r24, 0x0ECC
    2bb2:	88 23       	and	r24, r24
    2bb4:	21 f4       	brne	.+8      	; 0x2bbe <encoder_logic+0x12c>
    2bb6:	80 91 cd 0e 	lds	r24, 0x0ECD
    2bba:	81 30       	cpi	r24, 0x01	; 1
    2bbc:	81 f0       	breq	.+32     	; 0x2bde <encoder_logic+0x14c>
    2bbe:	80 91 96 0e 	lds	r24, 0x0E96
    2bc2:	88 23       	and	r24, r24
    2bc4:	a9 f4       	brne	.+42     	; 0x2bf0 <encoder_logic+0x15e>
    2bc6:	80 91 97 0e 	lds	r24, 0x0E97
    2bca:	81 30       	cpi	r24, 0x01	; 1
    2bcc:	89 f4       	brne	.+34     	; 0x2bf0 <encoder_logic+0x15e>
    2bce:	80 91 cc 0e 	lds	r24, 0x0ECC
    2bd2:	88 23       	and	r24, r24
    2bd4:	69 f4       	brne	.+26     	; 0x2bf0 <encoder_logic+0x15e>
    2bd6:	80 91 cd 0e 	lds	r24, 0x0ECD
    2bda:	88 23       	and	r24, r24
    2bdc:	49 f4       	brne	.+18     	; 0x2bf0 <encoder_logic+0x15e>
	|| ((prev_state[0][0] == 0) && (prev_state[0][1] == 1) && (curr_state[0][0] == 0) && (curr_state[0][1] == 0))) {

//		if (fast_rotate) {
//			cw += 25;
//		} else {
			ccw++;
    2bde:	80 91 90 06 	lds	r24, 0x0690
    2be2:	90 91 91 06 	lds	r25, 0x0691
    2be6:	01 96       	adiw	r24, 0x01	; 1
    2be8:	90 93 91 06 	sts	0x0691, r25
    2bec:	80 93 90 06 	sts	0x0690, r24
//		}
	}

	//Put current states into past states
	prev_state[0][0] = curr_state[0][0];
    2bf0:	80 91 cc 0e 	lds	r24, 0x0ECC
    2bf4:	80 93 96 0e 	sts	0x0E96, r24
	prev_state[0][1] = curr_state[0][1];
    2bf8:	80 91 cd 0e 	lds	r24, 0x0ECD
    2bfc:	80 93 97 0e 	sts	0x0E97, r24

//	encoder_timer_prev = encoder_timer_curr;
}
    2c00:	0f 90       	pop	r0
    2c02:	0f 90       	pop	r0
    2c04:	cf 91       	pop	r28
    2c06:	df 91       	pop	r29
    2c08:	08 95       	ret

00002c0a <init_encoders>:

void init_encoders(void) {

	DDRE &= ~((1<<PORTE4)|(1<<PORTE7));
    2c0a:	82 b1       	in	r24, 0x02	; 2
    2c0c:	8f 76       	andi	r24, 0x6F	; 111
    2c0e:	82 b9       	out	0x02, r24	; 2
	PORTE |= (1<<PORTE4)|(1<<PORTE7);
    2c10:	83 b1       	in	r24, 0x03	; 3
    2c12:	80 69       	ori	r24, 0x90	; 144
    2c14:	83 b9       	out	0x03, r24	; 3

	EICRB = 0x00;
    2c16:	1a be       	out	0x3a, r1	; 58
	EICRB |= (1<<ISC40)|(1<<ISC70);
    2c18:	8a b7       	in	r24, 0x3a	; 58
    2c1a:	81 64       	ori	r24, 0x41	; 65
    2c1c:	8a bf       	out	0x3a, r24	; 58
	EIMSK |= (1<<INT4)|(1<<INT7);
    2c1e:	89 b7       	in	r24, 0x39	; 57
    2c20:	80 69       	ori	r24, 0x90	; 144
    2c22:	89 bf       	out	0x39, r24	; 57
	SREG |= (1<<7);
    2c24:	8f b7       	in	r24, 0x3f	; 63
    2c26:	80 68       	ori	r24, 0x80	; 128
    2c28:	8f bf       	out	0x3f, r24	; 63

	prev_state[0][0] = PINE & (1<<PORTE4);
    2c2a:	81 b1       	in	r24, 0x01	; 1
    2c2c:	80 71       	andi	r24, 0x10	; 16
    2c2e:	80 93 96 0e 	sts	0x0E96, r24
	prev_state[0][1] = PINE & (1<<PORTE7);
    2c32:	81 b1       	in	r24, 0x01	; 1
    2c34:	80 78       	andi	r24, 0x80	; 128
    2c36:	80 93 97 0e 	sts	0x0E97, r24
}
    2c3a:	08 95       	ret

00002c3c <init_switches>:

void init_switches(void) {

	DDRE &= ~((1<<PORTE5));
    2c3c:	15 98       	cbi	0x02, 5	; 2
	PORTE &= ~((1<<PORTE5));
    2c3e:	1d 98       	cbi	0x03, 5	; 3

	EICRB |= (1<<ISC51);
    2c40:	8a b7       	in	r24, 0x3a	; 58
    2c42:	88 60       	ori	r24, 0x08	; 8
    2c44:	8a bf       	out	0x3a, r24	; 58
	EIMSK |= (1<<INT5);
    2c46:	89 b7       	in	r24, 0x39	; 57
    2c48:	80 62       	ori	r24, 0x20	; 32
    2c4a:	89 bf       	out	0x39, r24	; 57
	SREG |= (1<<7);
    2c4c:	8f b7       	in	r24, 0x3f	; 63
    2c4e:	80 68       	ori	r24, 0x80	; 128
    2c50:	8f bf       	out	0x3f, r24	; 63

}
    2c52:	08 95       	ret

00002c54 <reverse>:
	sprintf(msg, input);
	ks0108Puts(reverse(msg));

}

char *reverse (char *input) {
    2c54:	ac 01       	movw	r20, r24
    2c56:	20 e0       	ldi	r18, 0x00	; 0
    2c58:	30 e0       	ldi	r19, 0x00	; 0
    2c5a:	02 c0       	rjmp	.+4      	; 0x2c60 <reverse+0xc>
	char temp;
	int i = 0;
	int j = 0;

	while (input[i] != '\0') {
		i++;
    2c5c:	2f 5f       	subi	r18, 0xFF	; 255
    2c5e:	3f 4f       	sbci	r19, 0xFF	; 255
char *reverse (char *input) {
	char temp;
	int i = 0;
	int j = 0;

	while (input[i] != '\0') {
    2c60:	fa 01       	movw	r30, r20
    2c62:	e2 0f       	add	r30, r18
    2c64:	f3 1f       	adc	r31, r19
    2c66:	80 81       	ld	r24, Z
    2c68:	88 23       	and	r24, r24
    2c6a:	c1 f7       	brne	.-16     	; 0x2c5c <reverse+0x8>
		i++;
	}

	for (j=0;j<(i/2);j++) {
    2c6c:	b9 01       	movw	r22, r18
    2c6e:	75 95       	asr	r23
    2c70:	67 95       	ror	r22
    2c72:	da 01       	movw	r26, r20
    2c74:	20 e0       	ldi	r18, 0x00	; 0
    2c76:	30 e0       	ldi	r19, 0x00	; 0
    2c78:	06 c0       	rjmp	.+12     	; 0x2c86 <reverse+0x32>
		temp = input[j];
    2c7a:	9c 91       	ld	r25, X
		input[j] = input[i-1-j];
    2c7c:	80 81       	ld	r24, Z
    2c7e:	8d 93       	st	X+, r24
		input[i-1-j] = temp;
    2c80:	90 83       	st	Z, r25

	while (input[i] != '\0') {
		i++;
	}

	for (j=0;j<(i/2);j++) {
    2c82:	2f 5f       	subi	r18, 0xFF	; 255
    2c84:	3f 4f       	sbci	r19, 0xFF	; 255
    2c86:	31 97       	sbiw	r30, 0x01	; 1
    2c88:	26 17       	cp	r18, r22
    2c8a:	37 07       	cpc	r19, r23
    2c8c:	b4 f3       	brlt	.-20     	; 0x2c7a <reverse+0x26>
		input[j] = input[i-1-j];
		input[i-1-j] = temp;
	}

	return input;
}
    2c8e:	ca 01       	movw	r24, r20
    2c90:	08 95       	ret

00002c92 <display_message>:
	EIMSK |= (1<<INT5);
	SREG |= (1<<7);

}

void display_message(char fontnum,char co_ord_x, char co_ord_y,char *input) {
    2c92:	0f 93       	push	r16
    2c94:	1f 93       	push	r17
    2c96:	cf 93       	push	r28
    2c98:	df 93       	push	r29
    2c9a:	06 2f       	mov	r16, r22
    2c9c:	14 2f       	mov	r17, r20
    2c9e:	e9 01       	movw	r28, r18

	if (fontnum == 0) {
    2ca0:	88 23       	and	r24, r24
    2ca2:	19 f4       	brne	.+6      	; 0x2caa <display_message+0x18>
		ks0108SelectFont(rotatedheadings, ks0108ReadFontData, BLACK);
    2ca4:	84 e9       	ldi	r24, 0x94	; 148
    2ca6:	90 e0       	ldi	r25, 0x00	; 0
    2ca8:	09 c0       	rjmp	.+18     	; 0x2cbc <display_message+0x2a>
	} else if (fontnum == 1) {
    2caa:	81 30       	cpi	r24, 0x01	; 1
    2cac:	19 f4       	brne	.+6      	; 0x2cb4 <display_message+0x22>
		ks0108SelectFont(small, ks0108ReadFontData, BLACK);
    2cae:	8a ec       	ldi	r24, 0xCA	; 202
    2cb0:	95 e0       	ldi	r25, 0x05	; 5
    2cb2:	04 c0       	rjmp	.+8      	; 0x2cbc <display_message+0x2a>
	} else if (fontnum == 2) {
    2cb4:	82 30       	cpi	r24, 0x02	; 2
    2cb6:	39 f4       	brne	.+14     	; 0x2cc6 <display_message+0x34>
		ks0108SelectFont(tiny, ks0108ReadFontData, BLACK);
    2cb8:	80 eb       	ldi	r24, 0xB0	; 176
    2cba:	99 e0       	ldi	r25, 0x09	; 9
    2cbc:	6b e2       	ldi	r22, 0x2B	; 43
    2cbe:	79 e0       	ldi	r23, 0x09	; 9
    2cc0:	4f ef       	ldi	r20, 0xFF	; 255
    2cc2:	0e 94 2e 09 	call	0x125c	; 0x125c <ks0108SelectFont>
	}

	ks0108GotoXY(co_ord_x,co_ord_y);
    2cc6:	80 2f       	mov	r24, r16
    2cc8:	61 2f       	mov	r22, r17
    2cca:	0e 94 cb 09 	call	0x1396	; 0x1396 <ks0108GotoXY>
	sprintf(msg, input);
    2cce:	00 d0       	rcall	.+0      	; 0x2cd0 <display_message+0x3e>
    2cd0:	00 d0       	rcall	.+0      	; 0x2cd2 <display_message+0x40>
    2cd2:	0a e9       	ldi	r16, 0x9A	; 154
    2cd4:	1e e0       	ldi	r17, 0x0E	; 14
    2cd6:	ed b7       	in	r30, 0x3d	; 61
    2cd8:	fe b7       	in	r31, 0x3e	; 62
    2cda:	12 83       	std	Z+2, r17	; 0x02
    2cdc:	01 83       	std	Z+1, r16	; 0x01
    2cde:	d4 83       	std	Z+4, r29	; 0x04
    2ce0:	c3 83       	std	Z+3, r28	; 0x03
    2ce2:	0e 94 5a 2a 	call	0x54b4	; 0x54b4 <sprintf>
	ks0108Puts(reverse(msg));
    2ce6:	0f 90       	pop	r0
    2ce8:	0f 90       	pop	r0
    2cea:	0f 90       	pop	r0
    2cec:	0f 90       	pop	r0
    2cee:	c8 01       	movw	r24, r16
    2cf0:	0e 94 2a 16 	call	0x2c54	; 0x2c54 <reverse>
    2cf4:	0e 94 e7 0b 	call	0x17ce	; 0x17ce <ks0108Puts>

}
    2cf8:	df 91       	pop	r29
    2cfa:	cf 91       	pop	r28
    2cfc:	1f 91       	pop	r17
    2cfe:	0f 91       	pop	r16
    2d00:	08 95       	ret

00002d02 <connect_setup>:
		ks0108Puts(reverse(msg));
		return 0;
}


void connect_setup(uint8_t pgm_state) {
    2d02:	0f 93       	push	r16
    2d04:	1f 93       	push	r17
    2d06:	18 2f       	mov	r17, r24
//void connect_setup() {
		ks0108ClearScreen()
    2d08:	80 e0       	ldi	r24, 0x00	; 0
    2d0a:	60 e0       	ldi	r22, 0x00	; 0
    2d0c:	4f e7       	ldi	r20, 0x7F	; 127
    2d0e:	2f e3       	ldi	r18, 0x3F	; 63
    2d10:	00 e0       	ldi	r16, 0x00	; 0
    2d12:	0e 94 e4 0c 	call	0x19c8	; 0x19c8 <ks0108FillRect>

//		display_message(0,40,40,"Connecting... ");
				
		display_message(1,40,40,"Waiting   for   data . . .");
    2d16:	81 e0       	ldi	r24, 0x01	; 1
    2d18:	68 e2       	ldi	r22, 0x28	; 40
    2d1a:	48 e2       	ldi	r20, 0x28	; 40
    2d1c:	20 e0       	ldi	r18, 0x00	; 0
    2d1e:	34 e0       	ldi	r19, 0x04	; 4
    2d20:	0e 94 49 16 	call	0x2c92	; 0x2c92 <display_message>

		if (pgm_state == DATA_COLLECTED) {
    2d24:	17 30       	cpi	r17, 0x07	; 7
    2d26:	39 f4       	brne	.+14     	; 0x2d36 <connect_setup+0x34>
			display_message(1,5,40,"Done");
    2d28:	81 e0       	ldi	r24, 0x01	; 1
    2d2a:	65 e0       	ldi	r22, 0x05	; 5
    2d2c:	48 e2       	ldi	r20, 0x28	; 40
    2d2e:	2b e1       	ldi	r18, 0x1B	; 27
    2d30:	34 e0       	ldi	r19, 0x04	; 4
    2d32:	0e 94 49 16 	call	0x2c92	; 0x2c92 <display_message>
		}
}
    2d36:	1f 91       	pop	r17
    2d38:	0f 91       	pop	r16
    2d3a:	08 95       	ret

00002d3c <weight_menu_setup>:
	//ks0108InvertRect(21, 20, 94, 15);
	prev_menu_option = 3;
	ks0108InvertRect(21, 38, 94, 15);
}

int weight_menu_setup() {
    2d3c:	0f 93       	push	r16
    2d3e:	1f 93       	push	r17
		ks0108ClearScreen()
    2d40:	80 e0       	ldi	r24, 0x00	; 0
    2d42:	60 e0       	ldi	r22, 0x00	; 0
    2d44:	4f e7       	ldi	r20, 0x7F	; 127
    2d46:	2f e3       	ldi	r18, 0x3F	; 63
    2d48:	00 e0       	ldi	r16, 0x00	; 0
    2d4a:	0e 94 e4 0c 	call	0x19c8	; 0x19c8 <ks0108FillRect>

		display_message(1,5,45,"Select   the   weight   of   your");
    2d4e:	81 e0       	ldi	r24, 0x01	; 1
    2d50:	65 e0       	ldi	r22, 0x05	; 5
    2d52:	4d e2       	ldi	r20, 0x2D	; 45
    2d54:	20 e2       	ldi	r18, 0x20	; 32
    2d56:	34 e0       	ldi	r19, 0x04	; 4
    2d58:	0e 94 49 16 	call	0x2c92	; 0x2c92 <display_message>

		if (prev_menu_option == 1) {
    2d5c:	80 91 19 05 	lds	r24, 0x0519
    2d60:	90 91 1a 05 	lds	r25, 0x051A
    2d64:	81 30       	cpi	r24, 0x01	; 1
    2d66:	91 05       	cpc	r25, r1
    2d68:	31 f4       	brne	.+12     	; 0x2d76 <weight_menu_setup+0x3a>
			display_message(1,87,30,"Snatch  :");
    2d6a:	81 e0       	ldi	r24, 0x01	; 1
    2d6c:	67 e5       	ldi	r22, 0x57	; 87
    2d6e:	4e e1       	ldi	r20, 0x1E	; 30
    2d70:	22 e4       	ldi	r18, 0x42	; 66
    2d72:	34 e0       	ldi	r19, 0x04	; 4
    2d74:	08 c0       	rjmp	.+16     	; 0x2d86 <weight_menu_setup+0x4a>
		} else if (prev_menu_option == 2) {
    2d76:	82 30       	cpi	r24, 0x02	; 2
    2d78:	91 05       	cpc	r25, r1
    2d7a:	41 f4       	brne	.+16     	; 0x2d8c <weight_menu_setup+0x50>
			display_message(1,57,30,"Clean   &   Jerk  :");					
    2d7c:	81 e0       	ldi	r24, 0x01	; 1
    2d7e:	69 e3       	ldi	r22, 0x39	; 57
    2d80:	4e e1       	ldi	r20, 0x1E	; 30
    2d82:	2c e4       	ldi	r18, 0x4C	; 76
    2d84:	34 e0       	ldi	r19, 0x04	; 4
    2d86:	0e 94 49 16 	call	0x2c92	; 0x2c92 <display_message>
    2d8a:	13 c0       	rjmp	.+38     	; 0x2db2 <weight_menu_setup+0x76>
		} else if (prev_menu_option == 3) {
    2d8c:	03 97       	sbiw	r24, 0x03	; 3
    2d8e:	89 f4       	brne	.+34     	; 0x2db2 <weight_menu_setup+0x76>
			ks0108ClearScreen()
    2d90:	80 e0       	ldi	r24, 0x00	; 0
    2d92:	60 e0       	ldi	r22, 0x00	; 0
    2d94:	4f e7       	ldi	r20, 0x7F	; 127
    2d96:	2f e3       	ldi	r18, 0x3F	; 63
    2d98:	00 e0       	ldi	r16, 0x00	; 0
    2d9a:	0e 94 e4 0c 	call	0x19c8	; 0x19c8 <ks0108FillRect>
			display_message(1,40,30,"PC   Mode   Active");	
    2d9e:	81 e0       	ldi	r24, 0x01	; 1
    2da0:	68 e2       	ldi	r22, 0x28	; 40
    2da2:	4e e1       	ldi	r20, 0x1E	; 30
    2da4:	20 e6       	ldi	r18, 0x60	; 96
    2da6:	34 e0       	ldi	r19, 0x04	; 4
    2da8:	0e 94 49 16 	call	0x2c92	; 0x2c92 <display_message>
    2dac:	23 e0       	ldi	r18, 0x03	; 3
    2dae:	30 e0       	ldi	r19, 0x00	; 0
    2db0:	3f c0       	rjmp	.+126    	; 0x2e30 <weight_menu_setup+0xf4>
			//pgm_state = MAIN_MENU;
			return 3;				
		}

		display_message(0,15,8,"Kg");			
    2db2:	80 e0       	ldi	r24, 0x00	; 0
    2db4:	6f e0       	ldi	r22, 0x0F	; 15
    2db6:	48 e0       	ldi	r20, 0x08	; 8
    2db8:	23 e7       	ldi	r18, 0x73	; 115
    2dba:	34 e0       	ldi	r19, 0x04	; 4
    2dbc:	0e 94 49 16 	call	0x2c92	; 0x2c92 <display_message>

		ks0108GotoXY(50,8);
    2dc0:	82 e3       	ldi	r24, 0x32	; 50
    2dc2:	68 e0       	ldi	r22, 0x08	; 8
    2dc4:	0e 94 cb 09 	call	0x1396	; 0x1396 <ks0108GotoXY>
		sprintf(msg, "%3.1f", weight);
    2dc8:	20 91 15 05 	lds	r18, 0x0515
    2dcc:	30 91 16 05 	lds	r19, 0x0516
    2dd0:	40 91 17 05 	lds	r20, 0x0517
    2dd4:	50 91 18 05 	lds	r21, 0x0518
    2dd8:	8d b7       	in	r24, 0x3d	; 61
    2dda:	9e b7       	in	r25, 0x3e	; 62
    2ddc:	08 97       	sbiw	r24, 0x08	; 8
    2dde:	0f b6       	in	r0, 0x3f	; 63
    2de0:	f8 94       	cli
    2de2:	9e bf       	out	0x3e, r25	; 62
    2de4:	0f be       	out	0x3f, r0	; 63
    2de6:	8d bf       	out	0x3d, r24	; 61
    2de8:	ed b7       	in	r30, 0x3d	; 61
    2dea:	fe b7       	in	r31, 0x3e	; 62
    2dec:	31 96       	adiw	r30, 0x01	; 1
    2dee:	0a e9       	ldi	r16, 0x9A	; 154
    2df0:	1e e0       	ldi	r17, 0x0E	; 14
    2df2:	ad b7       	in	r26, 0x3d	; 61
    2df4:	be b7       	in	r27, 0x3e	; 62
    2df6:	12 96       	adiw	r26, 0x02	; 2
    2df8:	1c 93       	st	X, r17
    2dfa:	0e 93       	st	-X, r16
    2dfc:	11 97       	sbiw	r26, 0x01	; 1
    2dfe:	86 e7       	ldi	r24, 0x76	; 118
    2e00:	94 e0       	ldi	r25, 0x04	; 4
    2e02:	93 83       	std	Z+3, r25	; 0x03
    2e04:	82 83       	std	Z+2, r24	; 0x02
    2e06:	24 83       	std	Z+4, r18	; 0x04
    2e08:	35 83       	std	Z+5, r19	; 0x05
    2e0a:	46 83       	std	Z+6, r20	; 0x06
    2e0c:	57 83       	std	Z+7, r21	; 0x07
    2e0e:	0e 94 5a 2a 	call	0x54b4	; 0x54b4 <sprintf>
		ks0108Puts(reverse(msg));
    2e12:	8d b7       	in	r24, 0x3d	; 61
    2e14:	9e b7       	in	r25, 0x3e	; 62
    2e16:	08 96       	adiw	r24, 0x08	; 8
    2e18:	0f b6       	in	r0, 0x3f	; 63
    2e1a:	f8 94       	cli
    2e1c:	9e bf       	out	0x3e, r25	; 62
    2e1e:	0f be       	out	0x3f, r0	; 63
    2e20:	8d bf       	out	0x3d, r24	; 61
    2e22:	c8 01       	movw	r24, r16
    2e24:	0e 94 2a 16 	call	0x2c54	; 0x2c54 <reverse>
    2e28:	0e 94 e7 0b 	call	0x17ce	; 0x17ce <ks0108Puts>
    2e2c:	20 e0       	ldi	r18, 0x00	; 0
    2e2e:	30 e0       	ldi	r19, 0x00	; 0
		return 0;
}
    2e30:	c9 01       	movw	r24, r18
    2e32:	1f 91       	pop	r17
    2e34:	0f 91       	pop	r16
    2e36:	08 95       	ret

00002e38 <graph_scroll>:
	cw = -5;
	
}


void graph_scroll(double max, char direction) {
    2e38:	4f 92       	push	r4
    2e3a:	5f 92       	push	r5
    2e3c:	6f 92       	push	r6
    2e3e:	7f 92       	push	r7
    2e40:	8f 92       	push	r8
    2e42:	9f 92       	push	r9
    2e44:	af 92       	push	r10
    2e46:	bf 92       	push	r11
    2e48:	cf 92       	push	r12
    2e4a:	df 92       	push	r13
    2e4c:	ef 92       	push	r14
    2e4e:	ff 92       	push	r15
    2e50:	0f 93       	push	r16
    2e52:	1f 93       	push	r17
    2e54:	cf 93       	push	r28
    2e56:	df 93       	push	r29
    2e58:	14 2f       	mov	r17, r20

			uint16_t val = 0;

			max += 9.8;
    2e5a:	2d ec       	ldi	r18, 0xCD	; 205
    2e5c:	3c ec       	ldi	r19, 0xCC	; 204
    2e5e:	4c e1       	ldi	r20, 0x1C	; 28
    2e60:	51 e4       	ldi	r21, 0x41	; 65
    2e62:	0e 94 ec 26 	call	0x4dd8	; 0x4dd8 <__addsf3>
    2e66:	2b 01       	movw	r4, r22
    2e68:	3c 01       	movw	r6, r24

			ks0108FillRect(0, 1, 126, 62, WHITE);
    2e6a:	80 e0       	ldi	r24, 0x00	; 0
    2e6c:	61 e0       	ldi	r22, 0x01	; 1
    2e6e:	4e e7       	ldi	r20, 0x7E	; 126
    2e70:	2e e3       	ldi	r18, 0x3E	; 62
    2e72:	00 e0       	ldi	r16, 0x00	; 0
    2e74:	0e 94 e4 0c 	call	0x19c8	; 0x19c8 <ks0108FillRect>
//			ks0108FillRect(33, 1, 93, 62, WHITE);
//			ks0108FillRect(0, 1, 33, 10, WHITE);
//			ks0108FillRect(0, 56, 33, 7, WHITE);
//			ks0108FillRect(0, 1, 3, 62, WHITE);

			index -= 127;
    2e78:	80 91 9c 06 	lds	r24, 0x069C
    2e7c:	90 91 9d 06 	lds	r25, 0x069D
    2e80:	8f 57       	subi	r24, 0x7F	; 127
    2e82:	90 40       	sbci	r25, 0x00	; 0
    2e84:	90 93 9d 06 	sts	0x069D, r25
    2e88:	80 93 9c 06 	sts	0x069C, r24
			
	
			if (direction == 0) {
    2e8c:	11 23       	and	r17, r17
    2e8e:	51 f4       	brne	.+20     	; 0x2ea4 <graph_scroll+0x6c>
				index += 5;
    2e90:	80 91 9c 06 	lds	r24, 0x069C
    2e94:	90 91 9d 06 	lds	r25, 0x069D
    2e98:	05 96       	adiw	r24, 0x05	; 5
    2e9a:	90 93 9d 06 	sts	0x069D, r25
    2e9e:	80 93 9c 06 	sts	0x069C, r24
    2ea2:	15 c0       	rjmp	.+42     	; 0x2ece <graph_scroll+0x96>
			} else if (direction == 1) {
    2ea4:	11 30       	cpi	r17, 0x01	; 1
    2ea6:	99 f4       	brne	.+38     	; 0x2ece <graph_scroll+0x96>
				index -= 5;
    2ea8:	80 91 9c 06 	lds	r24, 0x069C
    2eac:	90 91 9d 06 	lds	r25, 0x069D
    2eb0:	05 97       	sbiw	r24, 0x05	; 5
    2eb2:	90 93 9d 06 	sts	0x069D, r25
    2eb6:	80 93 9c 06 	sts	0x069C, r24
				if (index<0) {
    2eba:	80 91 9c 06 	lds	r24, 0x069C
    2ebe:	90 91 9d 06 	lds	r25, 0x069D
    2ec2:	97 ff       	sbrs	r25, 7
    2ec4:	04 c0       	rjmp	.+8      	; 0x2ece <graph_scroll+0x96>
					index = 0;
    2ec6:	10 92 9d 06 	sts	0x069D, r1
    2eca:	10 92 9c 06 	sts	0x069C, r1
				}
			}						

			for (x=126;x>=0;x--) {
    2ece:	8e e7       	ldi	r24, 0x7E	; 126
    2ed0:	90 e0       	ldi	r25, 0x00	; 0
    2ed2:	87 c0       	rjmp	.+270    	; 0x2fe2 <graph_scroll+0x1aa>
				val = (uint16_t)((((datatest[index]+9.8)*1000) * 63) / ((max)*1000));
    2ed4:	e0 91 9c 06 	lds	r30, 0x069C
    2ed8:	f0 91 9d 06 	lds	r31, 0x069D
    2edc:	ee 0f       	add	r30, r30
    2ede:	ff 1f       	adc	r31, r31
    2ee0:	ee 0f       	add	r30, r30
    2ee2:	ff 1f       	adc	r31, r31
    2ee4:	e2 55       	subi	r30, 0x52	; 82
    2ee6:	f9 4f       	sbci	r31, 0xF9	; 249
    2ee8:	e0 80       	ld	r14, Z
    2eea:	f1 80       	ldd	r15, Z+1	; 0x01
    2eec:	02 81       	ldd	r16, Z+2	; 0x02
    2eee:	13 81       	ldd	r17, Z+3	; 0x03
    2ef0:	c3 01       	movw	r24, r6
    2ef2:	b2 01       	movw	r22, r4
    2ef4:	20 e0       	ldi	r18, 0x00	; 0
    2ef6:	30 e0       	ldi	r19, 0x00	; 0
    2ef8:	4a e7       	ldi	r20, 0x7A	; 122
    2efa:	54 e4       	ldi	r21, 0x44	; 68
    2efc:	0e 94 35 28 	call	0x506a	; 0x506a <__mulsf3>
    2f00:	5b 01       	movw	r10, r22
    2f02:	6c 01       	movw	r12, r24
    2f04:	c8 01       	movw	r24, r16
    2f06:	b7 01       	movw	r22, r14
    2f08:	2d ec       	ldi	r18, 0xCD	; 205
    2f0a:	3c ec       	ldi	r19, 0xCC	; 204
    2f0c:	4c e1       	ldi	r20, 0x1C	; 28
    2f0e:	51 e4       	ldi	r21, 0x41	; 65
    2f10:	0e 94 ec 26 	call	0x4dd8	; 0x4dd8 <__addsf3>
    2f14:	20 e0       	ldi	r18, 0x00	; 0
    2f16:	30 e0       	ldi	r19, 0x00	; 0
    2f18:	4a e7       	ldi	r20, 0x7A	; 122
    2f1a:	54 e4       	ldi	r21, 0x44	; 68
    2f1c:	0e 94 35 28 	call	0x506a	; 0x506a <__mulsf3>
    2f20:	20 e0       	ldi	r18, 0x00	; 0
    2f22:	30 e0       	ldi	r19, 0x00	; 0
    2f24:	4c e7       	ldi	r20, 0x7C	; 124
    2f26:	52 e4       	ldi	r21, 0x42	; 66
    2f28:	0e 94 35 28 	call	0x506a	; 0x506a <__mulsf3>
    2f2c:	a6 01       	movw	r20, r12
    2f2e:	95 01       	movw	r18, r10
    2f30:	0e 94 50 27 	call	0x4ea0	; 0x4ea0 <__divsf3>
    2f34:	0e 94 b8 27 	call	0x4f70	; 0x4f70 <__fixunssfsi>
    2f38:	eb 01       	movw	r28, r22
				if ((val < 0)||(val > 63)) {
    2f3a:	60 34       	cpi	r22, 0x40	; 64
    2f3c:	71 05       	cpc	r23, r1
    2f3e:	10 f0       	brcs	.+4      	; 0x2f44 <graph_scroll+0x10c>
    2f40:	c0 e0       	ldi	r28, 0x00	; 0
    2f42:	d0 e0       	ldi	r29, 0x00	; 0
					val = 0;
				}
				if (index >= (500-127)) {
    2f44:	80 91 9c 06 	lds	r24, 0x069C
    2f48:	90 91 9d 06 	lds	r25, 0x069D
    2f4c:	85 57       	subi	r24, 0x75	; 117
    2f4e:	91 40       	sbci	r25, 0x01	; 1
    2f50:	0c f1       	brlt	.+66     	; 0x2f94 <graph_scroll+0x15c>
					val = (uint16_t) ((((datatest[499]+9.8)*1000) * 63) / ((max)*1000));	
    2f52:	60 91 7a 0e 	lds	r22, 0x0E7A
    2f56:	70 91 7b 0e 	lds	r23, 0x0E7B
    2f5a:	80 91 7c 0e 	lds	r24, 0x0E7C
    2f5e:	90 91 7d 0e 	lds	r25, 0x0E7D
    2f62:	2d ec       	ldi	r18, 0xCD	; 205
    2f64:	3c ec       	ldi	r19, 0xCC	; 204
    2f66:	4c e1       	ldi	r20, 0x1C	; 28
    2f68:	51 e4       	ldi	r21, 0x41	; 65
    2f6a:	0e 94 ec 26 	call	0x4dd8	; 0x4dd8 <__addsf3>
    2f6e:	20 e0       	ldi	r18, 0x00	; 0
    2f70:	30 e0       	ldi	r19, 0x00	; 0
    2f72:	4a e7       	ldi	r20, 0x7A	; 122
    2f74:	54 e4       	ldi	r21, 0x44	; 68
    2f76:	0e 94 35 28 	call	0x506a	; 0x506a <__mulsf3>
    2f7a:	20 e0       	ldi	r18, 0x00	; 0
    2f7c:	30 e0       	ldi	r19, 0x00	; 0
    2f7e:	4c e7       	ldi	r20, 0x7C	; 124
    2f80:	52 e4       	ldi	r21, 0x42	; 66
    2f82:	0e 94 35 28 	call	0x506a	; 0x506a <__mulsf3>
    2f86:	a6 01       	movw	r20, r12
    2f88:	95 01       	movw	r18, r10
    2f8a:	0e 94 50 27 	call	0x4ea0	; 0x4ea0 <__divsf3>
    2f8e:	0e 94 b8 27 	call	0x4f70	; 0x4f70 <__fixunssfsi>
    2f92:	eb 01       	movw	r28, r22
				}

				ks0108SetDot(x,val, BLACK);
    2f94:	88 2d       	mov	r24, r8
    2f96:	6c 2f       	mov	r22, r28
    2f98:	4f ef       	ldi	r20, 0xFF	; 255
    2f9a:	0e 94 0e 0c 	call	0x181c	; 0x181c <ks0108SetDot>
				if(index == 0) {
    2f9e:	80 91 9c 06 	lds	r24, 0x069C
    2fa2:	90 91 9d 06 	lds	r25, 0x069D
    2fa6:	89 2b       	or	r24, r25
    2fa8:	51 f0       	breq	.+20     	; 0x2fbe <graph_scroll+0x186>
					temp = val;
				} else {
					ks0108DrawLine(x+1, temp, x, val, BLACK);
    2faa:	40 91 9e 06 	lds	r20, 0x069E
    2fae:	84 2f       	mov	r24, r20
    2fb0:	8f 5f       	subi	r24, 0xFF	; 255
    2fb2:	60 91 a2 06 	lds	r22, 0x06A2
    2fb6:	2c 2f       	mov	r18, r28
    2fb8:	0f ef       	ldi	r16, 0xFF	; 255
    2fba:	0e 94 a5 0e 	call	0x1d4a	; 0x1d4a <ks0108DrawLine>
					temp = val;
    2fbe:	d0 93 a3 06 	sts	0x06A3, r29
    2fc2:	c0 93 a2 06 	sts	0x06A2, r28
						ks0108DrawLine(x, val-val, x, val+3, BLACK);
					} 
*/
//				}

				index++;
    2fc6:	80 91 9c 06 	lds	r24, 0x069C
    2fca:	90 91 9d 06 	lds	r25, 0x069D
    2fce:	01 96       	adiw	r24, 0x01	; 1
    2fd0:	90 93 9d 06 	sts	0x069D, r25
    2fd4:	80 93 9c 06 	sts	0x069C, r24
				if (index<0) {
					index = 0;
				}
			}						

			for (x=126;x>=0;x--) {
    2fd8:	80 91 9e 06 	lds	r24, 0x069E
    2fdc:	90 91 9f 06 	lds	r25, 0x069F
    2fe0:	01 97       	sbiw	r24, 0x01	; 1
    2fe2:	90 93 9f 06 	sts	0x069F, r25
    2fe6:	80 93 9e 06 	sts	0x069E, r24
    2fea:	80 90 9e 06 	lds	r8, 0x069E
    2fee:	90 90 9f 06 	lds	r9, 0x069F
    2ff2:	97 fe       	sbrs	r9, 7
    2ff4:	6f cf       	rjmp	.-290    	; 0x2ed4 <graph_scroll+0x9c>

			ks0108GotoXY(7,13);
			sprintf(msg, "%.1f", time);
			ks0108Puts(reverse(msg));
*/
}
    2ff6:	df 91       	pop	r29
    2ff8:	cf 91       	pop	r28
    2ffa:	1f 91       	pop	r17
    2ffc:	0f 91       	pop	r16
    2ffe:	ff 90       	pop	r15
    3000:	ef 90       	pop	r14
    3002:	df 90       	pop	r13
    3004:	cf 90       	pop	r12
    3006:	bf 90       	pop	r11
    3008:	af 90       	pop	r10
    300a:	9f 90       	pop	r9
    300c:	8f 90       	pop	r8
    300e:	7f 90       	pop	r7
    3010:	6f 90       	pop	r6
    3012:	5f 90       	pop	r5
    3014:	4f 90       	pop	r4
    3016:	08 95       	ret

00003018 <graph_setup>:
//		sprintf(msg, "%.1f", power);
//		ks0108Puts(reverse(msg));

}

void graph_setup(double max) {
    3018:	8f 92       	push	r8
    301a:	9f 92       	push	r9
    301c:	af 92       	push	r10
    301e:	bf 92       	push	r11
    3020:	cf 92       	push	r12
    3022:	df 92       	push	r13
    3024:	ef 92       	push	r14
    3026:	ff 92       	push	r15
    3028:	0f 93       	push	r16
    302a:	1f 93       	push	r17
    302c:	cf 93       	push	r28
    302e:	df 93       	push	r29

	uint16_t val = 0;

	max += 9.8;
    3030:	2d ec       	ldi	r18, 0xCD	; 205
    3032:	3c ec       	ldi	r19, 0xCC	; 204
    3034:	4c e1       	ldi	r20, 0x1C	; 28
    3036:	51 e4       	ldi	r21, 0x41	; 65
    3038:	0e 94 ec 26 	call	0x4dd8	; 0x4dd8 <__addsf3>
    303c:	4b 01       	movw	r8, r22
    303e:	5c 01       	movw	r10, r24

	ks0108ClearScreen()
    3040:	80 e0       	ldi	r24, 0x00	; 0
    3042:	60 e0       	ldi	r22, 0x00	; 0
    3044:	4f e7       	ldi	r20, 0x7F	; 127
    3046:	2f e3       	ldi	r18, 0x3F	; 63
    3048:	00 e0       	ldi	r16, 0x00	; 0
    304a:	0e 94 e4 0c 	call	0x19c8	; 0x19c8 <ks0108FillRect>
	ks0108DrawLine(127, 0, 0, 0, BLACK);
    304e:	8f e7       	ldi	r24, 0x7F	; 127
    3050:	60 e0       	ldi	r22, 0x00	; 0
    3052:	40 e0       	ldi	r20, 0x00	; 0
    3054:	20 e0       	ldi	r18, 0x00	; 0
    3056:	0f ef       	ldi	r16, 0xFF	; 255
    3058:	0e 94 a5 0e 	call	0x1d4a	; 0x1d4a <ks0108DrawLine>
	ks0108DrawLine(127, 63, 127, 0, BLACK);
    305c:	8f e7       	ldi	r24, 0x7F	; 127
    305e:	6f e3       	ldi	r22, 0x3F	; 63
    3060:	4f e7       	ldi	r20, 0x7F	; 127
    3062:	20 e0       	ldi	r18, 0x00	; 0
    3064:	0e 94 a5 0e 	call	0x1d4a	; 0x1d4a <ks0108DrawLine>

	index = 0;
    3068:	10 92 9d 06 	sts	0x069D, r1
    306c:	10 92 9c 06 	sts	0x069C, r1
	for (x=126;x>=0;x--) {
    3070:	8e e7       	ldi	r24, 0x7E	; 126
    3072:	90 e0       	ldi	r25, 0x00	; 0
    3074:	5f c0       	rjmp	.+190    	; 0x3134 <graph_setup+0x11c>
		val = (uint16_t)((((datatest[index]+9.8)*1000) * 63) / ((max)*1000));
    3076:	e0 91 9c 06 	lds	r30, 0x069C
    307a:	f0 91 9d 06 	lds	r31, 0x069D
    307e:	ee 0f       	add	r30, r30
    3080:	ff 1f       	adc	r31, r31
    3082:	ee 0f       	add	r30, r30
    3084:	ff 1f       	adc	r31, r31
    3086:	e2 55       	subi	r30, 0x52	; 82
    3088:	f9 4f       	sbci	r31, 0xF9	; 249
    308a:	60 81       	ld	r22, Z
    308c:	71 81       	ldd	r23, Z+1	; 0x01
    308e:	82 81       	ldd	r24, Z+2	; 0x02
    3090:	93 81       	ldd	r25, Z+3	; 0x03
    3092:	2d ec       	ldi	r18, 0xCD	; 205
    3094:	3c ec       	ldi	r19, 0xCC	; 204
    3096:	4c e1       	ldi	r20, 0x1C	; 28
    3098:	51 e4       	ldi	r21, 0x41	; 65
    309a:	0e 94 ec 26 	call	0x4dd8	; 0x4dd8 <__addsf3>
    309e:	20 e0       	ldi	r18, 0x00	; 0
    30a0:	30 e0       	ldi	r19, 0x00	; 0
    30a2:	4a e7       	ldi	r20, 0x7A	; 122
    30a4:	54 e4       	ldi	r21, 0x44	; 68
    30a6:	0e 94 35 28 	call	0x506a	; 0x506a <__mulsf3>
    30aa:	20 e0       	ldi	r18, 0x00	; 0
    30ac:	30 e0       	ldi	r19, 0x00	; 0
    30ae:	4c e7       	ldi	r20, 0x7C	; 124
    30b0:	52 e4       	ldi	r21, 0x42	; 66
    30b2:	0e 94 35 28 	call	0x506a	; 0x506a <__mulsf3>
    30b6:	7b 01       	movw	r14, r22
    30b8:	8c 01       	movw	r16, r24
    30ba:	c5 01       	movw	r24, r10
    30bc:	b4 01       	movw	r22, r8
    30be:	20 e0       	ldi	r18, 0x00	; 0
    30c0:	30 e0       	ldi	r19, 0x00	; 0
    30c2:	4a e7       	ldi	r20, 0x7A	; 122
    30c4:	54 e4       	ldi	r21, 0x44	; 68
    30c6:	0e 94 35 28 	call	0x506a	; 0x506a <__mulsf3>
    30ca:	9b 01       	movw	r18, r22
    30cc:	ac 01       	movw	r20, r24
    30ce:	c8 01       	movw	r24, r16
    30d0:	b7 01       	movw	r22, r14
    30d2:	0e 94 50 27 	call	0x4ea0	; 0x4ea0 <__divsf3>
    30d6:	0e 94 b8 27 	call	0x4f70	; 0x4f70 <__fixunssfsi>
    30da:	eb 01       	movw	r28, r22
				if ((val < 0)||(val > 63)) {
    30dc:	60 34       	cpi	r22, 0x40	; 64
    30de:	71 05       	cpc	r23, r1
    30e0:	10 f0       	brcs	.+4      	; 0x30e6 <graph_setup+0xce>
    30e2:	c0 e0       	ldi	r28, 0x00	; 0
    30e4:	d0 e0       	ldi	r29, 0x00	; 0
					val = 0;
				}
		ks0108SetDot(x,val, BLACK);
    30e6:	8c 2d       	mov	r24, r12
    30e8:	6c 2f       	mov	r22, r28
    30ea:	4f ef       	ldi	r20, 0xFF	; 255
    30ec:	0e 94 0e 0c 	call	0x181c	; 0x181c <ks0108SetDot>
		if(index == 0) {
    30f0:	80 91 9c 06 	lds	r24, 0x069C
    30f4:	90 91 9d 06 	lds	r25, 0x069D
    30f8:	89 2b       	or	r24, r25
    30fa:	51 f0       	breq	.+20     	; 0x3110 <graph_setup+0xf8>
			temp = val;
		} else {
			ks0108DrawLine(x+1, temp, x, val, BLACK);
    30fc:	40 91 9e 06 	lds	r20, 0x069E
    3100:	84 2f       	mov	r24, r20
    3102:	8f 5f       	subi	r24, 0xFF	; 255
    3104:	60 91 a2 06 	lds	r22, 0x06A2
    3108:	2c 2f       	mov	r18, r28
    310a:	0f ef       	ldi	r16, 0xFF	; 255
    310c:	0e 94 a5 0e 	call	0x1d4a	; 0x1d4a <ks0108DrawLine>
			temp = val;
    3110:	d0 93 a3 06 	sts	0x06A3, r29
    3114:	c0 93 a2 06 	sts	0x06A2, r28
		}
		index++;
    3118:	80 91 9c 06 	lds	r24, 0x069C
    311c:	90 91 9d 06 	lds	r25, 0x069D
    3120:	01 96       	adiw	r24, 0x01	; 1
    3122:	90 93 9d 06 	sts	0x069D, r25
    3126:	80 93 9c 06 	sts	0x069C, r24
	ks0108ClearScreen()
	ks0108DrawLine(127, 0, 0, 0, BLACK);
	ks0108DrawLine(127, 63, 127, 0, BLACK);

	index = 0;
	for (x=126;x>=0;x--) {
    312a:	80 91 9e 06 	lds	r24, 0x069E
    312e:	90 91 9f 06 	lds	r25, 0x069F
    3132:	01 97       	sbiw	r24, 0x01	; 1
    3134:	90 93 9f 06 	sts	0x069F, r25
    3138:	80 93 9e 06 	sts	0x069E, r24
    313c:	c0 90 9e 06 	lds	r12, 0x069E
    3140:	d0 90 9f 06 	lds	r13, 0x069F
    3144:	d7 fe       	sbrs	r13, 7
    3146:	97 cf       	rjmp	.-210    	; 0x3076 <graph_setup+0x5e>
			temp = val;
		}
		index++;
//		for(volatile uint16_t k=0; k<20000; k++);
	}
	index = 127;
    3148:	8f e7       	ldi	r24, 0x7F	; 127
    314a:	90 e0       	ldi	r25, 0x00	; 0
    314c:	90 93 9d 06 	sts	0x069D, r25
    3150:	80 93 9c 06 	sts	0x069C, r24

	ks0108FillRect(10, 23, 110, 14, WHITE);
    3154:	8a e0       	ldi	r24, 0x0A	; 10
    3156:	67 e1       	ldi	r22, 0x17	; 23
    3158:	4e e6       	ldi	r20, 0x6E	; 110
    315a:	2e e0       	ldi	r18, 0x0E	; 14
    315c:	00 e0       	ldi	r16, 0x00	; 0
    315e:	0e 94 e4 0c 	call	0x19c8	; 0x19c8 <ks0108FillRect>
	ks0108DrawRect(10, 23, 110, 14, BLACK);
    3162:	8a e0       	ldi	r24, 0x0A	; 10
    3164:	67 e1       	ldi	r22, 0x17	; 23
    3166:	4e e6       	ldi	r20, 0x6E	; 110
    3168:	2e e0       	ldi	r18, 0x0E	; 14
    316a:	0f ef       	ldi	r16, 0xFF	; 255
    316c:	0e 94 7d 0e 	call	0x1cfa	; 0x1cfa <ks0108DrawRect>

	display_message(1,13,25,"Acceleration   vs.   Time");
    3170:	81 e0       	ldi	r24, 0x01	; 1
    3172:	6d e0       	ldi	r22, 0x0D	; 13
    3174:	49 e1       	ldi	r20, 0x19	; 25
    3176:	2c e7       	ldi	r18, 0x7C	; 124
    3178:	34 e0       	ldi	r19, 0x04	; 4
    317a:	0e 94 49 16 	call	0x2c92	; 0x2c92 <display_message>

	ccw = -5;
    317e:	8b ef       	ldi	r24, 0xFB	; 251
    3180:	9f ef       	ldi	r25, 0xFF	; 255
    3182:	90 93 91 06 	sts	0x0691, r25
    3186:	80 93 90 06 	sts	0x0690, r24
	cw = -5;
    318a:	90 93 93 06 	sts	0x0693, r25
    318e:	80 93 92 06 	sts	0x0692, r24
	
}
    3192:	df 91       	pop	r29
    3194:	cf 91       	pop	r28
    3196:	1f 91       	pop	r17
    3198:	0f 91       	pop	r16
    319a:	ff 90       	pop	r15
    319c:	ef 90       	pop	r14
    319e:	df 90       	pop	r13
    31a0:	cf 90       	pop	r12
    31a2:	bf 90       	pop	r11
    31a4:	af 90       	pop	r10
    31a6:	9f 90       	pop	r9
    31a8:	8f 90       	pop	r8
    31aa:	08 95       	ret

000031ac <summary_setup>:
		if (pgm_state == DATA_COLLECTED) {
			display_message(1,5,40,"Done");
		}
}

void summary_setup(float max_acc, float max_vel) {
    31ac:	4f 92       	push	r4
    31ae:	5f 92       	push	r5
    31b0:	6f 92       	push	r6
    31b2:	7f 92       	push	r7
    31b4:	8f 92       	push	r8
    31b6:	9f 92       	push	r9
    31b8:	af 92       	push	r10
    31ba:	bf 92       	push	r11
    31bc:	cf 92       	push	r12
    31be:	df 92       	push	r13
    31c0:	ef 92       	push	r14
    31c2:	ff 92       	push	r15
    31c4:	0f 93       	push	r16
    31c6:	1f 93       	push	r17
    31c8:	df 93       	push	r29
    31ca:	cf 93       	push	r28
    31cc:	00 d0       	rcall	.+0      	; 0x31ce <summary_setup+0x22>
    31ce:	00 d0       	rcall	.+0      	; 0x31d0 <summary_setup+0x24>
    31d0:	cd b7       	in	r28, 0x3d	; 61
    31d2:	de b7       	in	r29, 0x3e	; 62
    31d4:	5b 01       	movw	r10, r22
    31d6:	6c 01       	movw	r12, r24
    31d8:	29 83       	std	Y+1, r18	; 0x01
    31da:	3a 83       	std	Y+2, r19	; 0x02
    31dc:	4b 83       	std	Y+3, r20	; 0x03
    31de:	5c 83       	std	Y+4, r21	; 0x04

	//weight = 40;

	float force = weight*max_acc;
    31e0:	60 91 15 05 	lds	r22, 0x0515
    31e4:	70 91 16 05 	lds	r23, 0x0516
    31e8:	80 91 17 05 	lds	r24, 0x0517
    31ec:	90 91 18 05 	lds	r25, 0x0518
    31f0:	a6 01       	movw	r20, r12
    31f2:	95 01       	movw	r18, r10
    31f4:	0e 94 35 28 	call	0x506a	; 0x506a <__mulsf3>
    31f8:	2b 01       	movw	r4, r22
    31fa:	3c 01       	movw	r6, r24
	float power = force*max_vel;


		ks0108ClearScreen()
    31fc:	80 e0       	ldi	r24, 0x00	; 0
    31fe:	60 e0       	ldi	r22, 0x00	; 0
    3200:	4f e7       	ldi	r20, 0x7F	; 127
    3202:	2f e3       	ldi	r18, 0x3F	; 63
    3204:	00 e0       	ldi	r16, 0x00	; 0
    3206:	0e 94 e4 0c 	call	0x19c8	; 0x19c8 <ks0108FillRect>


		// ACCELERATION
		ks0108DrawRect(58, 45, 69, 14, BLACK);
    320a:	8a e3       	ldi	r24, 0x3A	; 58
    320c:	6d e2       	ldi	r22, 0x2D	; 45
    320e:	45 e4       	ldi	r20, 0x45	; 69
    3210:	2e e0       	ldi	r18, 0x0E	; 14
    3212:	0f ef       	ldi	r16, 0xFF	; 255
    3214:	0e 94 7d 0e 	call	0x1cfa	; 0x1cfa <ks0108DrawRect>
		ks0108DrawRect(0, 45, 58, 14, BLACK);
    3218:	80 e0       	ldi	r24, 0x00	; 0
    321a:	6d e2       	ldi	r22, 0x2D	; 45
    321c:	4a e3       	ldi	r20, 0x3A	; 58
    321e:	2e e0       	ldi	r18, 0x0E	; 14
    3220:	0e 94 7d 0e 	call	0x1cfa	; 0x1cfa <ks0108DrawRect>
		display_message(1,67,47,"2nd  Pull  Acc");
    3224:	81 e0       	ldi	r24, 0x01	; 1
    3226:	63 e4       	ldi	r22, 0x43	; 67
    3228:	4f e2       	ldi	r20, 0x2F	; 47
    322a:	26 e9       	ldi	r18, 0x96	; 150
    322c:	34 e0       	ldi	r19, 0x04	; 4
    322e:	0e 94 49 16 	call	0x2c92	; 0x2c92 <display_message>
		display_message(1,2,47,"m/s\"");
    3232:	81 e0       	ldi	r24, 0x01	; 1
    3234:	62 e0       	ldi	r22, 0x02	; 2
    3236:	4f e2       	ldi	r20, 0x2F	; 47
    3238:	25 ea       	ldi	r18, 0xA5	; 165
    323a:	34 e0       	ldi	r19, 0x04	; 4
    323c:	0e 94 49 16 	call	0x2c92	; 0x2c92 <display_message>
		ks0108GotoXY(27,47);
    3240:	8b e1       	ldi	r24, 0x1B	; 27
    3242:	6f e2       	ldi	r22, 0x2F	; 47
    3244:	0e 94 cb 09 	call	0x1396	; 0x1396 <ks0108GotoXY>
		sprintf(msg, "%.1f", max_acc);
    3248:	8d b7       	in	r24, 0x3d	; 61
    324a:	9e b7       	in	r25, 0x3e	; 62
    324c:	08 97       	sbiw	r24, 0x08	; 8
    324e:	0f b6       	in	r0, 0x3f	; 63
    3250:	f8 94       	cli
    3252:	9e bf       	out	0x3e, r25	; 62
    3254:	0f be       	out	0x3f, r0	; 63
    3256:	8d bf       	out	0x3d, r24	; 61
    3258:	ed b7       	in	r30, 0x3d	; 61
    325a:	fe b7       	in	r31, 0x3e	; 62
    325c:	31 96       	adiw	r30, 0x01	; 1
    325e:	4a e9       	ldi	r20, 0x9A	; 154
    3260:	e4 2e       	mov	r14, r20
    3262:	4e e0       	ldi	r20, 0x0E	; 14
    3264:	f4 2e       	mov	r15, r20
    3266:	ad b7       	in	r26, 0x3d	; 61
    3268:	be b7       	in	r27, 0x3e	; 62
    326a:	12 96       	adiw	r26, 0x02	; 2
    326c:	fc 92       	st	X, r15
    326e:	ee 92       	st	-X, r14
    3270:	11 97       	sbiw	r26, 0x01	; 1
    3272:	3a ea       	ldi	r19, 0xAA	; 170
    3274:	83 2e       	mov	r8, r19
    3276:	34 e0       	ldi	r19, 0x04	; 4
    3278:	93 2e       	mov	r9, r19
    327a:	93 82       	std	Z+3, r9	; 0x03
    327c:	82 82       	std	Z+2, r8	; 0x02
    327e:	a4 82       	std	Z+4, r10	; 0x04
    3280:	b5 82       	std	Z+5, r11	; 0x05
    3282:	c6 82       	std	Z+6, r12	; 0x06
    3284:	d7 82       	std	Z+7, r13	; 0x07
    3286:	0e 94 5a 2a 	call	0x54b4	; 0x54b4 <sprintf>
		ks0108Puts(reverse(msg));
    328a:	ed b7       	in	r30, 0x3d	; 61
    328c:	fe b7       	in	r31, 0x3e	; 62
    328e:	38 96       	adiw	r30, 0x08	; 8
    3290:	0f b6       	in	r0, 0x3f	; 63
    3292:	f8 94       	cli
    3294:	fe bf       	out	0x3e, r31	; 62
    3296:	0f be       	out	0x3f, r0	; 63
    3298:	ed bf       	out	0x3d, r30	; 61
    329a:	c7 01       	movw	r24, r14
    329c:	0e 94 2a 16 	call	0x2c54	; 0x2c54 <reverse>
    32a0:	0e 94 e7 0b 	call	0x17ce	; 0x17ce <ks0108Puts>

		// VELOCITY
		ks0108DrawRect(58, 31, 69, 14, BLACK);
    32a4:	8a e3       	ldi	r24, 0x3A	; 58
    32a6:	6f e1       	ldi	r22, 0x1F	; 31
    32a8:	45 e4       	ldi	r20, 0x45	; 69
    32aa:	2e e0       	ldi	r18, 0x0E	; 14
    32ac:	0e 94 7d 0e 	call	0x1cfa	; 0x1cfa <ks0108DrawRect>
		ks0108DrawRect(0, 31, 58, 14, BLACK);
    32b0:	80 e0       	ldi	r24, 0x00	; 0
    32b2:	6f e1       	ldi	r22, 0x1F	; 31
    32b4:	4a e3       	ldi	r20, 0x3A	; 58
    32b6:	2e e0       	ldi	r18, 0x0E	; 14
    32b8:	0e 94 7d 0e 	call	0x1cfa	; 0x1cfa <ks0108DrawRect>
		display_message(1,61,33,"Peak Velocity");
    32bc:	81 e0       	ldi	r24, 0x01	; 1
    32be:	6d e3       	ldi	r22, 0x3D	; 61
    32c0:	41 e2       	ldi	r20, 0x21	; 33
    32c2:	2f ea       	ldi	r18, 0xAF	; 175
    32c4:	34 e0       	ldi	r19, 0x04	; 4
    32c6:	0e 94 49 16 	call	0x2c92	; 0x2c92 <display_message>
		display_message(1,6,33,"m/s");
    32ca:	81 e0       	ldi	r24, 0x01	; 1
    32cc:	66 e0       	ldi	r22, 0x06	; 6
    32ce:	41 e2       	ldi	r20, 0x21	; 33
    32d0:	2d eb       	ldi	r18, 0xBD	; 189
    32d2:	34 e0       	ldi	r19, 0x04	; 4
    32d4:	0e 94 49 16 	call	0x2c92	; 0x2c92 <display_message>
		ks0108GotoXY(27,33);
    32d8:	8b e1       	ldi	r24, 0x1B	; 27
    32da:	61 e2       	ldi	r22, 0x21	; 33
    32dc:	0e 94 cb 09 	call	0x1396	; 0x1396 <ks0108GotoXY>
		sprintf(msg, "%.2f", max_vel);
    32e0:	8d b7       	in	r24, 0x3d	; 61
    32e2:	9e b7       	in	r25, 0x3e	; 62
    32e4:	08 97       	sbiw	r24, 0x08	; 8
    32e6:	0f b6       	in	r0, 0x3f	; 63
    32e8:	f8 94       	cli
    32ea:	9e bf       	out	0x3e, r25	; 62
    32ec:	0f be       	out	0x3f, r0	; 63
    32ee:	8d bf       	out	0x3d, r24	; 61
    32f0:	ed b7       	in	r30, 0x3d	; 61
    32f2:	fe b7       	in	r31, 0x3e	; 62
    32f4:	31 96       	adiw	r30, 0x01	; 1
    32f6:	ad b7       	in	r26, 0x3d	; 61
    32f8:	be b7       	in	r27, 0x3e	; 62
    32fa:	12 96       	adiw	r26, 0x02	; 2
    32fc:	fc 92       	st	X, r15
    32fe:	ee 92       	st	-X, r14
    3300:	11 97       	sbiw	r26, 0x01	; 1
    3302:	81 ec       	ldi	r24, 0xC1	; 193
    3304:	94 e0       	ldi	r25, 0x04	; 4
    3306:	93 83       	std	Z+3, r25	; 0x03
    3308:	82 83       	std	Z+2, r24	; 0x02
    330a:	89 81       	ldd	r24, Y+1	; 0x01
    330c:	9a 81       	ldd	r25, Y+2	; 0x02
    330e:	ab 81       	ldd	r26, Y+3	; 0x03
    3310:	bc 81       	ldd	r27, Y+4	; 0x04
    3312:	84 83       	std	Z+4, r24	; 0x04
    3314:	95 83       	std	Z+5, r25	; 0x05
    3316:	a6 83       	std	Z+6, r26	; 0x06
    3318:	b7 83       	std	Z+7, r27	; 0x07
    331a:	0e 94 5a 2a 	call	0x54b4	; 0x54b4 <sprintf>
		ks0108Puts(reverse(msg));
    331e:	ad b7       	in	r26, 0x3d	; 61
    3320:	be b7       	in	r27, 0x3e	; 62
    3322:	18 96       	adiw	r26, 0x08	; 8
    3324:	0f b6       	in	r0, 0x3f	; 63
    3326:	f8 94       	cli
    3328:	be bf       	out	0x3e, r27	; 62
    332a:	0f be       	out	0x3f, r0	; 63
    332c:	ad bf       	out	0x3d, r26	; 61
    332e:	c7 01       	movw	r24, r14
    3330:	0e 94 2a 16 	call	0x2c54	; 0x2c54 <reverse>
    3334:	0e 94 e7 0b 	call	0x17ce	; 0x17ce <ks0108Puts>


		// PEAK FORCE
		ks0108DrawRect(58, 17, 69, 14, BLACK);
    3338:	8a e3       	ldi	r24, 0x3A	; 58
    333a:	61 e1       	ldi	r22, 0x11	; 17
    333c:	45 e4       	ldi	r20, 0x45	; 69
    333e:	2e e0       	ldi	r18, 0x0E	; 14
    3340:	0e 94 7d 0e 	call	0x1cfa	; 0x1cfa <ks0108DrawRect>
		ks0108DrawRect(0, 17, 58, 14, BLACK);
    3344:	80 e0       	ldi	r24, 0x00	; 0
    3346:	61 e1       	ldi	r22, 0x11	; 17
    3348:	4a e3       	ldi	r20, 0x3A	; 58
    334a:	2e e0       	ldi	r18, 0x0E	; 14
    334c:	0e 94 7d 0e 	call	0x1cfa	; 0x1cfa <ks0108DrawRect>
		display_message(1,70,19,"Peak  Force");
    3350:	81 e0       	ldi	r24, 0x01	; 1
    3352:	66 e4       	ldi	r22, 0x46	; 70
    3354:	43 e1       	ldi	r20, 0x13	; 19
    3356:	26 ec       	ldi	r18, 0xC6	; 198
    3358:	34 e0       	ldi	r19, 0x04	; 4
    335a:	0e 94 49 16 	call	0x2c92	; 0x2c92 <display_message>
		display_message(1,6,19,"N");
    335e:	81 e0       	ldi	r24, 0x01	; 1
    3360:	66 e0       	ldi	r22, 0x06	; 6
    3362:	43 e1       	ldi	r20, 0x13	; 19
    3364:	22 ed       	ldi	r18, 0xD2	; 210
    3366:	34 e0       	ldi	r19, 0x04	; 4
    3368:	0e 94 49 16 	call	0x2c92	; 0x2c92 <display_message>
		ks0108GotoXY(22,19);
    336c:	86 e1       	ldi	r24, 0x16	; 22
    336e:	63 e1       	ldi	r22, 0x13	; 19
    3370:	0e 94 cb 09 	call	0x1396	; 0x1396 <ks0108GotoXY>
		sprintf(msg, "%.1f", force);
    3374:	ed b7       	in	r30, 0x3d	; 61
    3376:	fe b7       	in	r31, 0x3e	; 62
    3378:	38 97       	sbiw	r30, 0x08	; 8
    337a:	0f b6       	in	r0, 0x3f	; 63
    337c:	f8 94       	cli
    337e:	fe bf       	out	0x3e, r31	; 62
    3380:	0f be       	out	0x3f, r0	; 63
    3382:	ed bf       	out	0x3d, r30	; 61
    3384:	31 96       	adiw	r30, 0x01	; 1
    3386:	ad b7       	in	r26, 0x3d	; 61
    3388:	be b7       	in	r27, 0x3e	; 62
    338a:	12 96       	adiw	r26, 0x02	; 2
    338c:	fc 92       	st	X, r15
    338e:	ee 92       	st	-X, r14
    3390:	11 97       	sbiw	r26, 0x01	; 1
    3392:	93 82       	std	Z+3, r9	; 0x03
    3394:	82 82       	std	Z+2, r8	; 0x02
    3396:	44 82       	std	Z+4, r4	; 0x04
    3398:	55 82       	std	Z+5, r5	; 0x05
    339a:	66 82       	std	Z+6, r6	; 0x06
    339c:	77 82       	std	Z+7, r7	; 0x07
    339e:	0e 94 5a 2a 	call	0x54b4	; 0x54b4 <sprintf>
		ks0108Puts(reverse(msg));
    33a2:	ed b7       	in	r30, 0x3d	; 61
    33a4:	fe b7       	in	r31, 0x3e	; 62
    33a6:	38 96       	adiw	r30, 0x08	; 8
    33a8:	0f b6       	in	r0, 0x3f	; 63
    33aa:	f8 94       	cli
    33ac:	fe bf       	out	0x3e, r31	; 62
    33ae:	0f be       	out	0x3f, r0	; 63
    33b0:	ed bf       	out	0x3d, r30	; 61
    33b2:	c7 01       	movw	r24, r14
    33b4:	0e 94 2a 16 	call	0x2c54	; 0x2c54 <reverse>
    33b8:	0e 94 e7 0b 	call	0x17ce	; 0x17ce <ks0108Puts>

		// PEAK POWER
		ks0108DrawRect(58, 3, 69, 14, BLACK);
    33bc:	8a e3       	ldi	r24, 0x3A	; 58
    33be:	63 e0       	ldi	r22, 0x03	; 3
    33c0:	45 e4       	ldi	r20, 0x45	; 69
    33c2:	2e e0       	ldi	r18, 0x0E	; 14
    33c4:	0e 94 7d 0e 	call	0x1cfa	; 0x1cfa <ks0108DrawRect>
		ks0108DrawRect(0, 3, 58, 14, BLACK);
    33c8:	80 e0       	ldi	r24, 0x00	; 0
    33ca:	63 e0       	ldi	r22, 0x03	; 3
    33cc:	4a e3       	ldi	r20, 0x3A	; 58
    33ce:	2e e0       	ldi	r18, 0x0E	; 14
    33d0:	0e 94 7d 0e 	call	0x1cfa	; 0x1cfa <ks0108DrawRect>
		display_message(1,70,5,"Peak  Power");
    33d4:	81 e0       	ldi	r24, 0x01	; 1
    33d6:	66 e4       	ldi	r22, 0x46	; 70
    33d8:	45 e0       	ldi	r20, 0x05	; 5
    33da:	24 ed       	ldi	r18, 0xD4	; 212
    33dc:	34 e0       	ldi	r19, 0x04	; 4
    33de:	0e 94 49 16 	call	0x2c92	; 0x2c92 <display_message>
		display_message(1,6,5,"W");
    33e2:	81 e0       	ldi	r24, 0x01	; 1
    33e4:	66 e0       	ldi	r22, 0x06	; 6
    33e6:	45 e0       	ldi	r20, 0x05	; 5
    33e8:	20 ee       	ldi	r18, 0xE0	; 224
    33ea:	34 e0       	ldi	r19, 0x04	; 4
    33ec:	0e 94 49 16 	call	0x2c92	; 0x2c92 <display_message>
		ks0108GotoXY(22,5);
    33f0:	86 e1       	ldi	r24, 0x16	; 22
    33f2:	65 e0       	ldi	r22, 0x05	; 5
    33f4:	0e 94 cb 09 	call	0x1396	; 0x1396 <ks0108GotoXY>
		sprintf(msg, "%.0f", power);
    33f8:	8d b7       	in	r24, 0x3d	; 61
    33fa:	9e b7       	in	r25, 0x3e	; 62
    33fc:	08 97       	sbiw	r24, 0x08	; 8
    33fe:	0f b6       	in	r0, 0x3f	; 63
    3400:	f8 94       	cli
    3402:	9e bf       	out	0x3e, r25	; 62
    3404:	0f be       	out	0x3f, r0	; 63
    3406:	8d bf       	out	0x3d, r24	; 61
    3408:	0d b7       	in	r16, 0x3d	; 61
    340a:	1e b7       	in	r17, 0x3e	; 62
    340c:	0f 5f       	subi	r16, 0xFF	; 255
    340e:	1f 4f       	sbci	r17, 0xFF	; 255
    3410:	ad b7       	in	r26, 0x3d	; 61
    3412:	be b7       	in	r27, 0x3e	; 62
    3414:	12 96       	adiw	r26, 0x02	; 2
    3416:	fc 92       	st	X, r15
    3418:	ee 92       	st	-X, r14
    341a:	11 97       	sbiw	r26, 0x01	; 1
    341c:	82 ee       	ldi	r24, 0xE2	; 226
    341e:	94 e0       	ldi	r25, 0x04	; 4
    3420:	f8 01       	movw	r30, r16
    3422:	93 83       	std	Z+3, r25	; 0x03
    3424:	82 83       	std	Z+2, r24	; 0x02
    3426:	c3 01       	movw	r24, r6
    3428:	b2 01       	movw	r22, r4
    342a:	29 81       	ldd	r18, Y+1	; 0x01
    342c:	3a 81       	ldd	r19, Y+2	; 0x02
    342e:	4b 81       	ldd	r20, Y+3	; 0x03
    3430:	5c 81       	ldd	r21, Y+4	; 0x04
    3432:	0e 94 35 28 	call	0x506a	; 0x506a <__mulsf3>
    3436:	d8 01       	movw	r26, r16
    3438:	14 96       	adiw	r26, 0x04	; 4
    343a:	6d 93       	st	X+, r22
    343c:	7d 93       	st	X+, r23
    343e:	8d 93       	st	X+, r24
    3440:	9c 93       	st	X, r25
    3442:	17 97       	sbiw	r26, 0x07	; 7
    3444:	0e 94 5a 2a 	call	0x54b4	; 0x54b4 <sprintf>
		ks0108Puts(reverse(msg));
    3448:	ed b7       	in	r30, 0x3d	; 61
    344a:	fe b7       	in	r31, 0x3e	; 62
    344c:	38 96       	adiw	r30, 0x08	; 8
    344e:	0f b6       	in	r0, 0x3f	; 63
    3450:	f8 94       	cli
    3452:	fe bf       	out	0x3e, r31	; 62
    3454:	0f be       	out	0x3f, r0	; 63
    3456:	ed bf       	out	0x3d, r30	; 61
    3458:	c7 01       	movw	r24, r14
    345a:	0e 94 2a 16 	call	0x2c54	; 0x2c54 <reverse>
    345e:	0e 94 e7 0b 	call	0x17ce	; 0x17ce <ks0108Puts>
//ks0108SelectFont(small, ks0108ReadFontData, BLACK);
//		ks0108GotoXY(20,5);
//		sprintf(msg, "%.1f", power);
//		ks0108Puts(reverse(msg));

}
    3462:	0f 90       	pop	r0
    3464:	0f 90       	pop	r0
    3466:	0f 90       	pop	r0
    3468:	0f 90       	pop	r0
    346a:	cf 91       	pop	r28
    346c:	df 91       	pop	r29
    346e:	1f 91       	pop	r17
    3470:	0f 91       	pop	r16
    3472:	ff 90       	pop	r15
    3474:	ef 90       	pop	r14
    3476:	df 90       	pop	r13
    3478:	cf 90       	pop	r12
    347a:	bf 90       	pop	r11
    347c:	af 90       	pop	r10
    347e:	9f 90       	pop	r9
    3480:	8f 90       	pop	r8
    3482:	7f 90       	pop	r7
    3484:	6f 90       	pop	r6
    3486:	5f 90       	pop	r5
    3488:	4f 90       	pop	r4
    348a:	08 95       	ret

0000348c <main_menu_setup>:
			ccw = 0;
			cw = 0;
		}
}

void main_menu_setup(void) {
    348c:	0f 93       	push	r16
    348e:	df 93       	push	r29
    3490:	cf 93       	push	r28
    3492:	00 d0       	rcall	.+0      	; 0x3494 <main_menu_setup+0x8>
    3494:	cd b7       	in	r28, 0x3d	; 61
    3496:	de b7       	in	r29, 0x3e	; 62
	ks0108ClearScreen()
    3498:	80 e0       	ldi	r24, 0x00	; 0
    349a:	60 e0       	ldi	r22, 0x00	; 0
    349c:	4f e7       	ldi	r20, 0x7F	; 127
    349e:	2f e3       	ldi	r18, 0x3F	; 63
    34a0:	00 e0       	ldi	r16, 0x00	; 0
    34a2:	0e 94 e4 0c 	call	0x19c8	; 0x19c8 <ks0108FillRect>
	for(volatile uint16_t i=0; i<5000; i++);
    34a6:	1a 82       	std	Y+2, r1	; 0x02
    34a8:	19 82       	std	Y+1, r1	; 0x01
    34aa:	05 c0       	rjmp	.+10     	; 0x34b6 <main_menu_setup+0x2a>
    34ac:	89 81       	ldd	r24, Y+1	; 0x01
    34ae:	9a 81       	ldd	r25, Y+2	; 0x02
    34b0:	01 96       	adiw	r24, 0x01	; 1
    34b2:	9a 83       	std	Y+2, r25	; 0x02
    34b4:	89 83       	std	Y+1, r24	; 0x01
    34b6:	89 81       	ldd	r24, Y+1	; 0x01
    34b8:	9a 81       	ldd	r25, Y+2	; 0x02
    34ba:	88 58       	subi	r24, 0x88	; 136
    34bc:	93 41       	sbci	r25, 0x13	; 19
    34be:	b0 f3       	brcs	.-20     	; 0x34ac <main_menu_setup+0x20>
	ks0108ClearScreen()
    34c0:	80 e0       	ldi	r24, 0x00	; 0
    34c2:	60 e0       	ldi	r22, 0x00	; 0
    34c4:	4f e7       	ldi	r20, 0x7F	; 127
    34c6:	2f e3       	ldi	r18, 0x3F	; 63
    34c8:	00 e0       	ldi	r16, 0x00	; 0
    34ca:	0e 94 e4 0c 	call	0x19c8	; 0x19c8 <ks0108FillRect>
	
	display_message(0,47,38,">   PC   Mode");
    34ce:	80 e0       	ldi	r24, 0x00	; 0
    34d0:	6f e2       	ldi	r22, 0x2F	; 47
    34d2:	46 e2       	ldi	r20, 0x26	; 38
    34d4:	27 ee       	ldi	r18, 0xE7	; 231
    34d6:	34 e0       	ldi	r19, 0x04	; 4
    34d8:	0e 94 49 16 	call	0x2c92	; 0x2c92 <display_message>

	display_message(0,60,20,">   Snatch");
    34dc:	80 e0       	ldi	r24, 0x00	; 0
    34de:	6c e3       	ldi	r22, 0x3C	; 60
    34e0:	44 e1       	ldi	r20, 0x14	; 20
    34e2:	25 ef       	ldi	r18, 0xF5	; 245
    34e4:	34 e0       	ldi	r19, 0x04	; 4
    34e6:	0e 94 49 16 	call	0x2c92	; 0x2c92 <display_message>

	display_message(0,26,4,">   Clean   &   Jerk");
    34ea:	80 e0       	ldi	r24, 0x00	; 0
    34ec:	6a e1       	ldi	r22, 0x1A	; 26
    34ee:	44 e0       	ldi	r20, 0x04	; 4
    34f0:	20 e0       	ldi	r18, 0x00	; 0
    34f2:	35 e0       	ldi	r19, 0x05	; 5
    34f4:	0e 94 49 16 	call	0x2c92	; 0x2c92 <display_message>

	// initially select first option
	//prev_menu_option = 1;
	//ks0108InvertRect(21, 20, 94, 15);
	prev_menu_option = 3;
    34f8:	83 e0       	ldi	r24, 0x03	; 3
    34fa:	90 e0       	ldi	r25, 0x00	; 0
    34fc:	90 93 1a 05 	sts	0x051A, r25
    3500:	80 93 19 05 	sts	0x0519, r24
	ks0108InvertRect(21, 38, 94, 15);
    3504:	85 e1       	ldi	r24, 0x15	; 21
    3506:	66 e2       	ldi	r22, 0x26	; 38
    3508:	4e e5       	ldi	r20, 0x5E	; 94
    350a:	2f e0       	ldi	r18, 0x0F	; 15
    350c:	0e 94 3b 0c 	call	0x1876	; 0x1876 <ks0108InvertRect>
}
    3510:	0f 90       	pop	r0
    3512:	0f 90       	pop	r0
    3514:	cf 91       	pop	r28
    3516:	df 91       	pop	r29
    3518:	0f 91       	pop	r16
    351a:	08 95       	ret

0000351c <update_encoder>:

}



void update_encoder(double max, uint8_t pgm_state) {
    351c:	af 92       	push	r10
    351e:	bf 92       	push	r11
    3520:	cf 92       	push	r12
    3522:	df 92       	push	r13
    3524:	ff 92       	push	r15
    3526:	0f 93       	push	r16
    3528:	1f 93       	push	r17
    352a:	5b 01       	movw	r10, r22
    352c:	6c 01       	movw	r12, r24
    352e:	f4 2e       	mov	r15, r20
		// Main Menu ------------------------------------------

		// anti clockwise
		if ((ccw >= 10)&&(pgm_state == MAIN_MENU)) {
    3530:	80 91 90 06 	lds	r24, 0x0690
    3534:	90 91 91 06 	lds	r25, 0x0691
    3538:	0a 97       	sbiw	r24, 0x0a	; 10
    353a:	0c f4       	brge	.+2      	; 0x353e <update_encoder+0x22>
    353c:	48 c0       	rjmp	.+144    	; 0x35ce <update_encoder+0xb2>
    353e:	81 e0       	ldi	r24, 0x01	; 1
    3540:	48 17       	cp	r20, r24
    3542:	09 f0       	breq	.+2      	; 0x3546 <update_encoder+0x2a>
    3544:	44 c0       	rjmp	.+136    	; 0x35ce <update_encoder+0xb2>
			if (prev_menu_option == 2) {
    3546:	80 91 19 05 	lds	r24, 0x0519
    354a:	90 91 1a 05 	lds	r25, 0x051A
    354e:	82 30       	cpi	r24, 0x02	; 2
    3550:	91 05       	cpc	r25, r1
    3552:	79 f4       	brne	.+30     	; 0x3572 <update_encoder+0x56>
				// un-invert c+j
				ks0108InvertRect(21, 4, 94, 15);
    3554:	85 e1       	ldi	r24, 0x15	; 21
    3556:	64 e0       	ldi	r22, 0x04	; 4
    3558:	4e e5       	ldi	r20, 0x5E	; 94
    355a:	2f e0       	ldi	r18, 0x0F	; 15
    355c:	0e 94 3b 0c 	call	0x1876	; 0x1876 <ks0108InvertRect>
				// invert snatch
				ks0108InvertRect(21, 20, 94, 15);
    3560:	85 e1       	ldi	r24, 0x15	; 21
    3562:	64 e1       	ldi	r22, 0x14	; 20
    3564:	4e e5       	ldi	r20, 0x5E	; 94
    3566:	2f e0       	ldi	r18, 0x0F	; 15
    3568:	0e 94 3b 0c 	call	0x1876	; 0x1876 <ks0108InvertRect>
				prev_menu_option = 1;
    356c:	81 e0       	ldi	r24, 0x01	; 1
    356e:	90 e0       	ldi	r25, 0x00	; 0
    3570:	22 c0       	rjmp	.+68     	; 0x35b6 <update_encoder+0x9a>
			}

			else if (prev_menu_option == 3) {
    3572:	83 30       	cpi	r24, 0x03	; 3
    3574:	91 05       	cpc	r25, r1
    3576:	79 f4       	brne	.+30     	; 0x3596 <update_encoder+0x7a>
				// un-invert pc mode
				ks0108InvertRect(21, 38, 94, 15);
    3578:	85 e1       	ldi	r24, 0x15	; 21
    357a:	66 e2       	ldi	r22, 0x26	; 38
    357c:	4e e5       	ldi	r20, 0x5E	; 94
    357e:	2f e0       	ldi	r18, 0x0F	; 15
    3580:	0e 94 3b 0c 	call	0x1876	; 0x1876 <ks0108InvertRect>
				// invert c+j
				ks0108InvertRect(21, 4, 94, 15);
    3584:	85 e1       	ldi	r24, 0x15	; 21
    3586:	64 e0       	ldi	r22, 0x04	; 4
    3588:	4e e5       	ldi	r20, 0x5E	; 94
    358a:	2f e0       	ldi	r18, 0x0F	; 15
    358c:	0e 94 3b 0c 	call	0x1876	; 0x1876 <ks0108InvertRect>
				prev_menu_option = 2;
    3590:	82 e0       	ldi	r24, 0x02	; 2
    3592:	90 e0       	ldi	r25, 0x00	; 0
    3594:	10 c0       	rjmp	.+32     	; 0x35b6 <update_encoder+0x9a>
			}

			else if (prev_menu_option == 1) {
    3596:	01 97       	sbiw	r24, 0x01	; 1
    3598:	91 f4       	brne	.+36     	; 0x35be <update_encoder+0xa2>
				// un-invert snatch
				ks0108InvertRect(21, 20, 94, 15);
    359a:	85 e1       	ldi	r24, 0x15	; 21
    359c:	64 e1       	ldi	r22, 0x14	; 20
    359e:	4e e5       	ldi	r20, 0x5E	; 94
    35a0:	2f e0       	ldi	r18, 0x0F	; 15
    35a2:	0e 94 3b 0c 	call	0x1876	; 0x1876 <ks0108InvertRect>
				// invert pc mode
				ks0108InvertRect(21, 38, 94, 15);
    35a6:	85 e1       	ldi	r24, 0x15	; 21
    35a8:	66 e2       	ldi	r22, 0x26	; 38
    35aa:	4e e5       	ldi	r20, 0x5E	; 94
    35ac:	2f e0       	ldi	r18, 0x0F	; 15
    35ae:	0e 94 3b 0c 	call	0x1876	; 0x1876 <ks0108InvertRect>
				prev_menu_option = 3;
    35b2:	83 e0       	ldi	r24, 0x03	; 3
    35b4:	90 e0       	ldi	r25, 0x00	; 0
    35b6:	90 93 1a 05 	sts	0x051A, r25
    35ba:	80 93 19 05 	sts	0x0519, r24
			}
			ccw = 0;
    35be:	10 92 91 06 	sts	0x0691, r1
    35c2:	10 92 90 06 	sts	0x0690, r1
			cw = 0;
    35c6:	10 92 93 06 	sts	0x0693, r1
    35ca:	10 92 92 06 	sts	0x0692, r1
		}

		// clockwise
		if ((cw >= 10)&&(pgm_state == MAIN_MENU)) {
    35ce:	80 91 92 06 	lds	r24, 0x0692
    35d2:	90 91 93 06 	lds	r25, 0x0693
    35d6:	0a 97       	sbiw	r24, 0x0a	; 10
    35d8:	0c f4       	brge	.+2      	; 0x35dc <update_encoder+0xc0>
    35da:	48 c0       	rjmp	.+144    	; 0x366c <update_encoder+0x150>
    35dc:	91 e0       	ldi	r25, 0x01	; 1
    35de:	f9 16       	cp	r15, r25
    35e0:	09 f0       	breq	.+2      	; 0x35e4 <update_encoder+0xc8>
    35e2:	44 c0       	rjmp	.+136    	; 0x366c <update_encoder+0x150>
			if (prev_menu_option == 2) {
    35e4:	80 91 19 05 	lds	r24, 0x0519
    35e8:	90 91 1a 05 	lds	r25, 0x051A
    35ec:	82 30       	cpi	r24, 0x02	; 2
    35ee:	91 05       	cpc	r25, r1
    35f0:	79 f4       	brne	.+30     	; 0x3610 <update_encoder+0xf4>
				// un-invert c+j
				ks0108InvertRect(21, 4, 94, 15);
    35f2:	85 e1       	ldi	r24, 0x15	; 21
    35f4:	64 e0       	ldi	r22, 0x04	; 4
    35f6:	4e e5       	ldi	r20, 0x5E	; 94
    35f8:	2f e0       	ldi	r18, 0x0F	; 15
    35fa:	0e 94 3b 0c 	call	0x1876	; 0x1876 <ks0108InvertRect>
				// invert pc mode
				ks0108InvertRect(21, 38, 94, 15);
    35fe:	85 e1       	ldi	r24, 0x15	; 21
    3600:	66 e2       	ldi	r22, 0x26	; 38
    3602:	4e e5       	ldi	r20, 0x5E	; 94
    3604:	2f e0       	ldi	r18, 0x0F	; 15
    3606:	0e 94 3b 0c 	call	0x1876	; 0x1876 <ks0108InvertRect>
				prev_menu_option = 3;
    360a:	83 e0       	ldi	r24, 0x03	; 3
    360c:	90 e0       	ldi	r25, 0x00	; 0
    360e:	22 c0       	rjmp	.+68     	; 0x3654 <update_encoder+0x138>
			}

			else if (prev_menu_option == 3) {
    3610:	83 30       	cpi	r24, 0x03	; 3
    3612:	91 05       	cpc	r25, r1
    3614:	79 f4       	brne	.+30     	; 0x3634 <update_encoder+0x118>
				// un-invert pc mode
				ks0108InvertRect(21, 38, 94, 15);
    3616:	85 e1       	ldi	r24, 0x15	; 21
    3618:	66 e2       	ldi	r22, 0x26	; 38
    361a:	4e e5       	ldi	r20, 0x5E	; 94
    361c:	2f e0       	ldi	r18, 0x0F	; 15
    361e:	0e 94 3b 0c 	call	0x1876	; 0x1876 <ks0108InvertRect>
				// invert snatch
				ks0108InvertRect(21, 20, 94, 15);
    3622:	85 e1       	ldi	r24, 0x15	; 21
    3624:	64 e1       	ldi	r22, 0x14	; 20
    3626:	4e e5       	ldi	r20, 0x5E	; 94
    3628:	2f e0       	ldi	r18, 0x0F	; 15
    362a:	0e 94 3b 0c 	call	0x1876	; 0x1876 <ks0108InvertRect>
				prev_menu_option = 1;
    362e:	81 e0       	ldi	r24, 0x01	; 1
    3630:	90 e0       	ldi	r25, 0x00	; 0
    3632:	10 c0       	rjmp	.+32     	; 0x3654 <update_encoder+0x138>
			}

			else if (prev_menu_option == 1) {
    3634:	01 97       	sbiw	r24, 0x01	; 1
    3636:	91 f4       	brne	.+36     	; 0x365c <update_encoder+0x140>
				// un-invert snatch
				ks0108InvertRect(21, 20, 94, 15);
    3638:	85 e1       	ldi	r24, 0x15	; 21
    363a:	64 e1       	ldi	r22, 0x14	; 20
    363c:	4e e5       	ldi	r20, 0x5E	; 94
    363e:	2f e0       	ldi	r18, 0x0F	; 15
    3640:	0e 94 3b 0c 	call	0x1876	; 0x1876 <ks0108InvertRect>
				// invert c+j
				ks0108InvertRect(21, 4, 94, 15);
    3644:	85 e1       	ldi	r24, 0x15	; 21
    3646:	64 e0       	ldi	r22, 0x04	; 4
    3648:	4e e5       	ldi	r20, 0x5E	; 94
    364a:	2f e0       	ldi	r18, 0x0F	; 15
    364c:	0e 94 3b 0c 	call	0x1876	; 0x1876 <ks0108InvertRect>
				prev_menu_option = 2;
    3650:	82 e0       	ldi	r24, 0x02	; 2
    3652:	90 e0       	ldi	r25, 0x00	; 0
    3654:	90 93 1a 05 	sts	0x051A, r25
    3658:	80 93 19 05 	sts	0x0519, r24
			}
			ccw = 0;
    365c:	10 92 91 06 	sts	0x0691, r1
    3660:	10 92 90 06 	sts	0x0690, r1
			cw = 0;
    3664:	10 92 93 06 	sts	0x0693, r1
    3668:	10 92 92 06 	sts	0x0692, r1
		}


		// Weight Selection ------------------------------------
if(prev_menu_option != 3) {
    366c:	80 91 19 05 	lds	r24, 0x0519
    3670:	90 91 1a 05 	lds	r25, 0x051A
    3674:	03 97       	sbiw	r24, 0x03	; 3
    3676:	09 f4       	brne	.+2      	; 0x367a <update_encoder+0x15e>
    3678:	ca c0       	rjmp	.+404    	; 0x380e <update_encoder+0x2f2>
		if ((ccw >= 3)&&(pgm_state == WEIGHT_SEL)) {
    367a:	80 91 90 06 	lds	r24, 0x0690
    367e:	90 91 91 06 	lds	r25, 0x0691
    3682:	03 97       	sbiw	r24, 0x03	; 3
    3684:	0c f4       	brge	.+2      	; 0x3688 <update_encoder+0x16c>
    3686:	5f c0       	rjmp	.+190    	; 0x3746 <update_encoder+0x22a>
    3688:	a3 e0       	ldi	r26, 0x03	; 3
    368a:	fa 16       	cp	r15, r26
    368c:	09 f0       	breq	.+2      	; 0x3690 <update_encoder+0x174>
    368e:	5b c0       	rjmp	.+182    	; 0x3746 <update_encoder+0x22a>
//			if (fast_rotate) {
//				weight += 2;
//				fast_rotate = 0;
//			} else {
				weight += 0.5;
    3690:	60 91 15 05 	lds	r22, 0x0515
    3694:	70 91 16 05 	lds	r23, 0x0516
    3698:	80 91 17 05 	lds	r24, 0x0517
    369c:	90 91 18 05 	lds	r25, 0x0518
    36a0:	20 e0       	ldi	r18, 0x00	; 0
    36a2:	30 e0       	ldi	r19, 0x00	; 0
    36a4:	40 e0       	ldi	r20, 0x00	; 0
    36a6:	5f e3       	ldi	r21, 0x3F	; 63
    36a8:	0e 94 ec 26 	call	0x4dd8	; 0x4dd8 <__addsf3>
    36ac:	60 93 15 05 	sts	0x0515, r22
    36b0:	70 93 16 05 	sts	0x0516, r23
    36b4:	80 93 17 05 	sts	0x0517, r24
    36b8:	90 93 18 05 	sts	0x0518, r25
//			}
			ks0108FillRect(50, 8, 40, 20, WHITE);
    36bc:	82 e3       	ldi	r24, 0x32	; 50
    36be:	68 e0       	ldi	r22, 0x08	; 8
    36c0:	48 e2       	ldi	r20, 0x28	; 40
    36c2:	24 e1       	ldi	r18, 0x14	; 20
    36c4:	00 e0       	ldi	r16, 0x00	; 0
    36c6:	0e 94 e4 0c 	call	0x19c8	; 0x19c8 <ks0108FillRect>

			ks0108GotoXY(50,8);
    36ca:	82 e3       	ldi	r24, 0x32	; 50
    36cc:	68 e0       	ldi	r22, 0x08	; 8
    36ce:	0e 94 cb 09 	call	0x1396	; 0x1396 <ks0108GotoXY>
			sprintf(msg, "%3.1f", weight);
    36d2:	20 91 15 05 	lds	r18, 0x0515
    36d6:	30 91 16 05 	lds	r19, 0x0516
    36da:	40 91 17 05 	lds	r20, 0x0517
    36de:	50 91 18 05 	lds	r21, 0x0518
    36e2:	8d b7       	in	r24, 0x3d	; 61
    36e4:	9e b7       	in	r25, 0x3e	; 62
    36e6:	08 97       	sbiw	r24, 0x08	; 8
    36e8:	0f b6       	in	r0, 0x3f	; 63
    36ea:	f8 94       	cli
    36ec:	9e bf       	out	0x3e, r25	; 62
    36ee:	0f be       	out	0x3f, r0	; 63
    36f0:	8d bf       	out	0x3d, r24	; 61
    36f2:	ed b7       	in	r30, 0x3d	; 61
    36f4:	fe b7       	in	r31, 0x3e	; 62
    36f6:	31 96       	adiw	r30, 0x01	; 1
    36f8:	0a e9       	ldi	r16, 0x9A	; 154
    36fa:	1e e0       	ldi	r17, 0x0E	; 14
    36fc:	ad b7       	in	r26, 0x3d	; 61
    36fe:	be b7       	in	r27, 0x3e	; 62
    3700:	12 96       	adiw	r26, 0x02	; 2
    3702:	1c 93       	st	X, r17
    3704:	0e 93       	st	-X, r16
    3706:	11 97       	sbiw	r26, 0x01	; 1
    3708:	86 e7       	ldi	r24, 0x76	; 118
    370a:	94 e0       	ldi	r25, 0x04	; 4
    370c:	93 83       	std	Z+3, r25	; 0x03
    370e:	82 83       	std	Z+2, r24	; 0x02
    3710:	24 83       	std	Z+4, r18	; 0x04
    3712:	35 83       	std	Z+5, r19	; 0x05
    3714:	46 83       	std	Z+6, r20	; 0x06
    3716:	57 83       	std	Z+7, r21	; 0x07
    3718:	0e 94 5a 2a 	call	0x54b4	; 0x54b4 <sprintf>
			ks0108Puts(reverse(msg));
    371c:	8d b7       	in	r24, 0x3d	; 61
    371e:	9e b7       	in	r25, 0x3e	; 62
    3720:	08 96       	adiw	r24, 0x08	; 8
    3722:	0f b6       	in	r0, 0x3f	; 63
    3724:	f8 94       	cli
    3726:	9e bf       	out	0x3e, r25	; 62
    3728:	0f be       	out	0x3f, r0	; 63
    372a:	8d bf       	out	0x3d, r24	; 61
    372c:	c8 01       	movw	r24, r16
    372e:	0e 94 2a 16 	call	0x2c54	; 0x2c54 <reverse>
    3732:	0e 94 e7 0b 	call	0x17ce	; 0x17ce <ks0108Puts>

			ccw = 0;
    3736:	10 92 91 06 	sts	0x0691, r1
    373a:	10 92 90 06 	sts	0x0690, r1
			cw = 0;
    373e:	10 92 93 06 	sts	0x0693, r1
    3742:	10 92 92 06 	sts	0x0692, r1
		}

		if ((cw >= 3)&&(pgm_state == WEIGHT_SEL)) {
    3746:	80 91 92 06 	lds	r24, 0x0692
    374a:	90 91 93 06 	lds	r25, 0x0693
    374e:	03 97       	sbiw	r24, 0x03	; 3
    3750:	0c f4       	brge	.+2      	; 0x3754 <update_encoder+0x238>
    3752:	5d c0       	rjmp	.+186    	; 0x380e <update_encoder+0x2f2>
    3754:	93 e0       	ldi	r25, 0x03	; 3
    3756:	f9 16       	cp	r15, r25
    3758:	09 f0       	breq	.+2      	; 0x375c <update_encoder+0x240>
    375a:	59 c0       	rjmp	.+178    	; 0x380e <update_encoder+0x2f2>
//			if (fast_rotate) {
//				weight -= 2;
//				fast_rotate = 0;
//			} else {
				weight -= 0.5;
    375c:	60 91 15 05 	lds	r22, 0x0515
    3760:	70 91 16 05 	lds	r23, 0x0516
    3764:	80 91 17 05 	lds	r24, 0x0517
    3768:	90 91 18 05 	lds	r25, 0x0518
    376c:	20 e0       	ldi	r18, 0x00	; 0
    376e:	30 e0       	ldi	r19, 0x00	; 0
    3770:	40 e0       	ldi	r20, 0x00	; 0
    3772:	5f e3       	ldi	r21, 0x3F	; 63
    3774:	0e 94 eb 26 	call	0x4dd6	; 0x4dd6 <__subsf3>
    3778:	60 93 15 05 	sts	0x0515, r22
    377c:	70 93 16 05 	sts	0x0516, r23
    3780:	80 93 17 05 	sts	0x0517, r24
    3784:	90 93 18 05 	sts	0x0518, r25
//			}
			ks0108FillRect(50, 8, 40, 20, WHITE);
    3788:	82 e3       	ldi	r24, 0x32	; 50
    378a:	68 e0       	ldi	r22, 0x08	; 8
    378c:	48 e2       	ldi	r20, 0x28	; 40
    378e:	24 e1       	ldi	r18, 0x14	; 20
    3790:	00 e0       	ldi	r16, 0x00	; 0
    3792:	0e 94 e4 0c 	call	0x19c8	; 0x19c8 <ks0108FillRect>

			ks0108GotoXY(50,8);
    3796:	82 e3       	ldi	r24, 0x32	; 50
    3798:	68 e0       	ldi	r22, 0x08	; 8
    379a:	0e 94 cb 09 	call	0x1396	; 0x1396 <ks0108GotoXY>
			sprintf(msg, "%3.1f", weight);
    379e:	20 91 15 05 	lds	r18, 0x0515
    37a2:	30 91 16 05 	lds	r19, 0x0516
    37a6:	40 91 17 05 	lds	r20, 0x0517
    37aa:	50 91 18 05 	lds	r21, 0x0518
    37ae:	ad b7       	in	r26, 0x3d	; 61
    37b0:	be b7       	in	r27, 0x3e	; 62
    37b2:	18 97       	sbiw	r26, 0x08	; 8
    37b4:	0f b6       	in	r0, 0x3f	; 63
    37b6:	f8 94       	cli
    37b8:	be bf       	out	0x3e, r27	; 62
    37ba:	0f be       	out	0x3f, r0	; 63
    37bc:	ad bf       	out	0x3d, r26	; 61
    37be:	ed b7       	in	r30, 0x3d	; 61
    37c0:	fe b7       	in	r31, 0x3e	; 62
    37c2:	31 96       	adiw	r30, 0x01	; 1
    37c4:	0a e9       	ldi	r16, 0x9A	; 154
    37c6:	1e e0       	ldi	r17, 0x0E	; 14
    37c8:	12 96       	adiw	r26, 0x02	; 2
    37ca:	1c 93       	st	X, r17
    37cc:	0e 93       	st	-X, r16
    37ce:	11 97       	sbiw	r26, 0x01	; 1
    37d0:	86 e7       	ldi	r24, 0x76	; 118
    37d2:	94 e0       	ldi	r25, 0x04	; 4
    37d4:	93 83       	std	Z+3, r25	; 0x03
    37d6:	82 83       	std	Z+2, r24	; 0x02
    37d8:	24 83       	std	Z+4, r18	; 0x04
    37da:	35 83       	std	Z+5, r19	; 0x05
    37dc:	46 83       	std	Z+6, r20	; 0x06
    37de:	57 83       	std	Z+7, r21	; 0x07
    37e0:	0e 94 5a 2a 	call	0x54b4	; 0x54b4 <sprintf>
			ks0108Puts(reverse(msg));
    37e4:	8d b7       	in	r24, 0x3d	; 61
    37e6:	9e b7       	in	r25, 0x3e	; 62
    37e8:	08 96       	adiw	r24, 0x08	; 8
    37ea:	0f b6       	in	r0, 0x3f	; 63
    37ec:	f8 94       	cli
    37ee:	9e bf       	out	0x3e, r25	; 62
    37f0:	0f be       	out	0x3f, r0	; 63
    37f2:	8d bf       	out	0x3d, r24	; 61
    37f4:	c8 01       	movw	r24, r16
    37f6:	0e 94 2a 16 	call	0x2c54	; 0x2c54 <reverse>
    37fa:	0e 94 e7 0b 	call	0x17ce	; 0x17ce <ks0108Puts>

			ccw = 0;
    37fe:	10 92 91 06 	sts	0x0691, r1
    3802:	10 92 90 06 	sts	0x0690, r1
			cw = 0;
    3806:	10 92 93 06 	sts	0x0693, r1
    380a:	10 92 92 06 	sts	0x0692, r1
		// Summary of data -------------------------------------


		// Graph of acceleration -------------------------------

		if ((ccw >= 2)&&(pgm_state == ACC_GRAPH)) {
    380e:	80 91 90 06 	lds	r24, 0x0690
    3812:	90 91 91 06 	lds	r25, 0x0691
    3816:	02 97       	sbiw	r24, 0x02	; 2
    3818:	84 f0       	brlt	.+32     	; 0x383a <update_encoder+0x31e>
    381a:	99 e0       	ldi	r25, 0x09	; 9
    381c:	f9 16       	cp	r15, r25
    381e:	69 f4       	brne	.+26     	; 0x383a <update_encoder+0x31e>
			graph_scroll(max,0);
    3820:	c6 01       	movw	r24, r12
    3822:	b5 01       	movw	r22, r10
    3824:	40 e0       	ldi	r20, 0x00	; 0
    3826:	0e 94 1c 17 	call	0x2e38	; 0x2e38 <graph_scroll>

			ccw = 0;
    382a:	10 92 91 06 	sts	0x0691, r1
    382e:	10 92 90 06 	sts	0x0690, r1
			cw = 0;
    3832:	10 92 93 06 	sts	0x0693, r1
    3836:	10 92 92 06 	sts	0x0692, r1
		}

		if ((cw >= 2)&&(pgm_state == ACC_GRAPH)) {
    383a:	80 91 92 06 	lds	r24, 0x0692
    383e:	90 91 93 06 	lds	r25, 0x0693
    3842:	02 97       	sbiw	r24, 0x02	; 2
    3844:	84 f0       	brlt	.+32     	; 0x3866 <update_encoder+0x34a>
    3846:	a9 e0       	ldi	r26, 0x09	; 9
    3848:	fa 16       	cp	r15, r26
    384a:	69 f4       	brne	.+26     	; 0x3866 <update_encoder+0x34a>
			graph_scroll(max,1);
    384c:	c6 01       	movw	r24, r12
    384e:	b5 01       	movw	r22, r10
    3850:	41 e0       	ldi	r20, 0x01	; 1
    3852:	0e 94 1c 17 	call	0x2e38	; 0x2e38 <graph_scroll>

			ccw = 0;
    3856:	10 92 91 06 	sts	0x0691, r1
    385a:	10 92 90 06 	sts	0x0690, r1
			cw = 0;
    385e:	10 92 93 06 	sts	0x0693, r1
    3862:	10 92 92 06 	sts	0x0692, r1
		}
}
    3866:	1f 91       	pop	r17
    3868:	0f 91       	pop	r16
    386a:	ff 90       	pop	r15
    386c:	df 90       	pop	r13
    386e:	cf 90       	pop	r12
    3870:	bf 90       	pop	r11
    3872:	af 90       	pop	r10
    3874:	08 95       	ret

00003876 <LoadBitmap>:
}


// by scienceprog guy
void LoadBitmap(unsigned char *bitmap)
{
    3876:	ef 92       	push	r14
    3878:	ff 92       	push	r15
    387a:	0f 93       	push	r16
    387c:	1f 93       	push	r17
    387e:	cf 93       	push	r28
    3880:	df 93       	push	r29
    3882:	8c 01       	movw	r16, r24
    3884:	ff 24       	eor	r15, r15
    3886:	16 c0       	rjmp	.+44     	; 0x38b4 <LoadBitmap+0x3e>
uint16_t i, j,by;
for(i=0; i<64; i+=8)

		for(j=0; j<128; j++)
		{
			by=pgm_read_byte(bitmap++);
    3888:	f8 01       	movw	r30, r16
    388a:	ec 0f       	add	r30, r28
    388c:	fd 1f       	adc	r31, r29
    388e:	e4 90       	lpm	r14, Z+
			ks0108GotoXY(j, i);
    3890:	8c 2f       	mov	r24, r28
    3892:	6f 2d       	mov	r22, r15
    3894:	0e 94 cb 09 	call	0x1396	; 0x1396 <ks0108GotoXY>
			ks0108WriteData(by);
    3898:	8e 2d       	mov	r24, r14
    389a:	0e 94 2b 0a 	call	0x1456	; 0x1456 <ks0108WriteData>
void LoadBitmap(unsigned char *bitmap)
{
uint16_t i, j,by;
for(i=0; i<64; i+=8)

		for(j=0; j<128; j++)
    389e:	21 96       	adiw	r28, 0x01	; 1
    38a0:	c0 38       	cpi	r28, 0x80	; 128
    38a2:	d1 05       	cpc	r29, r1
    38a4:	89 f7       	brne	.-30     	; 0x3888 <LoadBitmap+0x12>
    38a6:	00 58       	subi	r16, 0x80	; 128
    38a8:	1f 4f       	sbci	r17, 0xFF	; 255
    38aa:	88 e0       	ldi	r24, 0x08	; 8
    38ac:	f8 0e       	add	r15, r24

// by scienceprog guy
void LoadBitmap(unsigned char *bitmap)
{
uint16_t i, j,by;
for(i=0; i<64; i+=8)
    38ae:	80 e4       	ldi	r24, 0x40	; 64
    38b0:	f8 16       	cp	r15, r24
    38b2:	19 f0       	breq	.+6      	; 0x38ba <LoadBitmap+0x44>
    38b4:	c0 e0       	ldi	r28, 0x00	; 0
    38b6:	d0 e0       	ldi	r29, 0x00	; 0
    38b8:	e7 cf       	rjmp	.-50     	; 0x3888 <LoadBitmap+0x12>
			by=pgm_read_byte(bitmap++);
			ks0108GotoXY(j, i);
			ks0108WriteData(by);
		}

}
    38ba:	df 91       	pop	r29
    38bc:	cf 91       	pop	r28
    38be:	1f 91       	pop	r17
    38c0:	0f 91       	pop	r16
    38c2:	ff 90       	pop	r15
    38c4:	ef 90       	pop	r14
    38c6:	08 95       	ret

000038c8 <welcome_screen>:
//int encoder_timer_prev = 0;
//int encoder_timer_curr = 0; 
//int fast_rotate = 0;


void welcome_screen(void) {
    38c8:	0f 93       	push	r16
    38ca:	df 93       	push	r29
    38cc:	cf 93       	push	r28
    38ce:	00 d0       	rcall	.+0      	; 0x38d0 <welcome_screen+0x8>
    38d0:	00 d0       	rcall	.+0      	; 0x38d2 <welcome_screen+0xa>
    38d2:	cd b7       	in	r28, 0x3d	; 61
    38d4:	de b7       	in	r29, 0x3e	; 62
	ks0108ClearScreen()
    38d6:	80 e0       	ldi	r24, 0x00	; 0
    38d8:	60 e0       	ldi	r22, 0x00	; 0
    38da:	4f e7       	ldi	r20, 0x7F	; 127
    38dc:	2f e3       	ldi	r18, 0x3F	; 63
    38de:	00 e0       	ldi	r16, 0x00	; 0
    38e0:	0e 94 e4 0c 	call	0x19c8	; 0x19c8 <ks0108FillRect>

	LoadBitmap(IMAGE);
    38e4:	8e e1       	ldi	r24, 0x1E	; 30
    38e6:	9d e0       	ldi	r25, 0x0D	; 13
    38e8:	0e 94 3b 1c 	call	0x3876	; 0x3876 <LoadBitmap>

	for(volatile uint16_t k=0; k<10; k++) {
    38ec:	1a 82       	std	Y+2, r1	; 0x02
    38ee:	19 82       	std	Y+1, r1	; 0x01
    38f0:	12 c0       	rjmp	.+36     	; 0x3916 <welcome_screen+0x4e>
		for(volatile uint16_t k=0; k<50000; k++);
    38f2:	1c 82       	std	Y+4, r1	; 0x04
    38f4:	1b 82       	std	Y+3, r1	; 0x03
    38f6:	05 c0       	rjmp	.+10     	; 0x3902 <welcome_screen+0x3a>
    38f8:	8b 81       	ldd	r24, Y+3	; 0x03
    38fa:	9c 81       	ldd	r25, Y+4	; 0x04
    38fc:	01 96       	adiw	r24, 0x01	; 1
    38fe:	9c 83       	std	Y+4, r25	; 0x04
    3900:	8b 83       	std	Y+3, r24	; 0x03
    3902:	8b 81       	ldd	r24, Y+3	; 0x03
    3904:	9c 81       	ldd	r25, Y+4	; 0x04
    3906:	80 55       	subi	r24, 0x50	; 80
    3908:	93 4c       	sbci	r25, 0xC3	; 195
    390a:	b0 f3       	brcs	.-20     	; 0x38f8 <welcome_screen+0x30>
void welcome_screen(void) {
	ks0108ClearScreen()

	LoadBitmap(IMAGE);

	for(volatile uint16_t k=0; k<10; k++) {
    390c:	89 81       	ldd	r24, Y+1	; 0x01
    390e:	9a 81       	ldd	r25, Y+2	; 0x02
    3910:	01 96       	adiw	r24, 0x01	; 1
    3912:	9a 83       	std	Y+2, r25	; 0x02
    3914:	89 83       	std	Y+1, r24	; 0x01
    3916:	89 81       	ldd	r24, Y+1	; 0x01
    3918:	9a 81       	ldd	r25, Y+2	; 0x02
    391a:	0a 97       	sbiw	r24, 0x0a	; 10
    391c:	50 f3       	brcs	.-44     	; 0x38f2 <welcome_screen+0x2a>
		for(volatile uint16_t k=0; k<50000; k++);
	}
}
    391e:	0f 90       	pop	r0
    3920:	0f 90       	pop	r0
    3922:	0f 90       	pop	r0
    3924:	0f 90       	pop	r0
    3926:	cf 91       	pop	r28
    3928:	df 91       	pop	r29
    392a:	0f 91       	pop	r16
    392c:	08 95       	ret

0000392e <delay_10us>:
#include <stdlib.h>
#include <avr/interrupt.h>
#include "delay.h"

//Calibrated with 7.3728Mhz Crystal
void delay_10us() {
    392e:	df 93       	push	r29
    3930:	cf 93       	push	r28
    3932:	00 d0       	rcall	.+0      	; 0x3934 <delay_10us+0x6>
    3934:	cd b7       	in	r28, 0x3d	; 61
    3936:	de b7       	in	r29, 0x3e	; 62

	volatile int count = 1;
    3938:	81 e0       	ldi	r24, 0x01	; 1
    393a:	90 e0       	ldi	r25, 0x00	; 0
    393c:	9a 83       	std	Y+2, r25	; 0x02
    393e:	89 83       	std	Y+1, r24	; 0x01
	for(count;count>0;count--);
    3940:	89 81       	ldd	r24, Y+1	; 0x01
    3942:	9a 81       	ldd	r25, Y+2	; 0x02
    3944:	05 c0       	rjmp	.+10     	; 0x3950 <delay_10us+0x22>
    3946:	89 81       	ldd	r24, Y+1	; 0x01
    3948:	9a 81       	ldd	r25, Y+2	; 0x02
    394a:	01 97       	sbiw	r24, 0x01	; 1
    394c:	9a 83       	std	Y+2, r25	; 0x02
    394e:	89 83       	std	Y+1, r24	; 0x01
    3950:	89 81       	ldd	r24, Y+1	; 0x01
    3952:	9a 81       	ldd	r25, Y+2	; 0x02
    3954:	18 16       	cp	r1, r24
    3956:	19 06       	cpc	r1, r25
    3958:	b4 f3       	brlt	.-20     	; 0x3946 <delay_10us+0x18>
	count = count + 1;
    395a:	89 81       	ldd	r24, Y+1	; 0x01
    395c:	9a 81       	ldd	r25, Y+2	; 0x02
    395e:	01 96       	adiw	r24, 0x01	; 1
    3960:	9a 83       	std	Y+2, r25	; 0x02
    3962:	89 83       	std	Y+1, r24	; 0x01
}
    3964:	0f 90       	pop	r0
    3966:	0f 90       	pop	r0
    3968:	cf 91       	pop	r28
    396a:	df 91       	pop	r29
    396c:	08 95       	ret

0000396e <delay_10us_multiple>:

void delay_10us_multiple(volatile unsigned char i) {
    396e:	df 93       	push	r29
    3970:	cf 93       	push	r28
    3972:	0f 92       	push	r0
    3974:	cd b7       	in	r28, 0x3d	; 61
    3976:	de b7       	in	r29, 0x3e	; 62
    3978:	89 83       	std	Y+1, r24	; 0x01
	for(i;i>0;i--) {
    397a:	89 81       	ldd	r24, Y+1	; 0x01
    397c:	05 c0       	rjmp	.+10     	; 0x3988 <delay_10us_multiple+0x1a>
		delay_10us();
    397e:	0e 94 97 1c 	call	0x392e	; 0x392e <delay_10us>
	for(count;count>0;count--);
	count = count + 1;
}

void delay_10us_multiple(volatile unsigned char i) {
	for(i;i>0;i--) {
    3982:	89 81       	ldd	r24, Y+1	; 0x01
    3984:	81 50       	subi	r24, 0x01	; 1
    3986:	89 83       	std	Y+1, r24	; 0x01
    3988:	89 81       	ldd	r24, Y+1	; 0x01
    398a:	88 23       	and	r24, r24
    398c:	c1 f7       	brne	.-16     	; 0x397e <delay_10us_multiple+0x10>
		delay_10us();
	}
}
    398e:	0f 90       	pop	r0
    3990:	cf 91       	pop	r28
    3992:	df 91       	pop	r29
    3994:	08 95       	ret

00003996 <init_nordic_spi>:
// START CARSON****************************************************************************************************************************************
void init_nordic_spi() {

	//Configure IO Directions

	DDRB |= (1<<NORDIC_MOSI)|(1<<NORDIC_SCK)|(1<<NORDIC_CE)|(1<<NORDIC_CSN);
    3996:	87 b3       	in	r24, 0x17	; 23
    3998:	87 64       	ori	r24, 0x47	; 71
    399a:	87 bb       	out	0x17, r24	; 23
	DDRB &= ~((1<<NORDIC_IRQ)|(1<<NORDIC_MISO));
    399c:	87 b3       	in	r24, 0x17	; 23
    399e:	87 7d       	andi	r24, 0xD7	; 215
    39a0:	87 bb       	out	0x17, r24	; 23

	//Drive nCS HIGH
	NORDIC_CSN_HIGH();
    39a2:	c0 9a       	sbi	0x18, 0	; 24

	//Configure SPI
	//CPOL and CPHA both at 0? 
	//SCK should normally be low. And the clock samples data in the middle of data bits, 

	SPCR |= (1<<MSTR)|(1<<SPR0); //CPOL and CPHA both 0
    39a4:	8d b1       	in	r24, 0x0d	; 13
    39a6:	81 61       	ori	r24, 0x11	; 17
    39a8:	8d b9       	out	0x0d, r24	; 13
	
	//No spi clock prescaler, enable SPI2X
	//SPSR |= (1<<SPI2X);

	//Enable SPI
	SPCR |= (1<<SPE);
    39aa:	6e 9a       	sbi	0x0d, 6	; 13
	
}
    39ac:	08 95       	ret

000039ae <nordic_transfer_byte>:
}
*/

uint8_t nordic_transfer_byte(uint8_t byte) {

	SPDR = byte;
    39ae:	8f b9       	out	0x0f, r24	; 15

	while(!(SPSR & (1<<SPIF)));
    39b0:	77 9b       	sbis	0x0e, 7	; 14
    39b2:	fe cf       	rjmp	.-4      	; 0x39b0 <nordic_transfer_byte+0x2>

	return SPDR;
    39b4:	8f b1       	in	r24, 0x0f	; 15

}
    39b6:	08 95       	ret

000039b8 <nrf24l01_rx_standby_to_active>:
}

//sets the pin on the host microcontroller that is attached to the 24l01's CE pin
void nrf24l01_set_ce()
{
	nrf24l01_CE_IOREGISTER |= nrf24l01_CE_PINMASK;
    39b8:	c6 9a       	sbi	0x18, 6	; 24

//takes a 24L01 that is already in RX standby mode and puts it in active RX mode
void nrf24l01_rx_standby_to_active()
{
	nrf24l01_set_ce();
}
    39ba:	08 95       	ret

000039bc <nrf24l01_rx_active_to_standby>:
}

//clears the pin on the host microcontroller that is attached to the 24l01's CE pin
void nrf24l01_clear_ce()
{
	nrf24l01_CE_IOREGISTER &= ~nrf24l01_CE_PINMASK;
    39bc:	c6 98       	cbi	0x18, 6	; 24

//takes a 24L01 that is already in active RX mode and puts it in RX standy mode
void nrf24l01_rx_active_to_standby()
{
	nrf24l01_clear_ce();
}
    39be:	08 95       	ret

000039c0 <nrf24l01_clear_ce>:
}

//clears the pin on the host microcontroller that is attached to the 24l01's CE pin
void nrf24l01_clear_ce()
{
	nrf24l01_CE_IOREGISTER &= ~nrf24l01_CE_PINMASK;
    39c0:	c6 98       	cbi	0x18, 6	; 24
}
    39c2:	08 95       	ret

000039c4 <nrf24l01_set_ce>:

//sets the pin on the host microcontroller that is attached to the 24l01's CE pin
void nrf24l01_set_ce()
{
	nrf24l01_CE_IOREGISTER |= nrf24l01_CE_PINMASK;
    39c4:	c6 9a       	sbi	0x18, 6	; 24
}
    39c6:	08 95       	ret

000039c8 <nrf24l01_ce_pin_active>:

//returns true if CE is high, false if not
bool nrf24l01_ce_pin_active()
{
	if((nrf24l01_CE_IOREGISTER & nrf24l01_CE_PINMASK) != 0)
    39c8:	88 b3       	in	r24, 0x18	; 24
    39ca:	90 e0       	ldi	r25, 0x00	; 0
    39cc:	26 e0       	ldi	r18, 0x06	; 6
    39ce:	96 95       	lsr	r25
    39d0:	87 95       	ror	r24
    39d2:	2a 95       	dec	r18
    39d4:	e1 f7       	brne	.-8      	; 0x39ce <nrf24l01_ce_pin_active+0x6>
		return true;
	else
		return false;
}
    39d6:	81 70       	andi	r24, 0x01	; 1
    39d8:	08 95       	ret

000039da <nrf24l01_clear_csn>:

//sets the pin on the host microcontroller that is attached to the 24l01's CSN pin
void nrf24l01_clear_csn()
{
	nrf24l01_CSN_IOREGISTER &= ~nrf24l01_CSN_PINMASK;
    39da:	c0 98       	cbi	0x18, 0	; 24
}
    39dc:	08 95       	ret

000039de <nrf24l01_set_csn>:

//clears the pin on the host microcontroller that is attached to the 24l01's CSN pin
void nrf24l01_set_csn()
{
	nrf24l01_CSN_IOREGISTER |= nrf24l01_CSN_PINMASK;
    39de:	c0 9a       	sbi	0x18, 0	; 24
}
    39e0:	08 95       	ret

000039e2 <nrf24l01_csn_pin_active>:

//returns true if CSN is high, false if not
//Carson modification - swapped true/false**********************************************************************************************
bool nrf24l01_csn_pin_active()
{
	if((nrf24l01_CSN_IOREGISTER & nrf24l01_CSN_PINMASK) != 0)
    39e2:	88 b3       	in	r24, 0x18	; 24
		return true;
	else
		return false;	
}
    39e4:	81 70       	andi	r24, 0x01	; 1
    39e6:	08 95       	ret

000039e8 <nrf24l01_irq_pin_active>:
}

//returns true if IRQ pin is low, false otherwise
bool nrf24l01_irq_pin_active()
{
	if((nrf24l01_IRQ_IOREGISTER & nrf24l01_IRQ_PINMASK) != 0)
    39e8:	86 b3       	in	r24, 0x16	; 22
    39ea:	82 95       	swap	r24
    39ec:	86 95       	lsr	r24
    39ee:	87 70       	andi	r24, 0x07	; 7
    39f0:	80 95       	com	r24
		return false;
	else
		return true;
}
    39f2:	81 70       	andi	r24, 0x01	; 1
    39f4:	08 95       	ret

000039f6 <nrf24l01_get_rx_pipe_from_status>:
{
	return nrf24l01_get_rx_pipe_from_status(nrf24l01_get_status());
}

unsigned char nrf24l01_get_rx_pipe_from_status(unsigned char status)
{
    39f6:	90 e0       	ldi	r25, 0x00	; 0
    39f8:	8e 70       	andi	r24, 0x0E	; 14
    39fa:	90 70       	andi	r25, 0x00	; 0
    39fc:	95 95       	asr	r25
    39fe:	87 95       	ror	r24
	return ((status & 0xE) >> 1);
}
    3a00:	08 95       	ret

00003a02 <nrf24l01_spi_send_read>:
}

//low-level spi send function for library use
//the user should not call this function directly, but rather use one of the 8 SPI data instructions
void nrf24l01_spi_send_read(unsigned char * data, unsigned int len, bool copydata)
{
    3a02:	df 92       	push	r13
    3a04:	ef 92       	push	r14
    3a06:	ff 92       	push	r15
    3a08:	0f 93       	push	r16
    3a0a:	1f 93       	push	r17
    3a0c:	cf 93       	push	r28
    3a0e:	df 93       	push	r29
    3a10:	7b 01       	movw	r14, r22
    3a12:	d4 2e       	mov	r13, r20
    3a14:	ec 01       	movw	r28, r24
    3a16:	00 e0       	ldi	r16, 0x00	; 0
    3a18:	10 e0       	ldi	r17, 0x00	; 0
    3a1a:	0d c0       	rjmp	.+26     	; 0x3a36 <nrf24l01_spi_send_read+0x34>
	unsigned int count;
	unsigned char tempbyte;

	for(count = 0; count < len; count++)
	{
		if(copydata != false)
    3a1c:	dd 20       	and	r13, r13
    3a1e:	29 f0       	breq	.+10     	; 0x3a2a <nrf24l01_spi_send_read+0x28>
			data[count] = spi_send_read_byte(data[count]);
    3a20:	88 81       	ld	r24, Y
    3a22:	0e 94 d7 1c 	call	0x39ae	; 0x39ae <nordic_transfer_byte>
    3a26:	88 83       	st	Y, r24
    3a28:	03 c0       	rjmp	.+6      	; 0x3a30 <nrf24l01_spi_send_read+0x2e>
		else
		{
			tempbyte = data[count];
			spi_send_read_byte(tempbyte);
    3a2a:	88 81       	ld	r24, Y
    3a2c:	0e 94 d7 1c 	call	0x39ae	; 0x39ae <nordic_transfer_byte>
void nrf24l01_spi_send_read(unsigned char * data, unsigned int len, bool copydata)
{
	unsigned int count;
	unsigned char tempbyte;

	for(count = 0; count < len; count++)
    3a30:	0f 5f       	subi	r16, 0xFF	; 255
    3a32:	1f 4f       	sbci	r17, 0xFF	; 255
    3a34:	21 96       	adiw	r28, 0x01	; 1
    3a36:	0e 15       	cp	r16, r14
    3a38:	1f 05       	cpc	r17, r15
    3a3a:	80 f3       	brcs	.-32     	; 0x3a1c <nrf24l01_spi_send_read+0x1a>
		{
			tempbyte = data[count];
			spi_send_read_byte(tempbyte);
		}
	}
}
    3a3c:	df 91       	pop	r29
    3a3e:	cf 91       	pop	r28
    3a40:	1f 91       	pop	r17
    3a42:	0f 91       	pop	r16
    3a44:	ff 90       	pop	r15
    3a46:	ef 90       	pop	r14
    3a48:	df 90       	pop	r13
    3a4a:	08 95       	ret

00003a4c <nrf24l01_execute_command>:
}

//low-level spi send function for library use
//the user should not call this function directly, but rather use one of the 8 SPI data instructions
unsigned char nrf24l01_execute_command(unsigned char instruction, unsigned char * data, unsigned int len, bool copydata)
{
    3a4c:	df 92       	push	r13
    3a4e:	ef 92       	push	r14
    3a50:	ff 92       	push	r15
    3a52:	0f 93       	push	r16
    3a54:	1f 93       	push	r17
    3a56:	df 93       	push	r29
    3a58:	cf 93       	push	r28
    3a5a:	0f 92       	push	r0
    3a5c:	cd b7       	in	r28, 0x3d	; 61
    3a5e:	de b7       	in	r29, 0x3e	; 62
    3a60:	8b 01       	movw	r16, r22
    3a62:	7a 01       	movw	r14, r20
    3a64:	d2 2e       	mov	r13, r18
}

//sets the pin on the host microcontroller that is attached to the 24l01's CSN pin
void nrf24l01_clear_csn()
{
	nrf24l01_CSN_IOREGISTER &= ~nrf24l01_CSN_PINMASK;
    3a66:	c0 98       	cbi	0x18, 0	; 24
{
	unsigned char status;
	
	nrf24l01_clear_csn();

	status = instruction;
    3a68:	89 83       	std	Y+1, r24	; 0x01
	nrf24l01_spi_send_read(&status, 1, true);
    3a6a:	ce 01       	movw	r24, r28
    3a6c:	01 96       	adiw	r24, 0x01	; 1
    3a6e:	61 e0       	ldi	r22, 0x01	; 1
    3a70:	70 e0       	ldi	r23, 0x00	; 0
    3a72:	41 e0       	ldi	r20, 0x01	; 1
    3a74:	0e 94 01 1d 	call	0x3a02	; 0x3a02 <nrf24l01_spi_send_read>
	nrf24l01_spi_send_read(data, len, copydata);
    3a78:	c8 01       	movw	r24, r16
    3a7a:	b7 01       	movw	r22, r14
    3a7c:	4d 2d       	mov	r20, r13
    3a7e:	0e 94 01 1d 	call	0x3a02	; 0x3a02 <nrf24l01_spi_send_read>
}

//clears the pin on the host microcontroller that is attached to the 24l01's CSN pin
void nrf24l01_set_csn()
{
	nrf24l01_CSN_IOREGISTER |= nrf24l01_CSN_PINMASK;
    3a82:	c0 9a       	sbi	0x18, 0	; 24
	nrf24l01_spi_send_read(data, len, copydata);
	
	nrf24l01_set_csn();		

	return status;
}
    3a84:	89 81       	ldd	r24, Y+1	; 0x01
    3a86:	0f 90       	pop	r0
    3a88:	cf 91       	pop	r28
    3a8a:	df 91       	pop	r29
    3a8c:	1f 91       	pop	r17
    3a8e:	0f 91       	pop	r16
    3a90:	ff 90       	pop	r15
    3a92:	ef 90       	pop	r14
    3a94:	df 90       	pop	r13
    3a96:	08 95       	ret

00003a98 <nrf24l01_nop>:
//executes the FLUSH_TX SPI operation
//this funciton does nothing
//returns the value of the STATUS register
unsigned char nrf24l01_nop()
{
	return nrf24l01_execute_command(nrf24l01_NOP, NULL, 0, true);
    3a98:	8f ef       	ldi	r24, 0xFF	; 255
    3a9a:	60 e0       	ldi	r22, 0x00	; 0
    3a9c:	70 e0       	ldi	r23, 0x00	; 0
    3a9e:	40 e0       	ldi	r20, 0x00	; 0
    3aa0:	50 e0       	ldi	r21, 0x00	; 0
    3aa2:	21 e0       	ldi	r18, 0x01	; 1
    3aa4:	0e 94 26 1d 	call	0x3a4c	; 0x3a4c <nrf24l01_execute_command>
}
    3aa8:	08 95       	ret

00003aaa <nrf24l01_get_status>:
}

//return the value of the status register
unsigned char nrf24l01_get_status()
{
	return nrf24l01_nop();
    3aaa:	0e 94 4c 1d 	call	0x3a98	; 0x3a98 <nrf24l01_nop>
}
    3aae:	08 95       	ret

00003ab0 <nrf24l01_get_rx_pipe>:
}

//return the value of the status register
unsigned char nrf24l01_get_status()
{
	return nrf24l01_nop();
    3ab0:	0e 94 4c 1d 	call	0x3a98	; 0x3a98 <nrf24l01_nop>
    3ab4:	90 e0       	ldi	r25, 0x00	; 0
    3ab6:	8e 70       	andi	r24, 0x0E	; 14
    3ab8:	90 70       	andi	r25, 0x00	; 0
    3aba:	95 95       	asr	r25
    3abc:	87 95       	ror	r24

//returns the current pipe in the 24L01's STATUS register
unsigned char nrf24l01_get_rx_pipe()
{
	return nrf24l01_get_rx_pipe_from_status(nrf24l01_get_status());
}
    3abe:	08 95       	ret

00003ac0 <nrf24l01_irq_max_rt_active>:
}

//return the value of the status register
unsigned char nrf24l01_get_status()
{
	return nrf24l01_nop();
    3ac0:	0e 94 4c 1d 	call	0x3a98	; 0x3a98 <nrf24l01_nop>
    3ac4:	90 e0       	ldi	r25, 0x00	; 0
    3ac6:	54 e0       	ldi	r21, 0x04	; 4
    3ac8:	96 95       	lsr	r25
    3aca:	87 95       	ror	r24
    3acc:	5a 95       	dec	r21
    3ace:	e1 f7       	brne	.-8      	; 0x3ac8 <nrf24l01_irq_max_rt_active+0x8>

//returns true if MAX_RT interrupt is active, false otherwise
bool nrf24l01_irq_max_rt_active()
{
	return (nrf24l01_get_status() & nrf24l01_STATUS_MAX_RT);
}
    3ad0:	81 70       	andi	r24, 0x01	; 1
    3ad2:	08 95       	ret

00003ad4 <nrf24l01_irq_tx_ds_active>:
}

//return the value of the status register
unsigned char nrf24l01_get_status()
{
	return nrf24l01_nop();
    3ad4:	0e 94 4c 1d 	call	0x3a98	; 0x3a98 <nrf24l01_nop>
    3ad8:	90 e0       	ldi	r25, 0x00	; 0
    3ada:	65 e0       	ldi	r22, 0x05	; 5
    3adc:	96 95       	lsr	r25
    3ade:	87 95       	ror	r24
    3ae0:	6a 95       	dec	r22
    3ae2:	e1 f7       	brne	.-8      	; 0x3adc <nrf24l01_irq_tx_ds_active+0x8>

//returns true if TX_DS interrupt is active, false otherwise
bool nrf24l01_irq_tx_ds_active()
{
	return (nrf24l01_get_status() & nrf24l01_STATUS_TX_DS);
}
    3ae4:	81 70       	andi	r24, 0x01	; 1
    3ae6:	08 95       	ret

00003ae8 <nrf24l01_irq_rx_dr_active>:
}

//return the value of the status register
unsigned char nrf24l01_get_status()
{
	return nrf24l01_nop();
    3ae8:	0e 94 4c 1d 	call	0x3a98	; 0x3a98 <nrf24l01_nop>
    3aec:	90 e0       	ldi	r25, 0x00	; 0
    3aee:	76 e0       	ldi	r23, 0x06	; 6
    3af0:	96 95       	lsr	r25
    3af2:	87 95       	ror	r24
    3af4:	7a 95       	dec	r23
    3af6:	e1 f7       	brne	.-8      	; 0x3af0 <nrf24l01_irq_rx_dr_active+0x8>

//returns true if RX_DR interrupt is active, false otherwise
bool nrf24l01_irq_rx_dr_active()
{
	return (nrf24l01_get_status() & nrf24l01_STATUS_RX_DR);
}
    3af8:	81 70       	andi	r24, 0x01	; 1
    3afa:	08 95       	ret

00003afc <nrf24l01_reuse_tx_pl>:
//executes the REUSE_TX_PL SPI operation
//this funciton allows the user to constantly send a packet repeatedly when issued.
//returns the value of the STATUS register
unsigned char nrf24l01_reuse_tx_pl()
{
	return nrf24l01_execute_command(nrf24l01_REUSE_TX_PL, NULL, 0, true);
    3afc:	83 ee       	ldi	r24, 0xE3	; 227
    3afe:	60 e0       	ldi	r22, 0x00	; 0
    3b00:	70 e0       	ldi	r23, 0x00	; 0
    3b02:	40 e0       	ldi	r20, 0x00	; 0
    3b04:	50 e0       	ldi	r21, 0x00	; 0
    3b06:	21 e0       	ldi	r18, 0x01	; 1
    3b08:	0e 94 26 1d 	call	0x3a4c	; 0x3a4c <nrf24l01_execute_command>
}
    3b0c:	08 95       	ret

00003b0e <nrf24l01_flush_rx>:
//executes the FLUSH_RX SPI operation
//this funciton empties the contents of the RX FIFO
//returns the value of the STATUS register
unsigned char nrf24l01_flush_rx()
{
	return nrf24l01_execute_command(nrf24l01_FLUSH_RX, NULL, 0, true);
    3b0e:	82 ee       	ldi	r24, 0xE2	; 226
    3b10:	60 e0       	ldi	r22, 0x00	; 0
    3b12:	70 e0       	ldi	r23, 0x00	; 0
    3b14:	40 e0       	ldi	r20, 0x00	; 0
    3b16:	50 e0       	ldi	r21, 0x00	; 0
    3b18:	21 e0       	ldi	r18, 0x01	; 1
    3b1a:	0e 94 26 1d 	call	0x3a4c	; 0x3a4c <nrf24l01_execute_command>
}
    3b1e:	08 95       	ret

00003b20 <nrf24l01_flush_tx>:
//executes the FLUSH_TX SPI operation
//this funciton empties the contents of the TX FIFO
//returns the value of the STATUS register
unsigned char nrf24l01_flush_tx()
{
	return nrf24l01_execute_command(nrf24l01_FLUSH_TX, NULL, 0, true);
    3b20:	81 ee       	ldi	r24, 0xE1	; 225
    3b22:	60 e0       	ldi	r22, 0x00	; 0
    3b24:	70 e0       	ldi	r23, 0x00	; 0
    3b26:	40 e0       	ldi	r20, 0x00	; 0
    3b28:	50 e0       	ldi	r21, 0x00	; 0
    3b2a:	21 e0       	ldi	r18, 0x01	; 1
    3b2c:	0e 94 26 1d 	call	0x3a4c	; 0x3a4c <nrf24l01_execute_command>
}
    3b30:	08 95       	ret

00003b32 <nrf24l01_read_rx_payload>:
//	initialized by the user.
//unsigned int len is the length of the payload being clocked out of the nrf24l01 (this
//	should be sized according to the payload length specified to the nrf24l01).
//returns the value of the STATUS register
unsigned char nrf24l01_read_rx_payload(unsigned char * data, unsigned int len)
{
    3b32:	9c 01       	movw	r18, r24
    3b34:	ab 01       	movw	r20, r22
}

//clears the pin on the host microcontroller that is attached to the 24l01's CE pin
void nrf24l01_clear_ce()
{
	nrf24l01_CE_IOREGISTER &= ~nrf24l01_CE_PINMASK;
    3b36:	c6 98       	cbi	0x18, 6	; 24
unsigned char nrf24l01_read_rx_payload(unsigned char * data, unsigned int len)
{
	unsigned char status;
	
	nrf24l01_clear_ce();
	status = nrf24l01_execute_command(nrf24l01_R_RX_PAYLOAD, data, len, true);
    3b38:	81 e6       	ldi	r24, 0x61	; 97
    3b3a:	b9 01       	movw	r22, r18
    3b3c:	21 e0       	ldi	r18, 0x01	; 1
    3b3e:	0e 94 26 1d 	call	0x3a4c	; 0x3a4c <nrf24l01_execute_command>
}

//sets the pin on the host microcontroller that is attached to the 24l01's CE pin
void nrf24l01_set_ce()
{
	nrf24l01_CE_IOREGISTER |= nrf24l01_CE_PINMASK;
    3b42:	c6 9a       	sbi	0x18, 6	; 24
	nrf24l01_clear_ce();
	status = nrf24l01_execute_command(nrf24l01_R_RX_PAYLOAD, data, len, true);
	nrf24l01_set_ce();
	
	return status;
}
    3b44:	08 95       	ret

00003b46 <nrf24l01_read_register>:
//unsigned int len is always the size of unsigned char * data.  For example, if data is declared as 
//  data[6], len = 6.
//returns the value of the STATUS register
unsigned char nrf24l01_read_register(unsigned char regnumber, unsigned char * data, unsigned int len)
{
	return nrf24l01_execute_command(regnumber & nrf24l01_R_REGISTER_DATA, data, len, true);
    3b46:	8f 71       	andi	r24, 0x1F	; 31
    3b48:	21 e0       	ldi	r18, 0x01	; 1
    3b4a:	0e 94 26 1d 	call	0x3a4c	; 0x3a4c <nrf24l01_execute_command>
}
    3b4e:	08 95       	ret

00003b50 <nrf24l01_get_all_registers>:
	nrf24l01_irq_clear_all();
}

//unsigned char * data must be at least 35 bytes long
void nrf24l01_get_all_registers(unsigned char * data)
{
    3b50:	af 92       	push	r10
    3b52:	bf 92       	push	r11
    3b54:	cf 92       	push	r12
    3b56:	df 92       	push	r13
    3b58:	ef 92       	push	r14
    3b5a:	ff 92       	push	r15
    3b5c:	0f 93       	push	r16
    3b5e:	1f 93       	push	r17
    3b60:	df 93       	push	r29
    3b62:	cf 93       	push	r28
    3b64:	00 d0       	rcall	.+0      	; 0x3b66 <nrf24l01_get_all_registers+0x16>
    3b66:	00 d0       	rcall	.+0      	; 0x3b68 <nrf24l01_get_all_registers+0x18>
    3b68:	0f 92       	push	r0
    3b6a:	cd b7       	in	r28, 0x3d	; 61
    3b6c:	de b7       	in	r29, 0x3e	; 62
    3b6e:	6c 01       	movw	r12, r24
    3b70:	00 e0       	ldi	r16, 0x00	; 0
    3b72:	10 e0       	ldi	r17, 0x00	; 0
    3b74:	ee 24       	eor	r14, r14
    3b76:	ff 24       	eor	r15, r15
	unsigned int dataloc = 0;
	unsigned char buffer[5];
	
	for(outer = 0; outer <= 0x17; outer++)
	{
		nrf24l01_read_register(outer, buffer, 5);
    3b78:	5e 01       	movw	r10, r28
    3b7a:	08 94       	sec
    3b7c:	a1 1c       	adc	r10, r1
    3b7e:	b1 1c       	adc	r11, r1
    3b80:	80 2f       	mov	r24, r16
    3b82:	b5 01       	movw	r22, r10
    3b84:	45 e0       	ldi	r20, 0x05	; 5
    3b86:	50 e0       	ldi	r21, 0x00	; 0
    3b88:	0e 94 a3 1d 	call	0x3b46	; 0x3b46 <nrf24l01_read_register>
    3b8c:	d6 01       	movw	r26, r12
    3b8e:	ae 0d       	add	r26, r14
    3b90:	bf 1d       	adc	r27, r15
    3b92:	20 e0       	ldi	r18, 0x00	; 0
    3b94:	30 e0       	ldi	r19, 0x00	; 0
		
		for(inner = 0; inner < 5; inner++)
		{
			if(inner >= 1 && (outer != 0x0A && outer != 0x0B && outer != 0x10))
    3b96:	a8 01       	movw	r20, r16
    3b98:	4a 50       	subi	r20, 0x0A	; 10
    3b9a:	50 40       	sbci	r21, 0x00	; 0
    3b9c:	07 c0       	rjmp	.+14     	; 0x3bac <nrf24l01_get_all_registers+0x5c>
    3b9e:	42 30       	cpi	r20, 0x02	; 2
    3ba0:	51 05       	cpc	r21, r1
    3ba2:	18 f0       	brcs	.+6      	; 0x3baa <nrf24l01_get_all_registers+0x5a>
    3ba4:	00 31       	cpi	r16, 0x10	; 16
    3ba6:	11 05       	cpc	r17, r1
    3ba8:	71 f4       	brne	.+28     	; 0x3bc6 <nrf24l01_get_all_registers+0x76>
				break;
    3baa:	11 96       	adiw	r26, 0x01	; 1
				
			data[dataloc] = buffer[inner];
    3bac:	f5 01       	movw	r30, r10
    3bae:	e2 0f       	add	r30, r18
    3bb0:	f3 1f       	adc	r31, r19
    3bb2:	80 81       	ld	r24, Z
    3bb4:	8c 93       	st	X, r24
			dataloc++;
    3bb6:	08 94       	sec
    3bb8:	e1 1c       	adc	r14, r1
    3bba:	f1 1c       	adc	r15, r1
	
	for(outer = 0; outer <= 0x17; outer++)
	{
		nrf24l01_read_register(outer, buffer, 5);
		
		for(inner = 0; inner < 5; inner++)
    3bbc:	2f 5f       	subi	r18, 0xFF	; 255
    3bbe:	3f 4f       	sbci	r19, 0xFF	; 255
    3bc0:	25 30       	cpi	r18, 0x05	; 5
    3bc2:	31 05       	cpc	r19, r1
    3bc4:	61 f7       	brne	.-40     	; 0x3b9e <nrf24l01_get_all_registers+0x4e>
	unsigned int outer;
	unsigned int inner;
	unsigned int dataloc = 0;
	unsigned char buffer[5];
	
	for(outer = 0; outer <= 0x17; outer++)
    3bc6:	0f 5f       	subi	r16, 0xFF	; 255
    3bc8:	1f 4f       	sbci	r17, 0xFF	; 255
    3bca:	08 31       	cpi	r16, 0x18	; 24
    3bcc:	11 05       	cpc	r17, r1
    3bce:	c1 f6       	brne	.-80     	; 0x3b80 <nrf24l01_get_all_registers+0x30>
				
			data[dataloc] = buffer[inner];
			dataloc++;
		}
	}
}
    3bd0:	0f 90       	pop	r0
    3bd2:	0f 90       	pop	r0
    3bd4:	0f 90       	pop	r0
    3bd6:	0f 90       	pop	r0
    3bd8:	0f 90       	pop	r0
    3bda:	cf 91       	pop	r28
    3bdc:	df 91       	pop	r29
    3bde:	1f 91       	pop	r17
    3be0:	0f 91       	pop	r16
    3be2:	ff 90       	pop	r15
    3be4:	ef 90       	pop	r14
    3be6:	df 90       	pop	r13
    3be8:	cf 90       	pop	r12
    3bea:	bf 90       	pop	r11
    3bec:	af 90       	pop	r10
    3bee:	08 95       	ret

00003bf0 <nrf24l01_fifo_rx_empty>:
	return (bool)(data & nrf24l01_FIFO_STATUS_RX_FULL);
}

//returns true if RX_EMPTYE bit in FIFO_STATUS register is set, false otherwise
bool nrf24l01_fifo_rx_empty()
{
    3bf0:	df 93       	push	r29
    3bf2:	cf 93       	push	r28
    3bf4:	0f 92       	push	r0
    3bf6:	cd b7       	in	r28, 0x3d	; 61
    3bf8:	de b7       	in	r29, 0x3e	; 62
	unsigned char data;
	
	nrf24l01_read_register(nrf24l01_FIFO_STATUS, &data, 1);
    3bfa:	87 e1       	ldi	r24, 0x17	; 23
    3bfc:	be 01       	movw	r22, r28
    3bfe:	6f 5f       	subi	r22, 0xFF	; 255
    3c00:	7f 4f       	sbci	r23, 0xFF	; 255
    3c02:	41 e0       	ldi	r20, 0x01	; 1
    3c04:	50 e0       	ldi	r21, 0x00	; 0
    3c06:	0e 94 a3 1d 	call	0x3b46	; 0x3b46 <nrf24l01_read_register>
    3c0a:	89 81       	ldd	r24, Y+1	; 0x01
	
	return (bool)(data & nrf24l01_FIFO_STATUS_RX_EMPTY);
}
    3c0c:	81 70       	andi	r24, 0x01	; 1
    3c0e:	0f 90       	pop	r0
    3c10:	cf 91       	pop	r28
    3c12:	df 91       	pop	r29
    3c14:	08 95       	ret

00003c16 <nrf24l01_fifo_rx_full>:
	return (bool)(data & nrf24l01_FIFO_STATUS_TX_EMPTY);
}

//returns true if RX_FULL bit in FIFO_STATUS register is set, false otherwise
bool nrf24l01_fifo_rx_full()
{
    3c16:	df 93       	push	r29
    3c18:	cf 93       	push	r28
    3c1a:	0f 92       	push	r0
    3c1c:	cd b7       	in	r28, 0x3d	; 61
    3c1e:	de b7       	in	r29, 0x3e	; 62
	unsigned char data;
	
	nrf24l01_read_register(nrf24l01_FIFO_STATUS, &data, 1);
    3c20:	87 e1       	ldi	r24, 0x17	; 23
    3c22:	be 01       	movw	r22, r28
    3c24:	6f 5f       	subi	r22, 0xFF	; 255
    3c26:	7f 4f       	sbci	r23, 0xFF	; 255
    3c28:	41 e0       	ldi	r20, 0x01	; 1
    3c2a:	50 e0       	ldi	r21, 0x00	; 0
    3c2c:	0e 94 a3 1d 	call	0x3b46	; 0x3b46 <nrf24l01_read_register>
    3c30:	89 81       	ldd	r24, Y+1	; 0x01
    3c32:	90 e0       	ldi	r25, 0x00	; 0
    3c34:	96 95       	lsr	r25
    3c36:	87 95       	ror	r24
	
	return (bool)(data & nrf24l01_FIFO_STATUS_RX_FULL);
}
    3c38:	81 70       	andi	r24, 0x01	; 1
    3c3a:	0f 90       	pop	r0
    3c3c:	cf 91       	pop	r28
    3c3e:	df 91       	pop	r29
    3c40:	08 95       	ret

00003c42 <nrf24l01_fifo_tx_empty>:
	return (bool)(data & nrf24l01_FIFO_STATUS_TX_FULL);
}

//returns true if TX_EMPTY bit in FIFO_STATUS register is set, false otherwise
bool nrf24l01_fifo_tx_empty()
{
    3c42:	df 93       	push	r29
    3c44:	cf 93       	push	r28
    3c46:	0f 92       	push	r0
    3c48:	cd b7       	in	r28, 0x3d	; 61
    3c4a:	de b7       	in	r29, 0x3e	; 62
	unsigned char data;
	
	nrf24l01_read_register(nrf24l01_FIFO_STATUS, &data, 1);
    3c4c:	87 e1       	ldi	r24, 0x17	; 23
    3c4e:	be 01       	movw	r22, r28
    3c50:	6f 5f       	subi	r22, 0xFF	; 255
    3c52:	7f 4f       	sbci	r23, 0xFF	; 255
    3c54:	41 e0       	ldi	r20, 0x01	; 1
    3c56:	50 e0       	ldi	r21, 0x00	; 0
    3c58:	0e 94 a3 1d 	call	0x3b46	; 0x3b46 <nrf24l01_read_register>
    3c5c:	89 81       	ldd	r24, Y+1	; 0x01
    3c5e:	90 e0       	ldi	r25, 0x00	; 0
    3c60:	f4 e0       	ldi	r31, 0x04	; 4
    3c62:	96 95       	lsr	r25
    3c64:	87 95       	ror	r24
    3c66:	fa 95       	dec	r31
    3c68:	e1 f7       	brne	.-8      	; 0x3c62 <nrf24l01_fifo_tx_empty+0x20>
	
	return (bool)(data & nrf24l01_FIFO_STATUS_TX_EMPTY);
}
    3c6a:	81 70       	andi	r24, 0x01	; 1
    3c6c:	0f 90       	pop	r0
    3c6e:	cf 91       	pop	r28
    3c70:	df 91       	pop	r29
    3c72:	08 95       	ret

00003c74 <nrf24l01_fifo_tx_full>:
	return (bool)(data & nrf24l01_FIFO_STATUS_TX_REUSE);
}

//returns true if TX_FULL bit in FIFO_STATUS register is set, false otherwise
bool nrf24l01_fifo_tx_full()
{
    3c74:	df 93       	push	r29
    3c76:	cf 93       	push	r28
    3c78:	0f 92       	push	r0
    3c7a:	cd b7       	in	r28, 0x3d	; 61
    3c7c:	de b7       	in	r29, 0x3e	; 62
	unsigned char data;
	
	nrf24l01_read_register(nrf24l01_FIFO_STATUS, &data, 1);
    3c7e:	87 e1       	ldi	r24, 0x17	; 23
    3c80:	be 01       	movw	r22, r28
    3c82:	6f 5f       	subi	r22, 0xFF	; 255
    3c84:	7f 4f       	sbci	r23, 0xFF	; 255
    3c86:	41 e0       	ldi	r20, 0x01	; 1
    3c88:	50 e0       	ldi	r21, 0x00	; 0
    3c8a:	0e 94 a3 1d 	call	0x3b46	; 0x3b46 <nrf24l01_read_register>
    3c8e:	89 81       	ldd	r24, Y+1	; 0x01
    3c90:	90 e0       	ldi	r25, 0x00	; 0
    3c92:	a5 e0       	ldi	r26, 0x05	; 5
    3c94:	96 95       	lsr	r25
    3c96:	87 95       	ror	r24
    3c98:	aa 95       	dec	r26
    3c9a:	e1 f7       	brne	.-8      	; 0x3c94 <nrf24l01_fifo_tx_full+0x20>
	
	return (bool)(data & nrf24l01_FIFO_STATUS_TX_FULL);
}
    3c9c:	81 70       	andi	r24, 0x01	; 1
    3c9e:	0f 90       	pop	r0
    3ca0:	cf 91       	pop	r28
    3ca2:	df 91       	pop	r29
    3ca4:	08 95       	ret

00003ca6 <nrf24l01_fifo_tx_reuse>:
	return nrf24l01_nop();
}

//returns true if TX_REUSE bit in FIFO_STATUS register is set, false otherwise
bool nrf24l01_fifo_tx_reuse()
{
    3ca6:	df 93       	push	r29
    3ca8:	cf 93       	push	r28
    3caa:	0f 92       	push	r0
    3cac:	cd b7       	in	r28, 0x3d	; 61
    3cae:	de b7       	in	r29, 0x3e	; 62
	unsigned char data;
	
	nrf24l01_read_register(nrf24l01_FIFO_STATUS, &data, 1);
    3cb0:	87 e1       	ldi	r24, 0x17	; 23
    3cb2:	be 01       	movw	r22, r28
    3cb4:	6f 5f       	subi	r22, 0xFF	; 255
    3cb6:	7f 4f       	sbci	r23, 0xFF	; 255
    3cb8:	41 e0       	ldi	r20, 0x01	; 1
    3cba:	50 e0       	ldi	r21, 0x00	; 0
    3cbc:	0e 94 a3 1d 	call	0x3b46	; 0x3b46 <nrf24l01_read_register>
    3cc0:	89 81       	ldd	r24, Y+1	; 0x01
    3cc2:	90 e0       	ldi	r25, 0x00	; 0
    3cc4:	b6 e0       	ldi	r27, 0x06	; 6
    3cc6:	96 95       	lsr	r25
    3cc8:	87 95       	ror	r24
    3cca:	ba 95       	dec	r27
    3ccc:	e1 f7       	brne	.-8      	; 0x3cc6 <nrf24l01_fifo_tx_reuse+0x20>
	
	return (bool)(data & nrf24l01_FIFO_STATUS_TX_REUSE);
}
    3cce:	81 70       	andi	r24, 0x01	; 1
    3cd0:	0f 90       	pop	r0
    3cd2:	cf 91       	pop	r28
    3cd4:	df 91       	pop	r29
    3cd6:	08 95       	ret

00003cd8 <nrf24l01_get_fifo_status>:
	return data;
}

//returns the value of the FIFO_STATUS register
unsigned char nrf24l01_get_fifo_status()
{
    3cd8:	df 93       	push	r29
    3cda:	cf 93       	push	r28
    3cdc:	0f 92       	push	r0
    3cde:	cd b7       	in	r28, 0x3d	; 61
    3ce0:	de b7       	in	r29, 0x3e	; 62
	unsigned char data;
	
	nrf24l01_read_register(nrf24l01_FIFO_STATUS, &data, 1);
    3ce2:	87 e1       	ldi	r24, 0x17	; 23
    3ce4:	be 01       	movw	r22, r28
    3ce6:	6f 5f       	subi	r22, 0xFF	; 255
    3ce8:	7f 4f       	sbci	r23, 0xFF	; 255
    3cea:	41 e0       	ldi	r20, 0x01	; 1
    3cec:	50 e0       	ldi	r21, 0x00	; 0
    3cee:	0e 94 a3 1d 	call	0x3b46	; 0x3b46 <nrf24l01_read_register>
	
	return data;
}
    3cf2:	89 81       	ldd	r24, Y+1	; 0x01
    3cf4:	0f 90       	pop	r0
    3cf6:	cf 91       	pop	r28
    3cf8:	df 91       	pop	r29
    3cfa:	08 95       	ret

00003cfc <nrf24l01_cd_active>:
}

//returns the status of the CD register (true if carrier detect [CD] is
//  active, false if not)
bool nrf24l01_cd_active()
{
    3cfc:	df 93       	push	r29
    3cfe:	cf 93       	push	r28
    3d00:	0f 92       	push	r0
    3d02:	cd b7       	in	r28, 0x3d	; 61
    3d04:	de b7       	in	r29, 0x3e	; 62
	unsigned char data;
	
	nrf24l01_read_register(nrf24l01_CD, &data, 1);
    3d06:	89 e0       	ldi	r24, 0x09	; 9
    3d08:	be 01       	movw	r22, r28
    3d0a:	6f 5f       	subi	r22, 0xFF	; 255
    3d0c:	7f 4f       	sbci	r23, 0xFF	; 255
    3d0e:	41 e0       	ldi	r20, 0x01	; 1
    3d10:	50 e0       	ldi	r21, 0x00	; 0
    3d12:	0e 94 a3 1d 	call	0x3b46	; 0x3b46 <nrf24l01_read_register>
    3d16:	89 81       	ldd	r24, Y+1	; 0x01
    3d18:	81 11       	cpse	r24, r1
    3d1a:	81 e0       	ldi	r24, 0x01	; 1
	
	return data;
}
    3d1c:	0f 90       	pop	r0
    3d1e:	cf 91       	pop	r28
    3d20:	df 91       	pop	r29
    3d22:	08 95       	ret

00003d24 <nrf24l01_rx_pipe_enabled>:
//returns true if the pipe is enabled that is offset by rxpipenum
//unsigned char rxpipenum is the pipe number (zero to five) whose address is being
//	specified.  If an invalid address (greater than five) is supplied, the function
//  returns false.
bool nrf24l01_rx_pipe_enabled(unsigned char rxpipenum)
{
    3d24:	1f 93       	push	r17
    3d26:	df 93       	push	r29
    3d28:	cf 93       	push	r28
    3d2a:	0f 92       	push	r0
    3d2c:	cd b7       	in	r28, 0x3d	; 61
    3d2e:	de b7       	in	r29, 0x3e	; 62
    3d30:	18 2f       	mov	r17, r24
	unsigned char data;
	
	if((rxpipenum > 5))
    3d32:	86 30       	cpi	r24, 0x06	; 6
    3d34:	10 f0       	brcs	.+4      	; 0x3d3a <nrf24l01_rx_pipe_enabled+0x16>
    3d36:	80 e0       	ldi	r24, 0x00	; 0
    3d38:	10 c0       	rjmp	.+32     	; 0x3d5a <nrf24l01_rx_pipe_enabled+0x36>
		return false;
		
	nrf24l01_read_register(nrf24l01_EN_RXADDR, &data, 1);
    3d3a:	82 e0       	ldi	r24, 0x02	; 2
    3d3c:	be 01       	movw	r22, r28
    3d3e:	6f 5f       	subi	r22, 0xFF	; 255
    3d40:	7f 4f       	sbci	r23, 0xFF	; 255
    3d42:	41 e0       	ldi	r20, 0x01	; 1
    3d44:	50 e0       	ldi	r21, 0x00	; 0
    3d46:	0e 94 a3 1d 	call	0x3b46	; 0x3b46 <nrf24l01_read_register>
	
	return (data & (0x01 << rxpipenum));
    3d4a:	89 81       	ldd	r24, Y+1	; 0x01
    3d4c:	90 e0       	ldi	r25, 0x00	; 0
    3d4e:	02 c0       	rjmp	.+4      	; 0x3d54 <nrf24l01_rx_pipe_enabled+0x30>
    3d50:	95 95       	asr	r25
    3d52:	87 95       	ror	r24
    3d54:	1a 95       	dec	r17
    3d56:	e2 f7       	brpl	.-8      	; 0x3d50 <nrf24l01_rx_pipe_enabled+0x2c>
    3d58:	81 70       	andi	r24, 0x01	; 1
}
    3d5a:	0f 90       	pop	r0
    3d5c:	cf 91       	pop	r28
    3d5e:	df 91       	pop	r29
    3d60:	1f 91       	pop	r17
    3d62:	08 95       	ret

00003d64 <nrf24l01_aa_enabled>:
//returns true if auto-ack is enabled on the pipe that is offset by rxpipenum
//unsigned char rxpipenum is the pipe number (zero to five) whose address is being
//	specified.  If an invalid address (greater than five) is supplied, the function
//  returns false.
bool nrf24l01_aa_enabled(unsigned char rxpipenum)
{
    3d64:	1f 93       	push	r17
    3d66:	df 93       	push	r29
    3d68:	cf 93       	push	r28
    3d6a:	0f 92       	push	r0
    3d6c:	cd b7       	in	r28, 0x3d	; 61
    3d6e:	de b7       	in	r29, 0x3e	; 62
    3d70:	18 2f       	mov	r17, r24
	unsigned char data;
	
	if(rxpipenum > 5)
    3d72:	86 30       	cpi	r24, 0x06	; 6
    3d74:	10 f0       	brcs	.+4      	; 0x3d7a <nrf24l01_aa_enabled+0x16>
    3d76:	80 e0       	ldi	r24, 0x00	; 0
    3d78:	10 c0       	rjmp	.+32     	; 0x3d9a <nrf24l01_aa_enabled+0x36>
		return false;
		
	nrf24l01_read_register(nrf24l01_EN_AA, &data, 1);
    3d7a:	81 e0       	ldi	r24, 0x01	; 1
    3d7c:	be 01       	movw	r22, r28
    3d7e:	6f 5f       	subi	r22, 0xFF	; 255
    3d80:	7f 4f       	sbci	r23, 0xFF	; 255
    3d82:	41 e0       	ldi	r20, 0x01	; 1
    3d84:	50 e0       	ldi	r21, 0x00	; 0
    3d86:	0e 94 a3 1d 	call	0x3b46	; 0x3b46 <nrf24l01_read_register>
	
	return (data & (0x01 << rxpipenum));
    3d8a:	89 81       	ldd	r24, Y+1	; 0x01
    3d8c:	90 e0       	ldi	r25, 0x00	; 0
    3d8e:	02 c0       	rjmp	.+4      	; 0x3d94 <nrf24l01_aa_enabled+0x30>
    3d90:	95 95       	asr	r25
    3d92:	87 95       	ror	r24
    3d94:	1a 95       	dec	r17
    3d96:	e2 f7       	brpl	.-8      	; 0x3d90 <nrf24l01_aa_enabled+0x2c>
    3d98:	81 70       	andi	r24, 0x01	; 1
}
    3d9a:	0f 90       	pop	r0
    3d9c:	cf 91       	pop	r28
    3d9e:	df 91       	pop	r29
    3da0:	1f 91       	pop	r17
    3da2:	08 95       	ret

00003da4 <nrf24l01_get_arc_cnt>:
	nrf24l01_write_register(nrf24l01_RF_CH, &rf_ch, 1);
}

//returns the current ARC_CNT value in OBSERVE_TX register
unsigned char nrf24l01_get_arc_cnt()
{
    3da4:	df 93       	push	r29
    3da6:	cf 93       	push	r28
    3da8:	0f 92       	push	r0
    3daa:	cd b7       	in	r28, 0x3d	; 61
    3dac:	de b7       	in	r29, 0x3e	; 62
	unsigned char data;
	
	nrf24l01_read_register(nrf24l01_OBSERVE_TX, &data, 1);
    3dae:	88 e0       	ldi	r24, 0x08	; 8
    3db0:	be 01       	movw	r22, r28
    3db2:	6f 5f       	subi	r22, 0xFF	; 255
    3db4:	7f 4f       	sbci	r23, 0xFF	; 255
    3db6:	41 e0       	ldi	r20, 0x01	; 1
    3db8:	50 e0       	ldi	r21, 0x00	; 0
    3dba:	0e 94 a3 1d 	call	0x3b46	; 0x3b46 <nrf24l01_read_register>
    3dbe:	89 81       	ldd	r24, Y+1	; 0x01
	
	return (data & nrf24l01_OBSERVE_TX_ARC_CNT);
}
    3dc0:	8f 70       	andi	r24, 0x0F	; 15
    3dc2:	0f 90       	pop	r0
    3dc4:	cf 91       	pop	r28
    3dc6:	df 91       	pop	r29
    3dc8:	08 95       	ret

00003dca <nrf24l01_get_plos_cnt>:
	return data;
}

//returns the current PLOS_CNT value in OBSERVE_TX register
unsigned char nrf24l01_get_plos_cnt()
{
    3dca:	df 93       	push	r29
    3dcc:	cf 93       	push	r28
    3dce:	0f 92       	push	r0
    3dd0:	cd b7       	in	r28, 0x3d	; 61
    3dd2:	de b7       	in	r29, 0x3e	; 62
	unsigned char data;
	
	nrf24l01_read_register(nrf24l01_OBSERVE_TX, &data, 1);
    3dd4:	88 e0       	ldi	r24, 0x08	; 8
    3dd6:	be 01       	movw	r22, r28
    3dd8:	6f 5f       	subi	r22, 0xFF	; 255
    3dda:	7f 4f       	sbci	r23, 0xFF	; 255
    3ddc:	41 e0       	ldi	r20, 0x01	; 1
    3dde:	50 e0       	ldi	r21, 0x00	; 0
    3de0:	0e 94 a3 1d 	call	0x3b46	; 0x3b46 <nrf24l01_read_register>
    3de4:	89 81       	ldd	r24, Y+1	; 0x01
	
	return ((data & nrf24l01_OBSERVE_TX_PLOS_CNT) >> 4);
}
    3de6:	82 95       	swap	r24
    3de8:	8f 70       	andi	r24, 0x0F	; 15
    3dea:	0f 90       	pop	r0
    3dec:	cf 91       	pop	r28
    3dee:	df 91       	pop	r29
    3df0:	08 95       	ret

00003df2 <nrf24l01_get_observe_tx>:
	nrf24l01_write_register(nrf24l01_RF_CH, &data, 1);
}

//returns the value of the OBSERVE_TX register
unsigned char nrf24l01_get_observe_tx()
{
    3df2:	df 93       	push	r29
    3df4:	cf 93       	push	r28
    3df6:	0f 92       	push	r0
    3df8:	cd b7       	in	r28, 0x3d	; 61
    3dfa:	de b7       	in	r29, 0x3e	; 62
	unsigned char data;
	
	nrf24l01_read_register(nrf24l01_OBSERVE_TX, &data, 1);
    3dfc:	88 e0       	ldi	r24, 0x08	; 8
    3dfe:	be 01       	movw	r22, r28
    3e00:	6f 5f       	subi	r22, 0xFF	; 255
    3e02:	7f 4f       	sbci	r23, 0xFF	; 255
    3e04:	41 e0       	ldi	r20, 0x01	; 1
    3e06:	50 e0       	ldi	r21, 0x00	; 0
    3e08:	0e 94 a3 1d 	call	0x3b46	; 0x3b46 <nrf24l01_read_register>
	
	return data;
}
    3e0c:	89 81       	ldd	r24, Y+1	; 0x01
    3e0e:	0f 90       	pop	r0
    3e10:	cf 91       	pop	r28
    3e12:	df 91       	pop	r29
    3e14:	08 95       	ret

00003e16 <nrf24l01_get_rf_ch>:
	nrf24l01_write_register(nrf24l01_CONFIG, &config, 1);
}

//returns the current RF channel in RF_CH register
unsigned char nrf24l01_get_rf_ch()
{
    3e16:	df 93       	push	r29
    3e18:	cf 93       	push	r28
    3e1a:	0f 92       	push	r0
    3e1c:	cd b7       	in	r28, 0x3d	; 61
    3e1e:	de b7       	in	r29, 0x3e	; 62
	unsigned char data;
	
	nrf24l01_read_register(nrf24l01_RF_CH, &data, 1);
    3e20:	85 e0       	ldi	r24, 0x05	; 5
    3e22:	be 01       	movw	r22, r28
    3e24:	6f 5f       	subi	r22, 0xFF	; 255
    3e26:	7f 4f       	sbci	r23, 0xFF	; 255
    3e28:	41 e0       	ldi	r20, 0x01	; 1
    3e2a:	50 e0       	ldi	r21, 0x00	; 0
    3e2c:	0e 94 a3 1d 	call	0x3b46	; 0x3b46 <nrf24l01_read_register>
	
	return data;
}
    3e30:	89 81       	ldd	r24, Y+1	; 0x01
    3e32:	0f 90       	pop	r0
    3e34:	cf 91       	pop	r28
    3e36:	df 91       	pop	r29
    3e38:	08 95       	ret

00003e3a <nrf24l01_get_config>:
	return data;
}

//returns the value of the CONFIG register
unsigned char nrf24l01_get_config()
{
    3e3a:	df 93       	push	r29
    3e3c:	cf 93       	push	r28
    3e3e:	0f 92       	push	r0
    3e40:	cd b7       	in	r28, 0x3d	; 61
    3e42:	de b7       	in	r29, 0x3e	; 62
	unsigned char data;
	
	nrf24l01_read_register(nrf24l01_CONFIG, &data, 1);
    3e44:	80 e0       	ldi	r24, 0x00	; 0
    3e46:	be 01       	movw	r22, r28
    3e48:	6f 5f       	subi	r22, 0xFF	; 255
    3e4a:	7f 4f       	sbci	r23, 0xFF	; 255
    3e4c:	41 e0       	ldi	r20, 0x01	; 1
    3e4e:	50 e0       	ldi	r21, 0x00	; 0
    3e50:	0e 94 a3 1d 	call	0x3b46	; 0x3b46 <nrf24l01_read_register>
	
	return data;
}
    3e54:	89 81       	ldd	r24, Y+1	; 0x01
    3e56:	0f 90       	pop	r0
    3e58:	cf 91       	pop	r28
    3e5a:	df 91       	pop	r29
    3e5c:	08 95       	ret

00003e5e <nrf24l01_get_rx_pw>:
//gets the RX payload width on the pipe offset by rxpipenum
//unsigned char rxpipenum is the pipe number (zero to five) whose address is being
//	specified.  If an invalid address (greater than five) is supplied, the function
//  does nothing.
unsigned char nrf24l01_get_rx_pw(unsigned char rxpipenum)
{
    3e5e:	df 93       	push	r29
    3e60:	cf 93       	push	r28
    3e62:	0f 92       	push	r0
    3e64:	cd b7       	in	r28, 0x3d	; 61
    3e66:	de b7       	in	r29, 0x3e	; 62
	unsigned char data;
	
	if((rxpipenum > 5))
    3e68:	86 30       	cpi	r24, 0x06	; 6
    3e6a:	10 f0       	brcs	.+4      	; 0x3e70 <nrf24l01_get_rx_pw+0x12>
    3e6c:	80 e0       	ldi	r24, 0x00	; 0
    3e6e:	09 c0       	rjmp	.+18     	; 0x3e82 <nrf24l01_get_rx_pw+0x24>
		return 0;
		
	nrf24l01_read_register(nrf24l01_RX_PW_P0 + rxpipenum, &data, 1);
    3e70:	8f 5e       	subi	r24, 0xEF	; 239
    3e72:	be 01       	movw	r22, r28
    3e74:	6f 5f       	subi	r22, 0xFF	; 255
    3e76:	7f 4f       	sbci	r23, 0xFF	; 255
    3e78:	41 e0       	ldi	r20, 0x01	; 1
    3e7a:	50 e0       	ldi	r21, 0x00	; 0
    3e7c:	0e 94 a3 1d 	call	0x3b46	; 0x3b46 <nrf24l01_read_register>
	
	return data;
    3e80:	89 81       	ldd	r24, Y+1	; 0x01
}
    3e82:	0f 90       	pop	r0
    3e84:	cf 91       	pop	r28
    3e86:	df 91       	pop	r29
    3e88:	08 95       	ret

00003e8a <nrf24l01_write_register>:
//unsigned int len is always the size of unsigned char * data.  For example, if data is declared as
//  data[6], len should equal 6.
//returns the value of the STATUS register
unsigned char nrf24l01_write_register(unsigned char regnumber, unsigned char * data, unsigned int len)
{
	return nrf24l01_execute_command(nrf24l01_W_REGISTER | (regnumber & nrf24l01_W_REGISTER_DATA), data, len, false);
    3e8a:	8f 71       	andi	r24, 0x1F	; 31
    3e8c:	80 62       	ori	r24, 0x20	; 32
    3e8e:	20 e0       	ldi	r18, 0x00	; 0
    3e90:	0e 94 26 1d 	call	0x3a4c	; 0x3a4c <nrf24l01_execute_command>
}
    3e94:	08 95       	ret

00003e96 <nrf24l01_irq_clear_max_rt>:
	nrf24l01_write_register(nrf24l01_STATUS, &data, 1); 
}

//clears only the MAX_RT interrupt
void nrf24l01_irq_clear_max_rt()
{
    3e96:	df 93       	push	r29
    3e98:	cf 93       	push	r28
    3e9a:	0f 92       	push	r0
    3e9c:	cd b7       	in	r28, 0x3d	; 61
    3e9e:	de b7       	in	r29, 0x3e	; 62
	unsigned char data = nrf24l01_STATUS_MAX_RT;
    3ea0:	80 e1       	ldi	r24, 0x10	; 16
    3ea2:	89 83       	std	Y+1, r24	; 0x01
	
	nrf24l01_write_register(nrf24l01_STATUS, &data, 1); 
    3ea4:	87 e0       	ldi	r24, 0x07	; 7
    3ea6:	be 01       	movw	r22, r28
    3ea8:	6f 5f       	subi	r22, 0xFF	; 255
    3eaa:	7f 4f       	sbci	r23, 0xFF	; 255
    3eac:	41 e0       	ldi	r20, 0x01	; 1
    3eae:	50 e0       	ldi	r21, 0x00	; 0
    3eb0:	0e 94 45 1f 	call	0x3e8a	; 0x3e8a <nrf24l01_write_register>
}
    3eb4:	0f 90       	pop	r0
    3eb6:	cf 91       	pop	r28
    3eb8:	df 91       	pop	r29
    3eba:	08 95       	ret

00003ebc <nrf24l01_irq_clear_tx_ds>:
	nrf24l01_write_register(nrf24l01_STATUS, &data, 1); 
}

//clears only the TX_DS interrupt
void nrf24l01_irq_clear_tx_ds()
{
    3ebc:	df 93       	push	r29
    3ebe:	cf 93       	push	r28
    3ec0:	0f 92       	push	r0
    3ec2:	cd b7       	in	r28, 0x3d	; 61
    3ec4:	de b7       	in	r29, 0x3e	; 62
	unsigned char data = nrf24l01_STATUS_TX_DS;
    3ec6:	80 e2       	ldi	r24, 0x20	; 32
    3ec8:	89 83       	std	Y+1, r24	; 0x01
	
	nrf24l01_write_register(nrf24l01_STATUS, &data, 1); 
    3eca:	87 e0       	ldi	r24, 0x07	; 7
    3ecc:	be 01       	movw	r22, r28
    3ece:	6f 5f       	subi	r22, 0xFF	; 255
    3ed0:	7f 4f       	sbci	r23, 0xFF	; 255
    3ed2:	41 e0       	ldi	r20, 0x01	; 1
    3ed4:	50 e0       	ldi	r21, 0x00	; 0
    3ed6:	0e 94 45 1f 	call	0x3e8a	; 0x3e8a <nrf24l01_write_register>
}
    3eda:	0f 90       	pop	r0
    3edc:	cf 91       	pop	r28
    3ede:	df 91       	pop	r29
    3ee0:	08 95       	ret

00003ee2 <nrf24l01_irq_clear_rx_dr>:
	nrf24l01_write_register(nrf24l01_STATUS, &data, 1); 
}

//clears only the RX_DR interrupt
void nrf24l01_irq_clear_rx_dr()
{
    3ee2:	df 93       	push	r29
    3ee4:	cf 93       	push	r28
    3ee6:	0f 92       	push	r0
    3ee8:	cd b7       	in	r28, 0x3d	; 61
    3eea:	de b7       	in	r29, 0x3e	; 62
	unsigned char data = nrf24l01_STATUS_RX_DR;
    3eec:	80 e4       	ldi	r24, 0x40	; 64
    3eee:	89 83       	std	Y+1, r24	; 0x01
	
	nrf24l01_write_register(nrf24l01_STATUS, &data, 1); 
    3ef0:	87 e0       	ldi	r24, 0x07	; 7
    3ef2:	be 01       	movw	r22, r28
    3ef4:	6f 5f       	subi	r22, 0xFF	; 255
    3ef6:	7f 4f       	sbci	r23, 0xFF	; 255
    3ef8:	41 e0       	ldi	r20, 0x01	; 1
    3efa:	50 e0       	ldi	r21, 0x00	; 0
    3efc:	0e 94 45 1f 	call	0x3e8a	; 0x3e8a <nrf24l01_write_register>
}
    3f00:	0f 90       	pop	r0
    3f02:	cf 91       	pop	r28
    3f04:	df 91       	pop	r29
    3f06:	08 95       	ret

00003f08 <nrf24l01_irq_clear_all>:
	return (nrf24l01_get_status() & nrf24l01_STATUS_MAX_RT);
}

//clear all interrupts in the status register
void nrf24l01_irq_clear_all()
{
    3f08:	df 93       	push	r29
    3f0a:	cf 93       	push	r28
    3f0c:	0f 92       	push	r0
    3f0e:	cd b7       	in	r28, 0x3d	; 61
    3f10:	de b7       	in	r29, 0x3e	; 62
	unsigned char data = nrf24l01_STATUS_RX_DR | nrf24l01_STATUS_TX_DS | nrf24l01_STATUS_MAX_RT;
    3f12:	80 e7       	ldi	r24, 0x70	; 112
    3f14:	89 83       	std	Y+1, r24	; 0x01
	
	nrf24l01_write_register(nrf24l01_STATUS, &data, 1); 
    3f16:	87 e0       	ldi	r24, 0x07	; 7
    3f18:	be 01       	movw	r22, r28
    3f1a:	6f 5f       	subi	r22, 0xFF	; 255
    3f1c:	7f 4f       	sbci	r23, 0xFF	; 255
    3f1e:	41 e0       	ldi	r20, 0x01	; 1
    3f20:	50 e0       	ldi	r21, 0x00	; 0
    3f22:	0e 94 45 1f 	call	0x3e8a	; 0x3e8a <nrf24l01_write_register>
}
    3f26:	0f 90       	pop	r0
    3f28:	cf 91       	pop	r28
    3f2a:	df 91       	pop	r29
    3f2c:	08 95       	ret

00003f2e <nrf24l01_clear_flush>:
}

//flush both fifos and clear interrupts
void nrf24l01_clear_flush()
{
	nrf24l01_flush_rx();
    3f2e:	0e 94 87 1d 	call	0x3b0e	; 0x3b0e <nrf24l01_flush_rx>
	nrf24l01_flush_tx();
    3f32:	0e 94 90 1d 	call	0x3b20	; 0x3b20 <nrf24l01_flush_tx>
	nrf24l01_irq_clear_all();
    3f36:	0e 94 84 1f 	call	0x3f08	; 0x3f08 <nrf24l01_irq_clear_all>
}
    3f3a:	08 95       	ret

00003f3c <nrf24l01_rx_pipe_disable>:
//disables the pipe that is offset by rxpipenum
//unsigned char rxpipenum is the pipe number (zero to five) whose address is being
//	specified.  If an invalid address (greater than five) is supplied, the function
//  does nothing.
void nrf24l01_rx_pipe_disable(unsigned char rxpipenum)
{
    3f3c:	ef 92       	push	r14
    3f3e:	ff 92       	push	r15
    3f40:	1f 93       	push	r17
    3f42:	df 93       	push	r29
    3f44:	cf 93       	push	r28
    3f46:	0f 92       	push	r0
    3f48:	cd b7       	in	r28, 0x3d	; 61
    3f4a:	de b7       	in	r29, 0x3e	; 62
    3f4c:	18 2f       	mov	r17, r24
	unsigned char data;
	
	if(rxpipenum > 5)
    3f4e:	86 30       	cpi	r24, 0x06	; 6
    3f50:	28 f5       	brcc	.+74     	; 0x3f9c <nrf24l01_rx_pipe_disable+0x60>
		return;
		
	nrf24l01_read_register(nrf24l01_EN_RXADDR, &data, 1);
    3f52:	82 e0       	ldi	r24, 0x02	; 2
    3f54:	7e 01       	movw	r14, r28
    3f56:	08 94       	sec
    3f58:	e1 1c       	adc	r14, r1
    3f5a:	f1 1c       	adc	r15, r1
    3f5c:	b7 01       	movw	r22, r14
    3f5e:	41 e0       	ldi	r20, 0x01	; 1
    3f60:	50 e0       	ldi	r21, 0x00	; 0
    3f62:	0e 94 a3 1d 	call	0x3b46	; 0x3b46 <nrf24l01_read_register>
	
	if((data & (0x01 << rxpipenum)) == 0)
    3f66:	29 81       	ldd	r18, Y+1	; 0x01
    3f68:	82 2f       	mov	r24, r18
    3f6a:	90 e0       	ldi	r25, 0x00	; 0
    3f6c:	01 2e       	mov	r0, r17
    3f6e:	02 c0       	rjmp	.+4      	; 0x3f74 <nrf24l01_rx_pipe_disable+0x38>
    3f70:	95 95       	asr	r25
    3f72:	87 95       	ror	r24
    3f74:	0a 94       	dec	r0
    3f76:	e2 f7       	brpl	.-8      	; 0x3f70 <nrf24l01_rx_pipe_disable+0x34>
    3f78:	80 ff       	sbrs	r24, 0
    3f7a:	10 c0       	rjmp	.+32     	; 0x3f9c <nrf24l01_rx_pipe_disable+0x60>
		return;
	
	data &= ~(0x01 << rxpipenum);
    3f7c:	81 e0       	ldi	r24, 0x01	; 1
    3f7e:	90 e0       	ldi	r25, 0x00	; 0
    3f80:	02 c0       	rjmp	.+4      	; 0x3f86 <nrf24l01_rx_pipe_disable+0x4a>
    3f82:	88 0f       	add	r24, r24
    3f84:	99 1f       	adc	r25, r25
    3f86:	1a 95       	dec	r17
    3f88:	e2 f7       	brpl	.-8      	; 0x3f82 <nrf24l01_rx_pipe_disable+0x46>
    3f8a:	80 95       	com	r24
    3f8c:	82 23       	and	r24, r18
    3f8e:	89 83       	std	Y+1, r24	; 0x01
		
	nrf24l01_write_register(nrf24l01_EN_RXADDR, &data, 1);
    3f90:	82 e0       	ldi	r24, 0x02	; 2
    3f92:	b7 01       	movw	r22, r14
    3f94:	41 e0       	ldi	r20, 0x01	; 1
    3f96:	50 e0       	ldi	r21, 0x00	; 0
    3f98:	0e 94 45 1f 	call	0x3e8a	; 0x3e8a <nrf24l01_write_register>
}
    3f9c:	0f 90       	pop	r0
    3f9e:	cf 91       	pop	r28
    3fa0:	df 91       	pop	r29
    3fa2:	1f 91       	pop	r17
    3fa4:	ff 90       	pop	r15
    3fa6:	ef 90       	pop	r14
    3fa8:	08 95       	ret

00003faa <nrf24l01_rx_pipe_enable>:
//enables the pipe that is offset by rxpipenum
//unsigned char rxpipenum is the pipe number (zero to five) whose address is being
//	specified.  If an invalid address (greater than five) is supplied, the function
//  does nothing.
void nrf24l01_rx_pipe_enable(unsigned char rxpipenum)
{
    3faa:	ef 92       	push	r14
    3fac:	ff 92       	push	r15
    3fae:	1f 93       	push	r17
    3fb0:	df 93       	push	r29
    3fb2:	cf 93       	push	r28
    3fb4:	0f 92       	push	r0
    3fb6:	cd b7       	in	r28, 0x3d	; 61
    3fb8:	de b7       	in	r29, 0x3e	; 62
    3fba:	18 2f       	mov	r17, r24
	unsigned char data;
	
	if(rxpipenum > 5)
    3fbc:	86 30       	cpi	r24, 0x06	; 6
    3fbe:	20 f5       	brcc	.+72     	; 0x4008 <nrf24l01_rx_pipe_enable+0x5e>
		return;
		
	nrf24l01_read_register(nrf24l01_EN_RXADDR, &data, 1);
    3fc0:	82 e0       	ldi	r24, 0x02	; 2
    3fc2:	7e 01       	movw	r14, r28
    3fc4:	08 94       	sec
    3fc6:	e1 1c       	adc	r14, r1
    3fc8:	f1 1c       	adc	r15, r1
    3fca:	b7 01       	movw	r22, r14
    3fcc:	41 e0       	ldi	r20, 0x01	; 1
    3fce:	50 e0       	ldi	r21, 0x00	; 0
    3fd0:	0e 94 a3 1d 	call	0x3b46	; 0x3b46 <nrf24l01_read_register>
	
	if((data & (0x01 << rxpipenum)) != 0)
    3fd4:	29 81       	ldd	r18, Y+1	; 0x01
    3fd6:	82 2f       	mov	r24, r18
    3fd8:	90 e0       	ldi	r25, 0x00	; 0
    3fda:	01 2e       	mov	r0, r17
    3fdc:	02 c0       	rjmp	.+4      	; 0x3fe2 <nrf24l01_rx_pipe_enable+0x38>
    3fde:	95 95       	asr	r25
    3fe0:	87 95       	ror	r24
    3fe2:	0a 94       	dec	r0
    3fe4:	e2 f7       	brpl	.-8      	; 0x3fde <nrf24l01_rx_pipe_enable+0x34>
    3fe6:	80 fd       	sbrc	r24, 0
    3fe8:	0f c0       	rjmp	.+30     	; 0x4008 <nrf24l01_rx_pipe_enable+0x5e>
		return;
	
	data |= 0x01 << rxpipenum;
    3fea:	81 e0       	ldi	r24, 0x01	; 1
    3fec:	90 e0       	ldi	r25, 0x00	; 0
    3fee:	02 c0       	rjmp	.+4      	; 0x3ff4 <nrf24l01_rx_pipe_enable+0x4a>
    3ff0:	88 0f       	add	r24, r24
    3ff2:	99 1f       	adc	r25, r25
    3ff4:	1a 95       	dec	r17
    3ff6:	e2 f7       	brpl	.-8      	; 0x3ff0 <nrf24l01_rx_pipe_enable+0x46>
    3ff8:	28 2b       	or	r18, r24
    3ffa:	29 83       	std	Y+1, r18	; 0x01
		
	nrf24l01_write_register(nrf24l01_EN_RXADDR, &data, 1);
    3ffc:	82 e0       	ldi	r24, 0x02	; 2
    3ffe:	b7 01       	movw	r22, r14
    4000:	41 e0       	ldi	r20, 0x01	; 1
    4002:	50 e0       	ldi	r21, 0x00	; 0
    4004:	0e 94 45 1f 	call	0x3e8a	; 0x3e8a <nrf24l01_write_register>
}
    4008:	0f 90       	pop	r0
    400a:	cf 91       	pop	r28
    400c:	df 91       	pop	r29
    400e:	1f 91       	pop	r17
    4010:	ff 90       	pop	r15
    4012:	ef 90       	pop	r14
    4014:	08 95       	ret

00004016 <nrf24l01_aa_disable>:

//disables auto-ack is enabled on the pipe that is offset by rxpipenum
//unsigned char rxpipenum is the pipe number (zero to five) whose address is being
//	does nothing.
void nrf24l01_aa_disable(unsigned char rxpipenum)
{
    4016:	ef 92       	push	r14
    4018:	ff 92       	push	r15
    401a:	1f 93       	push	r17
    401c:	df 93       	push	r29
    401e:	cf 93       	push	r28
    4020:	0f 92       	push	r0
    4022:	cd b7       	in	r28, 0x3d	; 61
    4024:	de b7       	in	r29, 0x3e	; 62
    4026:	18 2f       	mov	r17, r24
	unsigned char data;
	
	if(rxpipenum > 5)
    4028:	86 30       	cpi	r24, 0x06	; 6
    402a:	28 f5       	brcc	.+74     	; 0x4076 <nrf24l01_aa_disable+0x60>
		return;
		
	nrf24l01_read_register(nrf24l01_EN_AA, &data, 1);
    402c:	81 e0       	ldi	r24, 0x01	; 1
    402e:	7e 01       	movw	r14, r28
    4030:	08 94       	sec
    4032:	e1 1c       	adc	r14, r1
    4034:	f1 1c       	adc	r15, r1
    4036:	b7 01       	movw	r22, r14
    4038:	41 e0       	ldi	r20, 0x01	; 1
    403a:	50 e0       	ldi	r21, 0x00	; 0
    403c:	0e 94 a3 1d 	call	0x3b46	; 0x3b46 <nrf24l01_read_register>
	
	if((data & (0x01 << rxpipenum)) == 0)
    4040:	29 81       	ldd	r18, Y+1	; 0x01
    4042:	82 2f       	mov	r24, r18
    4044:	90 e0       	ldi	r25, 0x00	; 0
    4046:	01 2e       	mov	r0, r17
    4048:	02 c0       	rjmp	.+4      	; 0x404e <nrf24l01_aa_disable+0x38>
    404a:	95 95       	asr	r25
    404c:	87 95       	ror	r24
    404e:	0a 94       	dec	r0
    4050:	e2 f7       	brpl	.-8      	; 0x404a <nrf24l01_aa_disable+0x34>
    4052:	80 ff       	sbrs	r24, 0
    4054:	10 c0       	rjmp	.+32     	; 0x4076 <nrf24l01_aa_disable+0x60>
		return;
	
	data &= ~(0x01 << rxpipenum);
    4056:	81 e0       	ldi	r24, 0x01	; 1
    4058:	90 e0       	ldi	r25, 0x00	; 0
    405a:	02 c0       	rjmp	.+4      	; 0x4060 <nrf24l01_aa_disable+0x4a>
    405c:	88 0f       	add	r24, r24
    405e:	99 1f       	adc	r25, r25
    4060:	1a 95       	dec	r17
    4062:	e2 f7       	brpl	.-8      	; 0x405c <nrf24l01_aa_disable+0x46>
    4064:	80 95       	com	r24
    4066:	82 23       	and	r24, r18
    4068:	89 83       	std	Y+1, r24	; 0x01
		
	nrf24l01_write_register(nrf24l01_EN_AA, &data, 1);
    406a:	81 e0       	ldi	r24, 0x01	; 1
    406c:	b7 01       	movw	r22, r14
    406e:	41 e0       	ldi	r20, 0x01	; 1
    4070:	50 e0       	ldi	r21, 0x00	; 0
    4072:	0e 94 45 1f 	call	0x3e8a	; 0x3e8a <nrf24l01_write_register>
}
    4076:	0f 90       	pop	r0
    4078:	cf 91       	pop	r28
    407a:	df 91       	pop	r29
    407c:	1f 91       	pop	r17
    407e:	ff 90       	pop	r15
    4080:	ef 90       	pop	r14
    4082:	08 95       	ret

00004084 <nrf24l01_aa_enable>:

//enables auto-ack is enabled on the pipe that is offset by rxpipenum
//unsigned char rxpipenum is the pipe number (zero to five) whose address is being
//	does nothing.
void nrf24l01_aa_enable(unsigned char rxpipenum)
{
    4084:	ef 92       	push	r14
    4086:	ff 92       	push	r15
    4088:	1f 93       	push	r17
    408a:	df 93       	push	r29
    408c:	cf 93       	push	r28
    408e:	0f 92       	push	r0
    4090:	cd b7       	in	r28, 0x3d	; 61
    4092:	de b7       	in	r29, 0x3e	; 62
    4094:	18 2f       	mov	r17, r24
	unsigned char data;
	
	if(rxpipenum > 5)
    4096:	86 30       	cpi	r24, 0x06	; 6
    4098:	20 f5       	brcc	.+72     	; 0x40e2 <nrf24l01_aa_enable+0x5e>
		return;
		
	nrf24l01_read_register(nrf24l01_EN_AA, &data, 1);
    409a:	81 e0       	ldi	r24, 0x01	; 1
    409c:	7e 01       	movw	r14, r28
    409e:	08 94       	sec
    40a0:	e1 1c       	adc	r14, r1
    40a2:	f1 1c       	adc	r15, r1
    40a4:	b7 01       	movw	r22, r14
    40a6:	41 e0       	ldi	r20, 0x01	; 1
    40a8:	50 e0       	ldi	r21, 0x00	; 0
    40aa:	0e 94 a3 1d 	call	0x3b46	; 0x3b46 <nrf24l01_read_register>
	
	if((data & (0x01 << rxpipenum)) != 0)
    40ae:	29 81       	ldd	r18, Y+1	; 0x01
    40b0:	82 2f       	mov	r24, r18
    40b2:	90 e0       	ldi	r25, 0x00	; 0
    40b4:	01 2e       	mov	r0, r17
    40b6:	02 c0       	rjmp	.+4      	; 0x40bc <nrf24l01_aa_enable+0x38>
    40b8:	95 95       	asr	r25
    40ba:	87 95       	ror	r24
    40bc:	0a 94       	dec	r0
    40be:	e2 f7       	brpl	.-8      	; 0x40b8 <nrf24l01_aa_enable+0x34>
    40c0:	80 fd       	sbrc	r24, 0
    40c2:	0f c0       	rjmp	.+30     	; 0x40e2 <nrf24l01_aa_enable+0x5e>
		return;
	
	data |= 0x01 << rxpipenum;
    40c4:	81 e0       	ldi	r24, 0x01	; 1
    40c6:	90 e0       	ldi	r25, 0x00	; 0
    40c8:	02 c0       	rjmp	.+4      	; 0x40ce <nrf24l01_aa_enable+0x4a>
    40ca:	88 0f       	add	r24, r24
    40cc:	99 1f       	adc	r25, r25
    40ce:	1a 95       	dec	r17
    40d0:	e2 f7       	brpl	.-8      	; 0x40ca <nrf24l01_aa_enable+0x46>
    40d2:	28 2b       	or	r18, r24
    40d4:	29 83       	std	Y+1, r18	; 0x01
		
	nrf24l01_write_register(nrf24l01_EN_AA, &data, 1);
    40d6:	81 e0       	ldi	r24, 0x01	; 1
    40d8:	b7 01       	movw	r22, r14
    40da:	41 e0       	ldi	r20, 0x01	; 1
    40dc:	50 e0       	ldi	r21, 0x00	; 0
    40de:	0e 94 45 1f 	call	0x3e8a	; 0x3e8a <nrf24l01_write_register>
}
    40e2:	0f 90       	pop	r0
    40e4:	cf 91       	pop	r28
    40e6:	df 91       	pop	r29
    40e8:	1f 91       	pop	r17
    40ea:	ff 90       	pop	r15
    40ec:	ef 90       	pop	r14
    40ee:	08 95       	ret

000040f0 <nrf24l01_clear_plos_cnt_param>:

//clears the PLOS_CNT field of the OBSERVE_TX register
//this function allows the user to set the RF_CH register by using
//  the argument in the function during the PLOS_CNT clearing process
void nrf24l01_clear_plos_cnt_param(unsigned char rf_ch)
{
    40f0:	df 93       	push	r29
    40f2:	cf 93       	push	r28
    40f4:	0f 92       	push	r0
    40f6:	cd b7       	in	r28, 0x3d	; 61
    40f8:	de b7       	in	r29, 0x3e	; 62
    40fa:	89 83       	std	Y+1, r24	; 0x01
	nrf24l01_write_register(nrf24l01_RF_CH, &rf_ch, 1);
    40fc:	85 e0       	ldi	r24, 0x05	; 5
    40fe:	be 01       	movw	r22, r28
    4100:	6f 5f       	subi	r22, 0xFF	; 255
    4102:	7f 4f       	sbci	r23, 0xFF	; 255
    4104:	41 e0       	ldi	r20, 0x01	; 1
    4106:	50 e0       	ldi	r21, 0x00	; 0
    4108:	0e 94 45 1f 	call	0x3e8a	; 0x3e8a <nrf24l01_write_register>
}
    410c:	0f 90       	pop	r0
    410e:	cf 91       	pop	r28
    4110:	df 91       	pop	r29
    4112:	08 95       	ret

00004114 <nrf24l01_clear_plos_cnt>:

//clears the PLOS_CNT field of the OBSERVE_TX register
//this function makes a read of the current value of RF_CH and
//  simply writes it back to the register, clearing PLOS_CNT
void nrf24l01_clear_plos_cnt()
{
    4114:	0f 93       	push	r16
    4116:	1f 93       	push	r17
    4118:	df 93       	push	r29
    411a:	cf 93       	push	r28
    411c:	0f 92       	push	r0
    411e:	cd b7       	in	r28, 0x3d	; 61
    4120:	de b7       	in	r29, 0x3e	; 62
	unsigned char data;
	
	nrf24l01_read_register(nrf24l01_RF_CH, &data, 1);
    4122:	85 e0       	ldi	r24, 0x05	; 5
    4124:	8e 01       	movw	r16, r28
    4126:	0f 5f       	subi	r16, 0xFF	; 255
    4128:	1f 4f       	sbci	r17, 0xFF	; 255
    412a:	b8 01       	movw	r22, r16
    412c:	41 e0       	ldi	r20, 0x01	; 1
    412e:	50 e0       	ldi	r21, 0x00	; 0
    4130:	0e 94 a3 1d 	call	0x3b46	; 0x3b46 <nrf24l01_read_register>
	nrf24l01_write_register(nrf24l01_RF_CH, &data, 1);
    4134:	85 e0       	ldi	r24, 0x05	; 5
    4136:	b8 01       	movw	r22, r16
    4138:	41 e0       	ldi	r20, 0x01	; 1
    413a:	50 e0       	ldi	r21, 0x00	; 0
    413c:	0e 94 45 1f 	call	0x3e8a	; 0x3e8a <nrf24l01_write_register>
}
    4140:	0f 90       	pop	r0
    4142:	cf 91       	pop	r28
    4144:	df 91       	pop	r29
    4146:	1f 91       	pop	r17
    4148:	0f 91       	pop	r16
    414a:	08 95       	ret

0000414c <nrf24l01_set_rf_ch>:
	return data;
}

//unsigned char channel is the channel to be changed to.
void nrf24l01_set_rf_ch(unsigned char channel)
{
    414c:	df 93       	push	r29
    414e:	cf 93       	push	r28
    4150:	0f 92       	push	r0
    4152:	cd b7       	in	r28, 0x3d	; 61
    4154:	de b7       	in	r29, 0x3e	; 62
	unsigned char data;
	
	data = channel & ~nrf24l01_RF_CH_RESERVED;
    4156:	8f 77       	andi	r24, 0x7F	; 127
    4158:	89 83       	std	Y+1, r24	; 0x01
	
	nrf24l01_write_register(nrf24l01_RF_CH, &data, 1);
    415a:	85 e0       	ldi	r24, 0x05	; 5
    415c:	be 01       	movw	r22, r28
    415e:	6f 5f       	subi	r22, 0xFF	; 255
    4160:	7f 4f       	sbci	r23, 0xFF	; 255
    4162:	41 e0       	ldi	r20, 0x01	; 1
    4164:	50 e0       	ldi	r21, 0x00	; 0
    4166:	0e 94 45 1f 	call	0x3e8a	; 0x3e8a <nrf24l01_write_register>
}
    416a:	0f 90       	pop	r0
    416c:	cf 91       	pop	r28
    416e:	df 91       	pop	r29
    4170:	08 95       	ret

00004172 <nrf24l01_set_config>:
	return data;
}

//sets the value of the CONFIG register
void nrf24l01_set_config(unsigned char config)
{
    4172:	df 93       	push	r29
    4174:	cf 93       	push	r28
    4176:	0f 92       	push	r0
    4178:	cd b7       	in	r28, 0x3d	; 61
    417a:	de b7       	in	r29, 0x3e	; 62
    417c:	89 83       	std	Y+1, r24	; 0x01
	nrf24l01_write_register(nrf24l01_CONFIG, &config, 1);
    417e:	80 e0       	ldi	r24, 0x00	; 0
    4180:	be 01       	movw	r22, r28
    4182:	6f 5f       	subi	r22, 0xFF	; 255
    4184:	7f 4f       	sbci	r23, 0xFF	; 255
    4186:	41 e0       	ldi	r20, 0x01	; 1
    4188:	50 e0       	ldi	r21, 0x00	; 0
    418a:	0e 94 45 1f 	call	0x3e8a	; 0x3e8a <nrf24l01_write_register>
}
    418e:	0f 90       	pop	r0
    4190:	cf 91       	pop	r28
    4192:	df 91       	pop	r29
    4194:	08 95       	ret

00004196 <nrf24l01_set_rx_pw>:
//  specified, the function does nothing.
//unsigned char rxpipenum is the pipe number (zero to five) whose address is being
//	specified.  If an invalid address (greater than five) is supplied, the function
//  does nothing.
void nrf24l01_set_rx_pw(unsigned char payloadwidth, unsigned char rxpipenum)
{
    4196:	df 93       	push	r29
    4198:	cf 93       	push	r28
    419a:	0f 92       	push	r0
    419c:	cd b7       	in	r28, 0x3d	; 61
    419e:	de b7       	in	r29, 0x3e	; 62
    41a0:	89 83       	std	Y+1, r24	; 0x01
	if((rxpipenum > 5) || (payloadwidth > 32))
    41a2:	66 30       	cpi	r22, 0x06	; 6
    41a4:	58 f4       	brcc	.+22     	; 0x41bc <nrf24l01_set_rx_pw+0x26>
    41a6:	81 32       	cpi	r24, 0x21	; 33
    41a8:	48 f4       	brcc	.+18     	; 0x41bc <nrf24l01_set_rx_pw+0x26>
		return;
		
	nrf24l01_write_register(nrf24l01_RX_PW_P0 + rxpipenum, &payloadwidth, 1);
    41aa:	86 2f       	mov	r24, r22
    41ac:	8f 5e       	subi	r24, 0xEF	; 239
    41ae:	be 01       	movw	r22, r28
    41b0:	6f 5f       	subi	r22, 0xFF	; 255
    41b2:	7f 4f       	sbci	r23, 0xFF	; 255
    41b4:	41 e0       	ldi	r20, 0x01	; 1
    41b6:	50 e0       	ldi	r21, 0x00	; 0
    41b8:	0e 94 45 1f 	call	0x3e8a	; 0x3e8a <nrf24l01_write_register>
}
    41bc:	0f 90       	pop	r0
    41be:	cf 91       	pop	r28
    41c0:	df 91       	pop	r29
    41c2:	08 95       	ret

000041c4 <nrf24l01_set_rx_addr>:
//	according to the rx_addr length specified to the nrf24l01.
//unsigned char rxpipenum is the pipe number (zero to five) whose address is being
//	specified.  If an invalid address (greater than five) is supplied, the function
//  does nothing.
void nrf24l01_set_rx_addr(unsigned char * address, unsigned int len, unsigned char rxpipenum)
{	
    41c4:	9c 01       	movw	r18, r24
    41c6:	fb 01       	movw	r30, r22
	if(rxpipenum > 5)
    41c8:	46 30       	cpi	r20, 0x06	; 6
    41ca:	30 f4       	brcc	.+12     	; 0x41d8 <nrf24l01_set_rx_addr+0x14>
		return;
		
	nrf24l01_write_register(nrf24l01_RX_ADDR_P0 + rxpipenum, address, len);
    41cc:	84 2f       	mov	r24, r20
    41ce:	86 5f       	subi	r24, 0xF6	; 246
    41d0:	b9 01       	movw	r22, r18
    41d2:	af 01       	movw	r20, r30
    41d4:	0e 94 45 1f 	call	0x3e8a	; 0x3e8a <nrf24l01_write_register>
    41d8:	08 95       	ret

000041da <nrf24l01_set_tx_addr>:
//unsigned char * address is the actual address to be used.  It should be sized
//	according to the tx_addr length specified to the nrf24l01.
//unsigned int len is the length of the address.  Its value should be specified
//	according to the tx_addr length specified to the nrf24l01.
void nrf24l01_set_tx_addr(unsigned char * address, unsigned int len)
{		
    41da:	9c 01       	movw	r18, r24
    41dc:	ab 01       	movw	r20, r22
	nrf24l01_write_register(nrf24l01_TX_ADDR, address, len);
    41de:	80 e1       	ldi	r24, 0x10	; 16
    41e0:	b9 01       	movw	r22, r18
    41e2:	0e 94 45 1f 	call	0x3e8a	; 0x3e8a <nrf24l01_write_register>
}
    41e6:	08 95       	ret

000041e8 <nrf24l01_set_as_tx>:
//this function takes the existing contents of the CONFIG register and simply
//  clears the PRIM_RX bit in the CONFIG register.
//note: if the read value of the CONFIG register already has the PRIM_RX bit cleared, this 
//  function exits in order to not make an unecessary register write.
void nrf24l01_set_as_tx()
{
    41e8:	0f 93       	push	r16
    41ea:	1f 93       	push	r17
    41ec:	df 93       	push	r29
    41ee:	cf 93       	push	r28
    41f0:	0f 92       	push	r0
    41f2:	cd b7       	in	r28, 0x3d	; 61
    41f4:	de b7       	in	r29, 0x3e	; 62
	unsigned char config;
	
	nrf24l01_read_register(nrf24l01_CONFIG, &config, 1);
    41f6:	80 e0       	ldi	r24, 0x00	; 0
    41f8:	8e 01       	movw	r16, r28
    41fa:	0f 5f       	subi	r16, 0xFF	; 255
    41fc:	1f 4f       	sbci	r17, 0xFF	; 255
    41fe:	b8 01       	movw	r22, r16
    4200:	41 e0       	ldi	r20, 0x01	; 1
    4202:	50 e0       	ldi	r21, 0x00	; 0
    4204:	0e 94 a3 1d 	call	0x3b46	; 0x3b46 <nrf24l01_read_register>
	
	if((config & nrf24l01_CONFIG_PRIM_RX) == 0)
    4208:	89 81       	ldd	r24, Y+1	; 0x01
    420a:	80 ff       	sbrs	r24, 0
    420c:	09 c0       	rjmp	.+18     	; 0x4220 <nrf24l01_set_as_tx+0x38>
		return;
	
	config &= (~nrf24l01_CONFIG_PRIM_RX);
    420e:	8e 7f       	andi	r24, 0xFE	; 254
    4210:	89 83       	std	Y+1, r24	; 0x01
	
	nrf24l01_write_register(nrf24l01_CONFIG, &config, 1);
    4212:	80 e0       	ldi	r24, 0x00	; 0
    4214:	b8 01       	movw	r22, r16
    4216:	41 e0       	ldi	r20, 0x01	; 1
    4218:	50 e0       	ldi	r21, 0x00	; 0
    421a:	0e 94 45 1f 	call	0x3e8a	; 0x3e8a <nrf24l01_write_register>
}

//clears the pin on the host microcontroller that is attached to the 24l01's CE pin
void nrf24l01_clear_ce()
{
	nrf24l01_CE_IOREGISTER &= ~nrf24l01_CE_PINMASK;
    421e:	c6 98       	cbi	0x18, 6	; 24
	config &= (~nrf24l01_CONFIG_PRIM_RX);
	
	nrf24l01_write_register(nrf24l01_CONFIG, &config, 1);

	nrf24l01_clear_ce();
}
    4220:	0f 90       	pop	r0
    4222:	cf 91       	pop	r28
    4224:	df 91       	pop	r29
    4226:	1f 91       	pop	r17
    4228:	0f 91       	pop	r16
    422a:	08 95       	ret

0000422c <nrf24l01_set_as_rx>:
//  and not monitor for packets.  If the argument is true, the CE pin will be set 
//  and the 24L01 will monitor for packets.
//note: if the read value of the CONFIG register already has the PRIM_RX bit set, this function
//  exits in order to not make an unecessary register write.
void nrf24l01_set_as_rx(bool rx_active_mode)
{
    422c:	ff 92       	push	r15
    422e:	0f 93       	push	r16
    4230:	1f 93       	push	r17
    4232:	df 93       	push	r29
    4234:	cf 93       	push	r28
    4236:	0f 92       	push	r0
    4238:	cd b7       	in	r28, 0x3d	; 61
    423a:	de b7       	in	r29, 0x3e	; 62
    423c:	f8 2e       	mov	r15, r24
	unsigned char config;
	unsigned char status;
	
	status = nrf24l01_read_register(0, &config, 1);
    423e:	80 e0       	ldi	r24, 0x00	; 0
    4240:	8e 01       	movw	r16, r28
    4242:	0f 5f       	subi	r16, 0xFF	; 255
    4244:	1f 4f       	sbci	r17, 0xFF	; 255
    4246:	b8 01       	movw	r22, r16
    4248:	41 e0       	ldi	r20, 0x01	; 1
    424a:	50 e0       	ldi	r21, 0x00	; 0
    424c:	0e 94 a3 1d 	call	0x3b46	; 0x3b46 <nrf24l01_read_register>

	if((config & nrf24l01_CONFIG_PRIM_RX) != 0)
    4250:	89 81       	ldd	r24, Y+1	; 0x01
    4252:	80 fd       	sbrc	r24, 0
    4254:	0d c0       	rjmp	.+26     	; 0x4270 <nrf24l01_set_as_rx+0x44>
		return;

	config |= nrf24l01_CONFIG_PRIM_RX;
    4256:	81 60       	ori	r24, 0x01	; 1
    4258:	89 83       	std	Y+1, r24	; 0x01
	
	nrf24l01_write_register(nrf24l01_CONFIG, &config, 1);
    425a:	80 e0       	ldi	r24, 0x00	; 0
    425c:	b8 01       	movw	r22, r16
    425e:	41 e0       	ldi	r20, 0x01	; 1
    4260:	50 e0       	ldi	r21, 0x00	; 0
    4262:	0e 94 45 1f 	call	0x3e8a	; 0x3e8a <nrf24l01_write_register>

	if(rx_active_mode != false)
    4266:	ff 20       	and	r15, r15
    4268:	11 f0       	breq	.+4      	; 0x426e <nrf24l01_set_as_rx+0x42>
}

//sets the pin on the host microcontroller that is attached to the 24l01's CE pin
void nrf24l01_set_ce()
{
	nrf24l01_CE_IOREGISTER |= nrf24l01_CE_PINMASK;
    426a:	c6 9a       	sbi	0x18, 6	; 24
    426c:	01 c0       	rjmp	.+2      	; 0x4270 <nrf24l01_set_as_rx+0x44>
}

//clears the pin on the host microcontroller that is attached to the 24l01's CE pin
void nrf24l01_clear_ce()
{
	nrf24l01_CE_IOREGISTER &= ~nrf24l01_CE_PINMASK;
    426e:	c6 98       	cbi	0x18, 6	; 24

	if(rx_active_mode != false)
		nrf24l01_set_ce();
	else
		nrf24l01_clear_ce();
}
    4270:	0f 90       	pop	r0
    4272:	cf 91       	pop	r28
    4274:	df 91       	pop	r29
    4276:	1f 91       	pop	r17
    4278:	0f 91       	pop	r16
    427a:	ff 90       	pop	r15
    427c:	08 95       	ret

0000427e <nrf24l01_power_down_param>:

//powers down the 24L01
//this function allows the user to set the contents of the CONFIG register, but the function
//  clears the PWR_UP bit in the CONFIG register, so the user does not need to.
void nrf24l01_power_down_param(unsigned char config)
{
    427e:	df 93       	push	r29
    4280:	cf 93       	push	r28
    4282:	0f 92       	push	r0
    4284:	cd b7       	in	r28, 0x3d	; 61
    4286:	de b7       	in	r29, 0x3e	; 62
	config &= (~nrf24l01_CONFIG_PWR_UP);
    4288:	8d 7f       	andi	r24, 0xFD	; 253
    428a:	89 83       	std	Y+1, r24	; 0x01
	
	nrf24l01_write_register(nrf24l01_CONFIG, &config, 1);
    428c:	80 e0       	ldi	r24, 0x00	; 0
    428e:	be 01       	movw	r22, r28
    4290:	6f 5f       	subi	r22, 0xFF	; 255
    4292:	7f 4f       	sbci	r23, 0xFF	; 255
    4294:	41 e0       	ldi	r20, 0x01	; 1
    4296:	50 e0       	ldi	r21, 0x00	; 0
    4298:	0e 94 45 1f 	call	0x3e8a	; 0x3e8a <nrf24l01_write_register>
}

//clears the pin on the host microcontroller that is attached to the 24l01's CE pin
void nrf24l01_clear_ce()
{
	nrf24l01_CE_IOREGISTER &= ~nrf24l01_CE_PINMASK;
    429c:	c6 98       	cbi	0x18, 6	; 24
	config &= (~nrf24l01_CONFIG_PWR_UP);
	
	nrf24l01_write_register(nrf24l01_CONFIG, &config, 1);

	nrf24l01_clear_ce();
}
    429e:	0f 90       	pop	r0
    42a0:	cf 91       	pop	r28
    42a2:	df 91       	pop	r29
    42a4:	08 95       	ret

000042a6 <nrf24l01_power_down>:
//this function takes the existing contents of the CONFIG register and simply
//  clears the PWR_UP bit in the CONFIG register.
//note: if the read value of the CONFIG register already has the PWR_UP bit cleared, this 
//  function exits in order to not make an unecessary register write.
void nrf24l01_power_down()
{
    42a6:	0f 93       	push	r16
    42a8:	1f 93       	push	r17
    42aa:	df 93       	push	r29
    42ac:	cf 93       	push	r28
    42ae:	0f 92       	push	r0
    42b0:	cd b7       	in	r28, 0x3d	; 61
    42b2:	de b7       	in	r29, 0x3e	; 62
	unsigned char config;
	
	nrf24l01_read_register(nrf24l01_CONFIG, &config, 1);
    42b4:	80 e0       	ldi	r24, 0x00	; 0
    42b6:	8e 01       	movw	r16, r28
    42b8:	0f 5f       	subi	r16, 0xFF	; 255
    42ba:	1f 4f       	sbci	r17, 0xFF	; 255
    42bc:	b8 01       	movw	r22, r16
    42be:	41 e0       	ldi	r20, 0x01	; 1
    42c0:	50 e0       	ldi	r21, 0x00	; 0
    42c2:	0e 94 a3 1d 	call	0x3b46	; 0x3b46 <nrf24l01_read_register>
	
	if((config & nrf24l01_CONFIG_PWR_UP) == 0)
    42c6:	89 81       	ldd	r24, Y+1	; 0x01
    42c8:	81 ff       	sbrs	r24, 1
    42ca:	09 c0       	rjmp	.+18     	; 0x42de <nrf24l01_power_down+0x38>
		return;
	
	config &= (~nrf24l01_CONFIG_PWR_UP);
    42cc:	8d 7f       	andi	r24, 0xFD	; 253
    42ce:	89 83       	std	Y+1, r24	; 0x01
	
	nrf24l01_write_register(nrf24l01_CONFIG, &config, 1);
    42d0:	80 e0       	ldi	r24, 0x00	; 0
    42d2:	b8 01       	movw	r22, r16
    42d4:	41 e0       	ldi	r20, 0x01	; 1
    42d6:	50 e0       	ldi	r21, 0x00	; 0
    42d8:	0e 94 45 1f 	call	0x3e8a	; 0x3e8a <nrf24l01_write_register>
}

//clears the pin on the host microcontroller that is attached to the 24l01's CE pin
void nrf24l01_clear_ce()
{
	nrf24l01_CE_IOREGISTER &= ~nrf24l01_CE_PINMASK;
    42dc:	c6 98       	cbi	0x18, 6	; 24
	config &= (~nrf24l01_CONFIG_PWR_UP);
	
	nrf24l01_write_register(nrf24l01_CONFIG, &config, 1);

	nrf24l01_clear_ce();
}
    42de:	0f 90       	pop	r0
    42e0:	cf 91       	pop	r28
    42e2:	df 91       	pop	r29
    42e4:	1f 91       	pop	r17
    42e6:	0f 91       	pop	r16
    42e8:	08 95       	ret

000042ea <nrf24l01_transmit>:
}

//sets the pin on the host microcontroller that is attached to the 24l01's CE pin
void nrf24l01_set_ce()
{
	nrf24l01_CE_IOREGISTER |= nrf24l01_CE_PINMASK;
    42ea:	c6 9a       	sbi	0x18, 6	; 24

//transmits the current tx payload
void nrf24l01_transmit()
{
	nrf24l01_set_ce();
	delay_10us();
    42ec:	0e 94 97 1c 	call	0x392e	; 0x392e <delay_10us>
	delay_10us();
    42f0:	0e 94 97 1c 	call	0x392e	; 0x392e <delay_10us>
	delay_10us();
    42f4:	0e 94 97 1c 	call	0x392e	; 0x392e <delay_10us>
}

//clears the pin on the host microcontroller that is attached to the 24l01's CE pin
void nrf24l01_clear_ce()
{
	nrf24l01_CE_IOREGISTER &= ~nrf24l01_CE_PINMASK;
    42f8:	c6 98       	cbi	0x18, 6	; 24
	nrf24l01_set_ce();
	delay_10us();
	delay_10us();
	delay_10us();
	nrf24l01_clear_ce();
}
    42fa:	08 95       	ret

000042fc <nrf24l01_write_tx_payload>:
//	according to the payload length specified by the receiving nrf24l01).
//if bool transmit is true, the nrf24l01 immediately transmits the data in the payload.
//	if false, the user must use the nrf24l01_transmit() function to send the payload.
//returns the value of the STATUS register
unsigned char nrf24l01_write_tx_payload(unsigned char * data, unsigned int len, bool transmit)
{
    42fc:	0f 93       	push	r16
    42fe:	1f 93       	push	r17
    4300:	9c 01       	movw	r18, r24
    4302:	fb 01       	movw	r30, r22
    4304:	14 2f       	mov	r17, r20
	unsigned char status;
	
	status = nrf24l01_execute_command(nrf24l01_W_TX_PAYLOAD, data, len, false);
    4306:	80 ea       	ldi	r24, 0xA0	; 160
    4308:	b9 01       	movw	r22, r18
    430a:	af 01       	movw	r20, r30
    430c:	20 e0       	ldi	r18, 0x00	; 0
    430e:	0e 94 26 1d 	call	0x3a4c	; 0x3a4c <nrf24l01_execute_command>
    4312:	08 2f       	mov	r16, r24
	
	if(transmit == true)
    4314:	11 23       	and	r17, r17
    4316:	11 f0       	breq	.+4      	; 0x431c <nrf24l01_write_tx_payload+0x20>
		nrf24l01_transmit();
    4318:	0e 94 75 21 	call	0x42ea	; 0x42ea <nrf24l01_transmit>
	
	return status;
}
    431c:	80 2f       	mov	r24, r16
    431e:	1f 91       	pop	r17
    4320:	0f 91       	pop	r16
    4322:	08 95       	ret

00004324 <nrf24l01_power_up_param>:
//  24L01 as a receiver.  If the argument is false, the receiver will remain in
//  standby mode and not monitor for packets.  If the argument is true, the CE
//  pin will be set and the 24L01 will monitor for packets.  In TX mode, the value
//  of this argument is insignificant.
void nrf24l01_power_up_param(bool rx_active_mode, unsigned char config)
{
    4324:	1f 93       	push	r17
    4326:	df 93       	push	r29
    4328:	cf 93       	push	r28
    432a:	0f 92       	push	r0
    432c:	cd b7       	in	r28, 0x3d	; 61
    432e:	de b7       	in	r29, 0x3e	; 62
    4330:	18 2f       	mov	r17, r24
	//unsigned char test, test2;
	
	config |= nrf24l01_CONFIG_PWR_UP;
    4332:	62 60       	ori	r22, 0x02	; 2
    4334:	69 83       	std	Y+1, r22	; 0x01
	
	nrf24l01_write_register(nrf24l01_CONFIG, &config, 1);
    4336:	80 e0       	ldi	r24, 0x00	; 0
    4338:	be 01       	movw	r22, r28
    433a:	6f 5f       	subi	r22, 0xFF	; 255
    433c:	7f 4f       	sbci	r23, 0xFF	; 255
    433e:	41 e0       	ldi	r20, 0x01	; 1
    4340:	50 e0       	ldi	r21, 0x00	; 0
    4342:	0e 94 45 1f 	call	0x3e8a	; 0x3e8a <nrf24l01_write_register>

	delay_10us_multiple(150);
    4346:	86 e9       	ldi	r24, 0x96	; 150
    4348:	0e 94 b7 1c 	call	0x396e	; 0x396e <delay_10us_multiple>
	delay_10us_multiple(150);
    434c:	86 e9       	ldi	r24, 0x96	; 150
    434e:	0e 94 b7 1c 	call	0x396e	; 0x396e <delay_10us_multiple>
	delay_10us_multiple(150);
    4352:	86 e9       	ldi	r24, 0x96	; 150
    4354:	0e 94 b7 1c 	call	0x396e	; 0x396e <delay_10us_multiple>

	if((config & nrf24l01_CONFIG_PRIM_RX) == 0)
    4358:	89 81       	ldd	r24, Y+1	; 0x01
    435a:	80 ff       	sbrs	r24, 0
    435c:	04 c0       	rjmp	.+8      	; 0x4366 <nrf24l01_power_up_param+0x42>
		nrf24l01_clear_ce();
	else
	{
		if(rx_active_mode != false)
    435e:	11 23       	and	r17, r17
    4360:	11 f0       	breq	.+4      	; 0x4366 <nrf24l01_power_up_param+0x42>
}

//sets the pin on the host microcontroller that is attached to the 24l01's CE pin
void nrf24l01_set_ce()
{
	nrf24l01_CE_IOREGISTER |= nrf24l01_CE_PINMASK;
    4362:	c6 9a       	sbi	0x18, 6	; 24
    4364:	01 c0       	rjmp	.+2      	; 0x4368 <nrf24l01_power_up_param+0x44>
}

//clears the pin on the host microcontroller that is attached to the 24l01's CE pin
void nrf24l01_clear_ce()
{
	nrf24l01_CE_IOREGISTER &= ~nrf24l01_CE_PINMASK;
    4366:	c6 98       	cbi	0x18, 6	; 24
		if(rx_active_mode != false)
			nrf24l01_set_ce();
		else
			nrf24l01_clear_ce();
	}
}
    4368:	0f 90       	pop	r0
    436a:	cf 91       	pop	r28
    436c:	df 91       	pop	r29
    436e:	1f 91       	pop	r17
    4370:	08 95       	ret

00004372 <nrf24l01_set_as_tx_param>:
//sets up the 24L01 as a transmitter
//this function allows the user to set the contents of the CONFIG register, but the function
//  clears the PRIM_RX bit in the CONFIG register, so the user does not need to.
void nrf24l01_set_as_tx_param(unsigned char config)
{
	config &= ~(nrf24l01_CONFIG_PRIM_RX);
    4372:	68 2f       	mov	r22, r24
    4374:	6e 7f       	andi	r22, 0xFE	; 254
	
	if((config & nrf24l01_CONFIG_PWR_UP) != 0)
    4376:	61 ff       	sbrs	r22, 1
    4378:	04 c0       	rjmp	.+8      	; 0x4382 <nrf24l01_set_as_tx_param+0x10>
		nrf24l01_power_up_param(false, config);
    437a:	80 e0       	ldi	r24, 0x00	; 0
    437c:	0e 94 92 21 	call	0x4324	; 0x4324 <nrf24l01_power_up_param>
    4380:	08 95       	ret
	else
		nrf24l01_power_down_param(config);
    4382:	86 2f       	mov	r24, r22
    4384:	0e 94 3f 21 	call	0x427e	; 0x427e <nrf24l01_power_down_param>
    4388:	08 95       	ret

0000438a <nrf24l01_set_as_rx_param>:
//if the argument rx_active_mode is false, the receiver will remain in standby mode
//  and not monitor for packets.  If the argument is true, the CE pin will be set 
//  and the 24L01 will monitor for packets.
void nrf24l01_set_as_rx_param(bool rx_active_mode, unsigned char config)
{
	config |= nrf24l01_CONFIG_PRIM_RX;
    438a:	61 60       	ori	r22, 0x01	; 1
	
	if((config & nrf24l01_CONFIG_PWR_UP) != 0)
    438c:	61 ff       	sbrs	r22, 1
    438e:	03 c0       	rjmp	.+6      	; 0x4396 <nrf24l01_set_as_rx_param+0xc>
		nrf24l01_power_up_param(rx_active_mode, config);
    4390:	0e 94 92 21 	call	0x4324	; 0x4324 <nrf24l01_power_up_param>
    4394:	08 95       	ret
	else
		nrf24l01_power_down_param(config);
    4396:	86 2f       	mov	r24, r22
    4398:	0e 94 3f 21 	call	0x427e	; 0x427e <nrf24l01_power_down_param>
    439c:	08 95       	ret

0000439e <nrf24l01_initialize_debug_lite>:
//  in all registers to work.  It is recommended that the device be reset or
//  have its power cycled immediately before this code is run.
//in normal circumstances, the user should use nrf24l01_initialize() rather than this
//  function, since this function does not set all of the register values.
void nrf24l01_initialize_debug_lite(bool rx, unsigned char p0_payload_width)
{
    439e:	1f 93       	push	r17
    43a0:	df 93       	push	r29
    43a2:	cf 93       	push	r28
    43a4:	0f 92       	push	r0
    43a6:	cd b7       	in	r28, 0x3d	; 61
    43a8:	de b7       	in	r29, 0x3e	; 62
    43aa:	69 83       	std	Y+1, r22	; 0x01
	unsigned char config;
	
	config = nrf24l01_CONFIG_DEFAULT_VAL;
	
	if(rx != false)
    43ac:	88 23       	and	r24, r24
    43ae:	11 f0       	breq	.+4      	; 0x43b4 <nrf24l01_initialize_debug_lite+0x16>
    43b0:	19 e0       	ldi	r17, 0x09	; 9
    43b2:	01 c0       	rjmp	.+2      	; 0x43b6 <nrf24l01_initialize_debug_lite+0x18>
    43b4:	18 e0       	ldi	r17, 0x08	; 8
		config |= nrf24l01_CONFIG_PRIM_RX;
		
	nrf24l01_write_register(nrf24l01_RX_PW_P0, &p0_payload_width, 1);
    43b6:	81 e1       	ldi	r24, 0x11	; 17
    43b8:	be 01       	movw	r22, r28
    43ba:	6f 5f       	subi	r22, 0xFF	; 255
    43bc:	7f 4f       	sbci	r23, 0xFF	; 255
    43be:	41 e0       	ldi	r20, 0x01	; 1
    43c0:	50 e0       	ldi	r21, 0x00	; 0
    43c2:	0e 94 45 1f 	call	0x3e8a	; 0x3e8a <nrf24l01_write_register>
	nrf24l01_power_up_param(true, config);
    43c6:	81 e0       	ldi	r24, 0x01	; 1
    43c8:	61 2f       	mov	r22, r17
    43ca:	0e 94 92 21 	call	0x4324	; 0x4324 <nrf24l01_power_up_param>
}
    43ce:	0f 90       	pop	r0
    43d0:	cf 91       	pop	r28
    43d2:	df 91       	pop	r29
    43d4:	1f 91       	pop	r17
    43d6:	08 95       	ret

000043d8 <nrf24l01_initialize>:
						 unsigned char rx_pw_p1, 
						 unsigned char rx_pw_p2, 
						 unsigned char rx_pw_p3, 
						 unsigned char rx_pw_p4, 
						 unsigned char rx_pw_p5)
{
    43d8:	2f 92       	push	r2
    43da:	3f 92       	push	r3
    43dc:	4f 92       	push	r4
    43de:	5f 92       	push	r5
    43e0:	6f 92       	push	r6
    43e2:	7f 92       	push	r7
    43e4:	8f 92       	push	r8
    43e6:	9f 92       	push	r9
    43e8:	af 92       	push	r10
    43ea:	cf 92       	push	r12
    43ec:	df 92       	push	r13
    43ee:	ef 92       	push	r14
    43f0:	ff 92       	push	r15
    43f2:	0f 93       	push	r16
    43f4:	1f 93       	push	r17
    43f6:	df 93       	push	r29
    43f8:	cf 93       	push	r28
    43fa:	00 d0       	rcall	.+0      	; 0x43fc <nrf24l01_initialize+0x24>
    43fc:	00 d0       	rcall	.+0      	; 0x43fe <nrf24l01_initialize+0x26>
    43fe:	0f 92       	push	r0
    4400:	cd b7       	in	r28, 0x3d	; 61
    4402:	de b7       	in	r29, 0x3e	; 62
    4404:	f8 2e       	mov	r15, r24
    4406:	d6 2e       	mov	r13, r22
    4408:	12 2f       	mov	r17, r18
    440a:	34 01       	movw	r6, r8
    440c:	49 8c       	ldd	r4, Y+25	; 0x19
    440e:	5a 8c       	ldd	r5, Y+26	; 0x1a
    4410:	2f 8c       	ldd	r2, Y+31	; 0x1f
    4412:	38 a0       	ldd	r3, Y+32	; 0x20
	unsigned char data[5];

	data[0] = en_aa;
    4414:	49 83       	std	Y+1, r20	; 0x01
	nrf24l01_write_register(nrf24l01_EN_AA, data, 1);
    4416:	81 e0       	ldi	r24, 0x01	; 1
    4418:	4e 01       	movw	r8, r28
    441a:	08 94       	sec
    441c:	81 1c       	adc	r8, r1
    441e:	91 1c       	adc	r9, r1
    4420:	b4 01       	movw	r22, r8
    4422:	41 e0       	ldi	r20, 0x01	; 1
    4424:	50 e0       	ldi	r21, 0x00	; 0
    4426:	0e 94 45 1f 	call	0x3e8a	; 0x3e8a <nrf24l01_write_register>

	data[0] = en_rxaddr;
    442a:	19 83       	std	Y+1, r17	; 0x01
	nrf24l01_write_register(nrf24l01_EN_RXADDR, data, 1);
    442c:	82 e0       	ldi	r24, 0x02	; 2
    442e:	b4 01       	movw	r22, r8
    4430:	41 e0       	ldi	r20, 0x01	; 1
    4432:	50 e0       	ldi	r21, 0x00	; 0
    4434:	0e 94 45 1f 	call	0x3e8a	; 0x3e8a <nrf24l01_write_register>

	data[0] = setup_aw;
    4438:	09 83       	std	Y+1, r16	; 0x01
	nrf24l01_write_register(nrf24l01_SETUP_AW, data, 1);
    443a:	83 e0       	ldi	r24, 0x03	; 3
    443c:	b4 01       	movw	r22, r8
    443e:	41 e0       	ldi	r20, 0x01	; 1
    4440:	50 e0       	ldi	r21, 0x00	; 0
    4442:	0e 94 45 1f 	call	0x3e8a	; 0x3e8a <nrf24l01_write_register>

	data[0] = setup_retr;
    4446:	e9 82       	std	Y+1, r14	; 0x01
	nrf24l01_write_register(nrf24l01_SETUP_RETR, data, 1);
    4448:	84 e0       	ldi	r24, 0x04	; 4
    444a:	b4 01       	movw	r22, r8
    444c:	41 e0       	ldi	r20, 0x01	; 1
    444e:	50 e0       	ldi	r21, 0x00	; 0
    4450:	0e 94 45 1f 	call	0x3e8a	; 0x3e8a <nrf24l01_write_register>

	data[0] = rf_ch;
    4454:	c9 82       	std	Y+1, r12	; 0x01
	nrf24l01_write_register(nrf24l01_RF_CH, data, 1);
    4456:	85 e0       	ldi	r24, 0x05	; 5
    4458:	b4 01       	movw	r22, r8
    445a:	41 e0       	ldi	r20, 0x01	; 1
    445c:	50 e0       	ldi	r21, 0x00	; 0
    445e:	0e 94 45 1f 	call	0x3e8a	; 0x3e8a <nrf24l01_write_register>

	data[0] = rf_setup;
    4462:	a9 82       	std	Y+1, r10	; 0x01
	nrf24l01_write_register(nrf24l01_RF_SETUP, data, 1);
    4464:	86 e0       	ldi	r24, 0x06	; 6
    4466:	b4 01       	movw	r22, r8
    4468:	41 e0       	ldi	r20, 0x01	; 1
    446a:	50 e0       	ldi	r21, 0x00	; 0
    446c:	0e 94 45 1f 	call	0x3e8a	; 0x3e8a <nrf24l01_write_register>

	if(rx_addr_p0 != NULL)
    4470:	61 14       	cp	r6, r1
    4472:	71 04       	cpc	r7, r1
    4474:	11 f0       	breq	.+4      	; 0x447a <nrf24l01_initialize+0xa2>
		nrf24l01_set_rx_addr(rx_addr_p0, 5, 0);
    4476:	c3 01       	movw	r24, r6
    4478:	07 c0       	rjmp	.+14     	; 0x4488 <nrf24l01_initialize+0xb0>
	else
	{
		data[0] = nrf24l01_RX_ADDR_P0_B0_DEFAULT_VAL;
    447a:	87 ee       	ldi	r24, 0xE7	; 231
    447c:	89 83       	std	Y+1, r24	; 0x01
		data[1] = nrf24l01_RX_ADDR_P0_B1_DEFAULT_VAL;
    447e:	8a 83       	std	Y+2, r24	; 0x02
		data[2] = nrf24l01_RX_ADDR_P0_B2_DEFAULT_VAL;
    4480:	8b 83       	std	Y+3, r24	; 0x03
		data[3] = nrf24l01_RX_ADDR_P0_B3_DEFAULT_VAL;
    4482:	8c 83       	std	Y+4, r24	; 0x04
		data[4] = nrf24l01_RX_ADDR_P0_B4_DEFAULT_VAL;
    4484:	8d 83       	std	Y+5, r24	; 0x05
		
		nrf24l01_set_rx_addr(data, 5, 0);
    4486:	c4 01       	movw	r24, r8
    4488:	65 e0       	ldi	r22, 0x05	; 5
    448a:	70 e0       	ldi	r23, 0x00	; 0
    448c:	40 e0       	ldi	r20, 0x00	; 0
    448e:	0e 94 e2 20 	call	0x41c4	; 0x41c4 <nrf24l01_set_rx_addr>
	}

	if(rx_addr_p1 != NULL)
    4492:	41 14       	cp	r4, r1
    4494:	51 04       	cpc	r5, r1
    4496:	11 f0       	breq	.+4      	; 0x449c <nrf24l01_initialize+0xc4>
		nrf24l01_set_rx_addr(rx_addr_p1, 5, 1);
    4498:	c2 01       	movw	r24, r4
    449a:	08 c0       	rjmp	.+16     	; 0x44ac <nrf24l01_initialize+0xd4>
	else
	{
		data[0] = nrf24l01_RX_ADDR_P1_B0_DEFAULT_VAL;
    449c:	82 ec       	ldi	r24, 0xC2	; 194
    449e:	89 83       	std	Y+1, r24	; 0x01
		data[1] = nrf24l01_RX_ADDR_P1_B1_DEFAULT_VAL;
    44a0:	8a 83       	std	Y+2, r24	; 0x02
		data[2] = nrf24l01_RX_ADDR_P1_B2_DEFAULT_VAL;
    44a2:	8b 83       	std	Y+3, r24	; 0x03
		data[3] = nrf24l01_RX_ADDR_P1_B3_DEFAULT_VAL;
    44a4:	8c 83       	std	Y+4, r24	; 0x04
		data[4] = nrf24l01_RX_ADDR_P1_B4_DEFAULT_VAL;
    44a6:	8d 83       	std	Y+5, r24	; 0x05
		
		nrf24l01_set_rx_addr(data, 5, 1);
    44a8:	ce 01       	movw	r24, r28
    44aa:	01 96       	adiw	r24, 0x01	; 1
    44ac:	65 e0       	ldi	r22, 0x05	; 5
    44ae:	70 e0       	ldi	r23, 0x00	; 0
    44b0:	41 e0       	ldi	r20, 0x01	; 1
    44b2:	0e 94 e2 20 	call	0x41c4	; 0x41c4 <nrf24l01_set_rx_addr>
	}

	data[0] = rx_addr_p2;
    44b6:	8b 8d       	ldd	r24, Y+27	; 0x1b
    44b8:	89 83       	std	Y+1, r24	; 0x01
	nrf24l01_set_rx_addr(data, 1, 2);
    44ba:	8e 01       	movw	r16, r28
    44bc:	0f 5f       	subi	r16, 0xFF	; 255
    44be:	1f 4f       	sbci	r17, 0xFF	; 255
    44c0:	c8 01       	movw	r24, r16
    44c2:	61 e0       	ldi	r22, 0x01	; 1
    44c4:	70 e0       	ldi	r23, 0x00	; 0
    44c6:	42 e0       	ldi	r20, 0x02	; 2
    44c8:	0e 94 e2 20 	call	0x41c4	; 0x41c4 <nrf24l01_set_rx_addr>

	data[0] = rx_addr_p3;
    44cc:	8c 8d       	ldd	r24, Y+28	; 0x1c
    44ce:	89 83       	std	Y+1, r24	; 0x01
	nrf24l01_set_rx_addr(data, 1, 3);
    44d0:	c8 01       	movw	r24, r16
    44d2:	61 e0       	ldi	r22, 0x01	; 1
    44d4:	70 e0       	ldi	r23, 0x00	; 0
    44d6:	43 e0       	ldi	r20, 0x03	; 3
    44d8:	0e 94 e2 20 	call	0x41c4	; 0x41c4 <nrf24l01_set_rx_addr>

	data[0] = rx_addr_p4;
    44dc:	8d 8d       	ldd	r24, Y+29	; 0x1d
    44de:	89 83       	std	Y+1, r24	; 0x01
	nrf24l01_set_rx_addr(data, 1, 4);
    44e0:	c8 01       	movw	r24, r16
    44e2:	61 e0       	ldi	r22, 0x01	; 1
    44e4:	70 e0       	ldi	r23, 0x00	; 0
    44e6:	44 e0       	ldi	r20, 0x04	; 4
    44e8:	0e 94 e2 20 	call	0x41c4	; 0x41c4 <nrf24l01_set_rx_addr>

	data[0] = rx_addr_p5;
    44ec:	8e 8d       	ldd	r24, Y+30	; 0x1e
    44ee:	89 83       	std	Y+1, r24	; 0x01
	nrf24l01_set_rx_addr(data, 1, 5);
    44f0:	c8 01       	movw	r24, r16
    44f2:	61 e0       	ldi	r22, 0x01	; 1
    44f4:	70 e0       	ldi	r23, 0x00	; 0
    44f6:	45 e0       	ldi	r20, 0x05	; 5
    44f8:	0e 94 e2 20 	call	0x41c4	; 0x41c4 <nrf24l01_set_rx_addr>

	if(tx_addr != NULL)
    44fc:	21 14       	cp	r2, r1
    44fe:	31 04       	cpc	r3, r1
    4500:	11 f0       	breq	.+4      	; 0x4506 <nrf24l01_initialize+0x12e>
		nrf24l01_set_tx_addr(tx_addr, 5);
    4502:	c1 01       	movw	r24, r2
    4504:	07 c0       	rjmp	.+14     	; 0x4514 <nrf24l01_initialize+0x13c>
	else
	{
		data[0] = nrf24l01_TX_ADDR_B0_DEFAULT_VAL;
    4506:	87 ee       	ldi	r24, 0xE7	; 231
    4508:	89 83       	std	Y+1, r24	; 0x01
		data[1] = nrf24l01_TX_ADDR_B1_DEFAULT_VAL;
    450a:	8a 83       	std	Y+2, r24	; 0x02
		data[2] = nrf24l01_TX_ADDR_B2_DEFAULT_VAL;
    450c:	8b 83       	std	Y+3, r24	; 0x03
		data[3] = nrf24l01_TX_ADDR_B3_DEFAULT_VAL;
    450e:	8c 83       	std	Y+4, r24	; 0x04
		data[4] = nrf24l01_TX_ADDR_B4_DEFAULT_VAL;
    4510:	8d 83       	std	Y+5, r24	; 0x05
		
		nrf24l01_set_tx_addr(data, 5);
    4512:	c8 01       	movw	r24, r16
    4514:	65 e0       	ldi	r22, 0x05	; 5
    4516:	70 e0       	ldi	r23, 0x00	; 0
    4518:	0e 94 ed 20 	call	0x41da	; 0x41da <nrf24l01_set_tx_addr>
	}

	data[0] = rx_pw_p0;
    451c:	89 a1       	ldd	r24, Y+33	; 0x21
    451e:	89 83       	std	Y+1, r24	; 0x01
	nrf24l01_write_register(nrf24l01_RX_PW_P0, data, 1);
    4520:	81 e1       	ldi	r24, 0x11	; 17
    4522:	8e 01       	movw	r16, r28
    4524:	0f 5f       	subi	r16, 0xFF	; 255
    4526:	1f 4f       	sbci	r17, 0xFF	; 255
    4528:	b8 01       	movw	r22, r16
    452a:	41 e0       	ldi	r20, 0x01	; 1
    452c:	50 e0       	ldi	r21, 0x00	; 0
    452e:	0e 94 45 1f 	call	0x3e8a	; 0x3e8a <nrf24l01_write_register>

	data[0] = rx_pw_p1;
    4532:	8a a1       	ldd	r24, Y+34	; 0x22
    4534:	89 83       	std	Y+1, r24	; 0x01
	nrf24l01_write_register(nrf24l01_RX_PW_P1, data, 1);
    4536:	82 e1       	ldi	r24, 0x12	; 18
    4538:	b8 01       	movw	r22, r16
    453a:	41 e0       	ldi	r20, 0x01	; 1
    453c:	50 e0       	ldi	r21, 0x00	; 0
    453e:	0e 94 45 1f 	call	0x3e8a	; 0x3e8a <nrf24l01_write_register>

	data[0] = rx_pw_p2;
    4542:	8b a1       	ldd	r24, Y+35	; 0x23
    4544:	89 83       	std	Y+1, r24	; 0x01
	nrf24l01_write_register(nrf24l01_RX_PW_P2, data, 1);
    4546:	83 e1       	ldi	r24, 0x13	; 19
    4548:	b8 01       	movw	r22, r16
    454a:	41 e0       	ldi	r20, 0x01	; 1
    454c:	50 e0       	ldi	r21, 0x00	; 0
    454e:	0e 94 45 1f 	call	0x3e8a	; 0x3e8a <nrf24l01_write_register>

	data[0] = rx_pw_p3;
    4552:	8c a1       	ldd	r24, Y+36	; 0x24
    4554:	89 83       	std	Y+1, r24	; 0x01
	nrf24l01_write_register(nrf24l01_RX_PW_P3, data, 1);
    4556:	84 e1       	ldi	r24, 0x14	; 20
    4558:	b8 01       	movw	r22, r16
    455a:	41 e0       	ldi	r20, 0x01	; 1
    455c:	50 e0       	ldi	r21, 0x00	; 0
    455e:	0e 94 45 1f 	call	0x3e8a	; 0x3e8a <nrf24l01_write_register>

	data[0] = rx_pw_p4;
    4562:	8d a1       	ldd	r24, Y+37	; 0x25
    4564:	89 83       	std	Y+1, r24	; 0x01
	nrf24l01_write_register(nrf24l01_RX_PW_P4, data, 1);
    4566:	85 e1       	ldi	r24, 0x15	; 21
    4568:	b8 01       	movw	r22, r16
    456a:	41 e0       	ldi	r20, 0x01	; 1
    456c:	50 e0       	ldi	r21, 0x00	; 0
    456e:	0e 94 45 1f 	call	0x3e8a	; 0x3e8a <nrf24l01_write_register>

	data[0] = rx_pw_p5;
    4572:	8e a1       	ldd	r24, Y+38	; 0x26
    4574:	89 83       	std	Y+1, r24	; 0x01
	nrf24l01_write_register(nrf24l01_RX_PW_P5, data, 1);
    4576:	86 e1       	ldi	r24, 0x16	; 22
    4578:	b8 01       	movw	r22, r16
    457a:	41 e0       	ldi	r20, 0x01	; 1
    457c:	50 e0       	ldi	r21, 0x00	; 0
    457e:	0e 94 45 1f 	call	0x3e8a	; 0x3e8a <nrf24l01_write_register>

	if((config & nrf24l01_CONFIG_PWR_UP) != 0)
    4582:	f1 fe       	sbrs	r15, 1
    4584:	07 c0       	rjmp	.+14     	; 0x4594 <nrf24l01_initialize+0x1bc>
		nrf24l01_power_up_param(opt_rx_active_mode, config);
    4586:	80 e0       	ldi	r24, 0x00	; 0
    4588:	d1 10       	cpse	r13, r1
    458a:	81 e0       	ldi	r24, 0x01	; 1
    458c:	6f 2d       	mov	r22, r15
    458e:	0e 94 92 21 	call	0x4324	; 0x4324 <nrf24l01_power_up_param>
    4592:	03 c0       	rjmp	.+6      	; 0x459a <nrf24l01_initialize+0x1c2>
	else
		nrf24l01_power_down_param(config);
    4594:	8f 2d       	mov	r24, r15
    4596:	0e 94 3f 21 	call	0x427e	; 0x427e <nrf24l01_power_down_param>
}
    459a:	0f 90       	pop	r0
    459c:	0f 90       	pop	r0
    459e:	0f 90       	pop	r0
    45a0:	0f 90       	pop	r0
    45a2:	0f 90       	pop	r0
    45a4:	cf 91       	pop	r28
    45a6:	df 91       	pop	r29
    45a8:	1f 91       	pop	r17
    45aa:	0f 91       	pop	r16
    45ac:	ff 90       	pop	r15
    45ae:	ef 90       	pop	r14
    45b0:	df 90       	pop	r13
    45b2:	cf 90       	pop	r12
    45b4:	af 90       	pop	r10
    45b6:	9f 90       	pop	r9
    45b8:	8f 90       	pop	r8
    45ba:	7f 90       	pop	r7
    45bc:	6f 90       	pop	r6
    45be:	5f 90       	pop	r5
    45c0:	4f 90       	pop	r4
    45c2:	3f 90       	pop	r3
    45c4:	2f 90       	pop	r2
    45c6:	08 95       	ret

000045c8 <nrf24l01_initialize_debug>:
//unsigned char payload_width is the payload width for pipe 0.  All other pipes
//  are left in their default (disabled) state.
//bool enable_auto_ack controls the auto ack feature on pipe 0.  If true, auto-ack will
//  be enabled.  If false, auto-ack is disabled.
void nrf24l01_initialize_debug(bool rx, unsigned char p0_payload_width, bool enable_auto_ack)
{
    45c8:	8f 92       	push	r8
    45ca:	9f 92       	push	r9
    45cc:	af 92       	push	r10
    45ce:	cf 92       	push	r12
    45d0:	ef 92       	push	r14
    45d2:	0f 93       	push	r16
	if(enable_auto_ack != false)
		en_aa = nrf24l01_EN_AA_ENAA_P0;
	else
		en_aa = nrf24l01_EN_AA_ENAA_NONE;
	
	if(rx == true)
    45d4:	88 23       	and	r24, r24
    45d6:	11 f0       	breq	.+4      	; 0x45dc <nrf24l01_initialize_debug+0x14>
    45d8:	9b e0       	ldi	r25, 0x0B	; 11
    45da:	01 c0       	rjmp	.+2      	; 0x45de <nrf24l01_initialize_debug+0x16>
    45dc:	9a e0       	ldi	r25, 0x0A	; 10
		config = config | nrf24l01_CONFIG_PRIM_RX;
		
	nrf24l01_initialize(config, 
    45de:	2d b7       	in	r18, 0x3d	; 61
    45e0:	3e b7       	in	r19, 0x3e	; 62
    45e2:	2e 50       	subi	r18, 0x0E	; 14
    45e4:	30 40       	sbci	r19, 0x00	; 0
    45e6:	0f b6       	in	r0, 0x3f	; 63
    45e8:	f8 94       	cli
    45ea:	3e bf       	out	0x3e, r19	; 62
    45ec:	0f be       	out	0x3f, r0	; 63
    45ee:	2d bf       	out	0x3d, r18	; 61
    45f0:	ed b7       	in	r30, 0x3d	; 61
    45f2:	fe b7       	in	r31, 0x3e	; 62
    45f4:	31 96       	adiw	r30, 0x01	; 1
    45f6:	ad b7       	in	r26, 0x3d	; 61
    45f8:	be b7       	in	r27, 0x3e	; 62
    45fa:	12 96       	adiw	r26, 0x02	; 2
    45fc:	1c 92       	st	X, r1
    45fe:	1e 92       	st	-X, r1
    4600:	11 97       	sbiw	r26, 0x01	; 1
    4602:	83 ec       	ldi	r24, 0xC3	; 195
    4604:	82 83       	std	Z+2, r24	; 0x02
    4606:	84 ec       	ldi	r24, 0xC4	; 196
    4608:	83 83       	std	Z+3, r24	; 0x03
    460a:	85 ec       	ldi	r24, 0xC5	; 197
    460c:	84 83       	std	Z+4, r24	; 0x04
    460e:	86 ec       	ldi	r24, 0xC6	; 198
    4610:	85 83       	std	Z+5, r24	; 0x05
    4612:	17 82       	std	Z+7, r1	; 0x07
    4614:	16 82       	std	Z+6, r1	; 0x06
    4616:	60 87       	std	Z+8, r22	; 0x08
    4618:	11 86       	std	Z+9, r1	; 0x09
    461a:	12 86       	std	Z+10, r1	; 0x0a
    461c:	13 86       	std	Z+11, r1	; 0x0b
    461e:	14 86       	std	Z+12, r1	; 0x0c
    4620:	15 86       	std	Z+13, r1	; 0x0d
    4622:	89 2f       	mov	r24, r25
    4624:	61 e0       	ldi	r22, 0x01	; 1
    4626:	23 e0       	ldi	r18, 0x03	; 3
    4628:	03 e0       	ldi	r16, 0x03	; 3
    462a:	5f e0       	ldi	r21, 0x0F	; 15
    462c:	e5 2e       	mov	r14, r21
    462e:	32 e2       	ldi	r19, 0x22	; 34
    4630:	c3 2e       	mov	r12, r19
    4632:	9f e0       	ldi	r25, 0x0F	; 15
    4634:	a9 2e       	mov	r10, r25
    4636:	88 24       	eor	r8, r8
    4638:	99 24       	eor	r9, r9
    463a:	0e 94 ec 21 	call	0x43d8	; 0x43d8 <nrf24l01_initialize>
    463e:	2d b7       	in	r18, 0x3d	; 61
    4640:	3e b7       	in	r19, 0x3e	; 62
    4642:	22 5f       	subi	r18, 0xF2	; 242
    4644:	3f 4f       	sbci	r19, 0xFF	; 255
    4646:	0f b6       	in	r0, 0x3f	; 63
    4648:	f8 94       	cli
    464a:	3e bf       	out	0x3e, r19	; 62
    464c:	0f be       	out	0x3f, r0	; 63
    464e:	2d bf       	out	0x3d, r18	; 61
						nrf24l01_RX_PW_P1_DEFAULT_VAL, 
						nrf24l01_RX_PW_P2_DEFAULT_VAL, 
						nrf24l01_RX_PW_P3_DEFAULT_VAL, 
						nrf24l01_RX_PW_P4_DEFAULT_VAL, 
						nrf24l01_RX_PW_P5_DEFAULT_VAL);
}
    4650:	0f 91       	pop	r16
    4652:	ef 90       	pop	r14
    4654:	cf 90       	pop	r12
    4656:	af 90       	pop	r10
    4658:	9f 90       	pop	r9
    465a:	8f 90       	pop	r8
    465c:	08 95       	ret

0000465e <nrf24l01_power_up>:
//  pin will be set and the 24L01 will monitor for packets.  In TX mode, the value
//  of this argument is insignificant.
//note: if the read value of the CONFIG register already has the PWR_UP bit set, this function
//  exits in order to not make an unecessary register write.
void nrf24l01_power_up(bool rx_active_mode)
{
    465e:	ff 92       	push	r15
    4660:	0f 93       	push	r16
    4662:	1f 93       	push	r17
    4664:	df 93       	push	r29
    4666:	cf 93       	push	r28
    4668:	0f 92       	push	r0
    466a:	cd b7       	in	r28, 0x3d	; 61
    466c:	de b7       	in	r29, 0x3e	; 62
    466e:	f8 2e       	mov	r15, r24
	unsigned char config;
	
	nrf24l01_read_register(nrf24l01_CONFIG, &config, 1);
    4670:	80 e0       	ldi	r24, 0x00	; 0
    4672:	8e 01       	movw	r16, r28
    4674:	0f 5f       	subi	r16, 0xFF	; 255
    4676:	1f 4f       	sbci	r17, 0xFF	; 255
    4678:	b8 01       	movw	r22, r16
    467a:	41 e0       	ldi	r20, 0x01	; 1
    467c:	50 e0       	ldi	r21, 0x00	; 0
    467e:	0e 94 a3 1d 	call	0x3b46	; 0x3b46 <nrf24l01_read_register>
	
	if((config & nrf24l01_CONFIG_PWR_UP) != 0)
    4682:	89 81       	ldd	r24, Y+1	; 0x01
    4684:	81 fd       	sbrc	r24, 1
    4686:	19 c0       	rjmp	.+50     	; 0x46ba <nrf24l01_power_up+0x5c>
		return;
		
	config |= nrf24l01_CONFIG_PWR_UP;
    4688:	82 60       	ori	r24, 0x02	; 2
    468a:	89 83       	std	Y+1, r24	; 0x01
	
	nrf24l01_write_register(nrf24l01_CONFIG, &config, 1);
    468c:	80 e0       	ldi	r24, 0x00	; 0
    468e:	b8 01       	movw	r22, r16
    4690:	41 e0       	ldi	r20, 0x01	; 1
    4692:	50 e0       	ldi	r21, 0x00	; 0
    4694:	0e 94 45 1f 	call	0x3e8a	; 0x3e8a <nrf24l01_write_register>
	
	delay_10us_multiple(150);
    4698:	86 e9       	ldi	r24, 0x96	; 150
    469a:	0e 94 b7 1c 	call	0x396e	; 0x396e <delay_10us_multiple>
	delay_10us_multiple(150);
    469e:	86 e9       	ldi	r24, 0x96	; 150
    46a0:	0e 94 b7 1c 	call	0x396e	; 0x396e <delay_10us_multiple>
	delay_10us_multiple(150);
    46a4:	86 e9       	ldi	r24, 0x96	; 150
    46a6:	0e 94 b7 1c 	call	0x396e	; 0x396e <delay_10us_multiple>
	
	if((config & nrf24l01_CONFIG_PRIM_RX) == 0)
    46aa:	89 81       	ldd	r24, Y+1	; 0x01
    46ac:	80 ff       	sbrs	r24, 0
    46ae:	04 c0       	rjmp	.+8      	; 0x46b8 <nrf24l01_power_up+0x5a>
		nrf24l01_clear_ce();
	else
	{
		if(rx_active_mode != false)
    46b0:	ff 20       	and	r15, r15
    46b2:	11 f0       	breq	.+4      	; 0x46b8 <nrf24l01_power_up+0x5a>
}

//sets the pin on the host microcontroller that is attached to the 24l01's CE pin
void nrf24l01_set_ce()
{
	nrf24l01_CE_IOREGISTER |= nrf24l01_CE_PINMASK;
    46b4:	c6 9a       	sbi	0x18, 6	; 24
    46b6:	01 c0       	rjmp	.+2      	; 0x46ba <nrf24l01_power_up+0x5c>
}

//clears the pin on the host microcontroller that is attached to the 24l01's CE pin
void nrf24l01_clear_ce()
{
	nrf24l01_CE_IOREGISTER &= ~nrf24l01_CE_PINMASK;
    46b8:	c6 98       	cbi	0x18, 6	; 24
		if(rx_active_mode != false)
			nrf24l01_set_ce();
		else
			nrf24l01_clear_ce();
	}
}
    46ba:	0f 90       	pop	r0
    46bc:	cf 91       	pop	r28
    46be:	df 91       	pop	r29
    46c0:	1f 91       	pop	r17
    46c2:	0f 91       	pop	r16
    46c4:	ff 90       	pop	r15
    46c6:	08 95       	ret

000046c8 <vfprintf>:
    46c8:	a1 e1       	ldi	r26, 0x11	; 17
    46ca:	b0 e0       	ldi	r27, 0x00	; 0
    46cc:	ea e6       	ldi	r30, 0x6A	; 106
    46ce:	f3 e2       	ldi	r31, 0x23	; 35
    46d0:	0c 94 ab 28 	jmp	0x5156	; 0x5156 <__prologue_saves__>
    46d4:	3c 01       	movw	r6, r24
    46d6:	7f 87       	std	Y+15, r23	; 0x0f
    46d8:	6e 87       	std	Y+14, r22	; 0x0e
    46da:	6a 01       	movw	r12, r20
    46dc:	fc 01       	movw	r30, r24
    46de:	17 82       	std	Z+7, r1	; 0x07
    46e0:	16 82       	std	Z+6, r1	; 0x06
    46e2:	83 81       	ldd	r24, Z+3	; 0x03
    46e4:	81 fd       	sbrc	r24, 1
    46e6:	03 c0       	rjmp	.+6      	; 0x46ee <vfprintf+0x26>
    46e8:	6f ef       	ldi	r22, 0xFF	; 255
    46ea:	7f ef       	ldi	r23, 0xFF	; 255
    46ec:	6f c3       	rjmp	.+1758   	; 0x4dcc <vfprintf+0x704>
    46ee:	9e 01       	movw	r18, r28
    46f0:	2f 5f       	subi	r18, 0xFF	; 255
    46f2:	3f 4f       	sbci	r19, 0xFF	; 255
    46f4:	39 8b       	std	Y+17, r19	; 0x11
    46f6:	28 8b       	std	Y+16, r18	; 0x10
    46f8:	f3 01       	movw	r30, r6
    46fa:	23 81       	ldd	r18, Z+3	; 0x03
    46fc:	ee 85       	ldd	r30, Y+14	; 0x0e
    46fe:	ff 85       	ldd	r31, Y+15	; 0x0f
    4700:	23 fd       	sbrc	r18, 3
    4702:	85 91       	lpm	r24, Z+
    4704:	23 ff       	sbrs	r18, 3
    4706:	81 91       	ld	r24, Z+
    4708:	ff 87       	std	Y+15, r31	; 0x0f
    470a:	ee 87       	std	Y+14, r30	; 0x0e
    470c:	88 23       	and	r24, r24
    470e:	09 f4       	brne	.+2      	; 0x4712 <vfprintf+0x4a>
    4710:	5a c3       	rjmp	.+1716   	; 0x4dc6 <vfprintf+0x6fe>
    4712:	85 32       	cpi	r24, 0x25	; 37
    4714:	51 f4       	brne	.+20     	; 0x472a <vfprintf+0x62>
    4716:	ee 85       	ldd	r30, Y+14	; 0x0e
    4718:	ff 85       	ldd	r31, Y+15	; 0x0f
    471a:	23 fd       	sbrc	r18, 3
    471c:	85 91       	lpm	r24, Z+
    471e:	23 ff       	sbrs	r18, 3
    4720:	81 91       	ld	r24, Z+
    4722:	ff 87       	std	Y+15, r31	; 0x0f
    4724:	ee 87       	std	Y+14, r30	; 0x0e
    4726:	85 32       	cpi	r24, 0x25	; 37
    4728:	29 f4       	brne	.+10     	; 0x4734 <vfprintf+0x6c>
    472a:	90 e0       	ldi	r25, 0x00	; 0
    472c:	b3 01       	movw	r22, r6
    472e:	0e 94 e4 29 	call	0x53c8	; 0x53c8 <fputc>
    4732:	e2 cf       	rjmp	.-60     	; 0x46f8 <vfprintf+0x30>
    4734:	98 2f       	mov	r25, r24
    4736:	10 e0       	ldi	r17, 0x00	; 0
    4738:	88 24       	eor	r8, r8
    473a:	99 24       	eor	r9, r9
    473c:	10 32       	cpi	r17, 0x20	; 32
    473e:	b0 f4       	brcc	.+44     	; 0x476c <vfprintf+0xa4>
    4740:	9b 32       	cpi	r25, 0x2B	; 43
    4742:	69 f0       	breq	.+26     	; 0x475e <vfprintf+0x96>
    4744:	9c 32       	cpi	r25, 0x2C	; 44
    4746:	28 f4       	brcc	.+10     	; 0x4752 <vfprintf+0x8a>
    4748:	90 32       	cpi	r25, 0x20	; 32
    474a:	51 f0       	breq	.+20     	; 0x4760 <vfprintf+0x98>
    474c:	93 32       	cpi	r25, 0x23	; 35
    474e:	71 f4       	brne	.+28     	; 0x476c <vfprintf+0xa4>
    4750:	0b c0       	rjmp	.+22     	; 0x4768 <vfprintf+0xa0>
    4752:	9d 32       	cpi	r25, 0x2D	; 45
    4754:	39 f0       	breq	.+14     	; 0x4764 <vfprintf+0x9c>
    4756:	90 33       	cpi	r25, 0x30	; 48
    4758:	49 f4       	brne	.+18     	; 0x476c <vfprintf+0xa4>
    475a:	11 60       	ori	r17, 0x01	; 1
    475c:	28 c0       	rjmp	.+80     	; 0x47ae <vfprintf+0xe6>
    475e:	12 60       	ori	r17, 0x02	; 2
    4760:	14 60       	ori	r17, 0x04	; 4
    4762:	25 c0       	rjmp	.+74     	; 0x47ae <vfprintf+0xe6>
    4764:	18 60       	ori	r17, 0x08	; 8
    4766:	23 c0       	rjmp	.+70     	; 0x47ae <vfprintf+0xe6>
    4768:	10 61       	ori	r17, 0x10	; 16
    476a:	21 c0       	rjmp	.+66     	; 0x47ae <vfprintf+0xe6>
    476c:	17 fd       	sbrc	r17, 7
    476e:	2a c0       	rjmp	.+84     	; 0x47c4 <vfprintf+0xfc>
    4770:	89 2f       	mov	r24, r25
    4772:	80 53       	subi	r24, 0x30	; 48
    4774:	8a 30       	cpi	r24, 0x0A	; 10
    4776:	78 f4       	brcc	.+30     	; 0x4796 <vfprintf+0xce>
    4778:	16 ff       	sbrs	r17, 6
    477a:	06 c0       	rjmp	.+12     	; 0x4788 <vfprintf+0xc0>
    477c:	fa e0       	ldi	r31, 0x0A	; 10
    477e:	9f 9e       	mul	r9, r31
    4780:	90 2c       	mov	r9, r0
    4782:	11 24       	eor	r1, r1
    4784:	98 0e       	add	r9, r24
    4786:	13 c0       	rjmp	.+38     	; 0x47ae <vfprintf+0xe6>
    4788:	3a e0       	ldi	r19, 0x0A	; 10
    478a:	83 9e       	mul	r8, r19
    478c:	80 2c       	mov	r8, r0
    478e:	11 24       	eor	r1, r1
    4790:	88 0e       	add	r8, r24
    4792:	10 62       	ori	r17, 0x20	; 32
    4794:	0c c0       	rjmp	.+24     	; 0x47ae <vfprintf+0xe6>
    4796:	9e 32       	cpi	r25, 0x2E	; 46
    4798:	21 f4       	brne	.+8      	; 0x47a2 <vfprintf+0xda>
    479a:	16 fd       	sbrc	r17, 6
    479c:	14 c3       	rjmp	.+1576   	; 0x4dc6 <vfprintf+0x6fe>
    479e:	10 64       	ori	r17, 0x40	; 64
    47a0:	06 c0       	rjmp	.+12     	; 0x47ae <vfprintf+0xe6>
    47a2:	9c 36       	cpi	r25, 0x6C	; 108
    47a4:	11 f4       	brne	.+4      	; 0x47aa <vfprintf+0xe2>
    47a6:	10 68       	ori	r17, 0x80	; 128
    47a8:	02 c0       	rjmp	.+4      	; 0x47ae <vfprintf+0xe6>
    47aa:	98 36       	cpi	r25, 0x68	; 104
    47ac:	59 f4       	brne	.+22     	; 0x47c4 <vfprintf+0xfc>
    47ae:	ee 85       	ldd	r30, Y+14	; 0x0e
    47b0:	ff 85       	ldd	r31, Y+15	; 0x0f
    47b2:	23 fd       	sbrc	r18, 3
    47b4:	95 91       	lpm	r25, Z+
    47b6:	23 ff       	sbrs	r18, 3
    47b8:	91 91       	ld	r25, Z+
    47ba:	ff 87       	std	Y+15, r31	; 0x0f
    47bc:	ee 87       	std	Y+14, r30	; 0x0e
    47be:	99 23       	and	r25, r25
    47c0:	09 f0       	breq	.+2      	; 0x47c4 <vfprintf+0xfc>
    47c2:	bc cf       	rjmp	.-136    	; 0x473c <vfprintf+0x74>
    47c4:	89 2f       	mov	r24, r25
    47c6:	85 54       	subi	r24, 0x45	; 69
    47c8:	83 30       	cpi	r24, 0x03	; 3
    47ca:	20 f4       	brcc	.+8      	; 0x47d4 <vfprintf+0x10c>
    47cc:	81 2f       	mov	r24, r17
    47ce:	80 61       	ori	r24, 0x10	; 16
    47d0:	90 5e       	subi	r25, 0xE0	; 224
    47d2:	07 c0       	rjmp	.+14     	; 0x47e2 <vfprintf+0x11a>
    47d4:	89 2f       	mov	r24, r25
    47d6:	85 56       	subi	r24, 0x65	; 101
    47d8:	83 30       	cpi	r24, 0x03	; 3
    47da:	08 f0       	brcs	.+2      	; 0x47de <vfprintf+0x116>
    47dc:	9f c1       	rjmp	.+830    	; 0x4b1c <vfprintf+0x454>
    47de:	81 2f       	mov	r24, r17
    47e0:	8f 7e       	andi	r24, 0xEF	; 239
    47e2:	86 fd       	sbrc	r24, 6
    47e4:	02 c0       	rjmp	.+4      	; 0x47ea <vfprintf+0x122>
    47e6:	76 e0       	ldi	r23, 0x06	; 6
    47e8:	97 2e       	mov	r9, r23
    47ea:	6f e3       	ldi	r22, 0x3F	; 63
    47ec:	f6 2e       	mov	r15, r22
    47ee:	f8 22       	and	r15, r24
    47f0:	95 36       	cpi	r25, 0x65	; 101
    47f2:	19 f4       	brne	.+6      	; 0x47fa <vfprintf+0x132>
    47f4:	f0 e4       	ldi	r31, 0x40	; 64
    47f6:	ff 2a       	or	r15, r31
    47f8:	07 c0       	rjmp	.+14     	; 0x4808 <vfprintf+0x140>
    47fa:	96 36       	cpi	r25, 0x66	; 102
    47fc:	19 f4       	brne	.+6      	; 0x4804 <vfprintf+0x13c>
    47fe:	20 e8       	ldi	r18, 0x80	; 128
    4800:	f2 2a       	or	r15, r18
    4802:	02 c0       	rjmp	.+4      	; 0x4808 <vfprintf+0x140>
    4804:	91 10       	cpse	r9, r1
    4806:	9a 94       	dec	r9
    4808:	f7 fe       	sbrs	r15, 7
    480a:	0a c0       	rjmp	.+20     	; 0x4820 <vfprintf+0x158>
    480c:	3b e3       	ldi	r19, 0x3B	; 59
    480e:	39 15       	cp	r19, r9
    4810:	18 f4       	brcc	.+6      	; 0x4818 <vfprintf+0x150>
    4812:	5c e3       	ldi	r21, 0x3C	; 60
    4814:	b5 2e       	mov	r11, r21
    4816:	02 c0       	rjmp	.+4      	; 0x481c <vfprintf+0x154>
    4818:	b9 2c       	mov	r11, r9
    481a:	b3 94       	inc	r11
    481c:	27 e0       	ldi	r18, 0x07	; 7
    481e:	09 c0       	rjmp	.+18     	; 0x4832 <vfprintf+0x16a>
    4820:	47 e0       	ldi	r20, 0x07	; 7
    4822:	49 15       	cp	r20, r9
    4824:	20 f4       	brcc	.+8      	; 0x482e <vfprintf+0x166>
    4826:	bb 24       	eor	r11, r11
    4828:	47 e0       	ldi	r20, 0x07	; 7
    482a:	94 2e       	mov	r9, r20
    482c:	f7 cf       	rjmp	.-18     	; 0x481c <vfprintf+0x154>
    482e:	29 2d       	mov	r18, r9
    4830:	bb 24       	eor	r11, r11
    4832:	c6 01       	movw	r24, r12
    4834:	04 96       	adiw	r24, 0x04	; 4
    4836:	9d 87       	std	Y+13, r25	; 0x0d
    4838:	8c 87       	std	Y+12, r24	; 0x0c
    483a:	f6 01       	movw	r30, r12
    483c:	60 81       	ld	r22, Z
    483e:	71 81       	ldd	r23, Z+1	; 0x01
    4840:	82 81       	ldd	r24, Z+2	; 0x02
    4842:	93 81       	ldd	r25, Z+3	; 0x03
    4844:	ae 01       	movw	r20, r28
    4846:	4f 5f       	subi	r20, 0xFF	; 255
    4848:	5f 4f       	sbci	r21, 0xFF	; 255
    484a:	0b 2d       	mov	r16, r11
    484c:	0e 94 f6 28 	call	0x51ec	; 0x51ec <__ftoa_engine>
    4850:	6c 01       	movw	r12, r24
    4852:	09 81       	ldd	r16, Y+1	; 0x01
    4854:	20 2e       	mov	r2, r16
    4856:	33 24       	eor	r3, r3
    4858:	00 ff       	sbrs	r16, 0
    485a:	04 c0       	rjmp	.+8      	; 0x4864 <vfprintf+0x19c>
    485c:	03 fd       	sbrc	r16, 3
    485e:	02 c0       	rjmp	.+4      	; 0x4864 <vfprintf+0x19c>
    4860:	1d e2       	ldi	r17, 0x2D	; 45
    4862:	09 c0       	rjmp	.+18     	; 0x4876 <vfprintf+0x1ae>
    4864:	f1 fe       	sbrs	r15, 1
    4866:	02 c0       	rjmp	.+4      	; 0x486c <vfprintf+0x1a4>
    4868:	1b e2       	ldi	r17, 0x2B	; 43
    486a:	05 c0       	rjmp	.+10     	; 0x4876 <vfprintf+0x1ae>
    486c:	f2 fc       	sbrc	r15, 2
    486e:	02 c0       	rjmp	.+4      	; 0x4874 <vfprintf+0x1ac>
    4870:	10 e0       	ldi	r17, 0x00	; 0
    4872:	01 c0       	rjmp	.+2      	; 0x4876 <vfprintf+0x1ae>
    4874:	10 e2       	ldi	r17, 0x20	; 32
    4876:	c1 01       	movw	r24, r2
    4878:	8c 70       	andi	r24, 0x0C	; 12
    487a:	90 70       	andi	r25, 0x00	; 0
    487c:	89 2b       	or	r24, r25
    487e:	b9 f1       	breq	.+110    	; 0x48ee <vfprintf+0x226>
    4880:	11 23       	and	r17, r17
    4882:	11 f4       	brne	.+4      	; 0x4888 <vfprintf+0x1c0>
    4884:	83 e0       	ldi	r24, 0x03	; 3
    4886:	01 c0       	rjmp	.+2      	; 0x488a <vfprintf+0x1c2>
    4888:	84 e0       	ldi	r24, 0x04	; 4
    488a:	88 15       	cp	r24, r8
    488c:	10 f0       	brcs	.+4      	; 0x4892 <vfprintf+0x1ca>
    488e:	88 24       	eor	r8, r8
    4890:	0a c0       	rjmp	.+20     	; 0x48a6 <vfprintf+0x1de>
    4892:	88 1a       	sub	r8, r24
    4894:	f3 fc       	sbrc	r15, 3
    4896:	07 c0       	rjmp	.+14     	; 0x48a6 <vfprintf+0x1de>
    4898:	80 e2       	ldi	r24, 0x20	; 32
    489a:	90 e0       	ldi	r25, 0x00	; 0
    489c:	b3 01       	movw	r22, r6
    489e:	0e 94 e4 29 	call	0x53c8	; 0x53c8 <fputc>
    48a2:	8a 94       	dec	r8
    48a4:	c9 f7       	brne	.-14     	; 0x4898 <vfprintf+0x1d0>
    48a6:	11 23       	and	r17, r17
    48a8:	29 f0       	breq	.+10     	; 0x48b4 <vfprintf+0x1ec>
    48aa:	81 2f       	mov	r24, r17
    48ac:	90 e0       	ldi	r25, 0x00	; 0
    48ae:	b3 01       	movw	r22, r6
    48b0:	0e 94 e4 29 	call	0x53c8	; 0x53c8 <fputc>
    48b4:	23 fe       	sbrs	r2, 3
    48b6:	03 c0       	rjmp	.+6      	; 0x48be <vfprintf+0x1f6>
    48b8:	0c e8       	ldi	r16, 0x8C	; 140
    48ba:	10 e0       	ldi	r17, 0x00	; 0
    48bc:	0e c0       	rjmp	.+28     	; 0x48da <vfprintf+0x212>
    48be:	00 e9       	ldi	r16, 0x90	; 144
    48c0:	10 e0       	ldi	r17, 0x00	; 0
    48c2:	0b c0       	rjmp	.+22     	; 0x48da <vfprintf+0x212>
    48c4:	e1 14       	cp	r14, r1
    48c6:	f1 04       	cpc	r15, r1
    48c8:	09 f0       	breq	.+2      	; 0x48cc <vfprintf+0x204>
    48ca:	80 52       	subi	r24, 0x20	; 32
    48cc:	90 e0       	ldi	r25, 0x00	; 0
    48ce:	b3 01       	movw	r22, r6
    48d0:	0e 94 e4 29 	call	0x53c8	; 0x53c8 <fputc>
    48d4:	0f 5f       	subi	r16, 0xFF	; 255
    48d6:	1f 4f       	sbci	r17, 0xFF	; 255
    48d8:	05 c0       	rjmp	.+10     	; 0x48e4 <vfprintf+0x21c>
    48da:	ef 2c       	mov	r14, r15
    48dc:	ff 24       	eor	r15, r15
    48de:	f0 e1       	ldi	r31, 0x10	; 16
    48e0:	ef 22       	and	r14, r31
    48e2:	ff 24       	eor	r15, r15
    48e4:	f8 01       	movw	r30, r16
    48e6:	84 91       	lpm	r24, Z+
    48e8:	88 23       	and	r24, r24
    48ea:	61 f7       	brne	.-40     	; 0x48c4 <vfprintf+0x1fc>
    48ec:	14 c1       	rjmp	.+552    	; 0x4b16 <vfprintf+0x44e>
    48ee:	f7 fe       	sbrs	r15, 7
    48f0:	12 c0       	rjmp	.+36     	; 0x4916 <vfprintf+0x24e>
    48f2:	bc 0c       	add	r11, r12
    48f4:	24 fe       	sbrs	r2, 4
    48f6:	04 c0       	rjmp	.+8      	; 0x4900 <vfprintf+0x238>
    48f8:	8a 81       	ldd	r24, Y+2	; 0x02
    48fa:	81 33       	cpi	r24, 0x31	; 49
    48fc:	09 f4       	brne	.+2      	; 0x4900 <vfprintf+0x238>
    48fe:	ba 94       	dec	r11
    4900:	1b 14       	cp	r1, r11
    4902:	1c f0       	brlt	.+6      	; 0x490a <vfprintf+0x242>
    4904:	bb 24       	eor	r11, r11
    4906:	b3 94       	inc	r11
    4908:	2d c0       	rjmp	.+90     	; 0x4964 <vfprintf+0x29c>
    490a:	f8 e0       	ldi	r31, 0x08	; 8
    490c:	fb 15       	cp	r31, r11
    490e:	50 f5       	brcc	.+84     	; 0x4964 <vfprintf+0x29c>
    4910:	38 e0       	ldi	r19, 0x08	; 8
    4912:	b3 2e       	mov	r11, r19
    4914:	27 c0       	rjmp	.+78     	; 0x4964 <vfprintf+0x29c>
    4916:	f6 fc       	sbrc	r15, 6
    4918:	25 c0       	rjmp	.+74     	; 0x4964 <vfprintf+0x29c>
    491a:	89 2d       	mov	r24, r9
    491c:	90 e0       	ldi	r25, 0x00	; 0
    491e:	8c 15       	cp	r24, r12
    4920:	9d 05       	cpc	r25, r13
    4922:	4c f0       	brlt	.+18     	; 0x4936 <vfprintf+0x26e>
    4924:	2c ef       	ldi	r18, 0xFC	; 252
    4926:	c2 16       	cp	r12, r18
    4928:	2f ef       	ldi	r18, 0xFF	; 255
    492a:	d2 06       	cpc	r13, r18
    492c:	24 f0       	brlt	.+8      	; 0x4936 <vfprintf+0x26e>
    492e:	30 e8       	ldi	r19, 0x80	; 128
    4930:	f3 2a       	or	r15, r19
    4932:	01 c0       	rjmp	.+2      	; 0x4936 <vfprintf+0x26e>
    4934:	9a 94       	dec	r9
    4936:	99 20       	and	r9, r9
    4938:	49 f0       	breq	.+18     	; 0x494c <vfprintf+0x284>
    493a:	e2 e0       	ldi	r30, 0x02	; 2
    493c:	f0 e0       	ldi	r31, 0x00	; 0
    493e:	ec 0f       	add	r30, r28
    4940:	fd 1f       	adc	r31, r29
    4942:	e9 0d       	add	r30, r9
    4944:	f1 1d       	adc	r31, r1
    4946:	80 81       	ld	r24, Z
    4948:	80 33       	cpi	r24, 0x30	; 48
    494a:	a1 f3       	breq	.-24     	; 0x4934 <vfprintf+0x26c>
    494c:	f7 fe       	sbrs	r15, 7
    494e:	0a c0       	rjmp	.+20     	; 0x4964 <vfprintf+0x29c>
    4950:	b9 2c       	mov	r11, r9
    4952:	b3 94       	inc	r11
    4954:	89 2d       	mov	r24, r9
    4956:	90 e0       	ldi	r25, 0x00	; 0
    4958:	c8 16       	cp	r12, r24
    495a:	d9 06       	cpc	r13, r25
    495c:	14 f0       	brlt	.+4      	; 0x4962 <vfprintf+0x29a>
    495e:	99 24       	eor	r9, r9
    4960:	01 c0       	rjmp	.+2      	; 0x4964 <vfprintf+0x29c>
    4962:	9c 18       	sub	r9, r12
    4964:	f7 fc       	sbrc	r15, 7
    4966:	03 c0       	rjmp	.+6      	; 0x496e <vfprintf+0x2a6>
    4968:	25 e0       	ldi	r18, 0x05	; 5
    496a:	30 e0       	ldi	r19, 0x00	; 0
    496c:	09 c0       	rjmp	.+18     	; 0x4980 <vfprintf+0x2b8>
    496e:	1c 14       	cp	r1, r12
    4970:	1d 04       	cpc	r1, r13
    4972:	1c f0       	brlt	.+6      	; 0x497a <vfprintf+0x2b2>
    4974:	21 e0       	ldi	r18, 0x01	; 1
    4976:	30 e0       	ldi	r19, 0x00	; 0
    4978:	03 c0       	rjmp	.+6      	; 0x4980 <vfprintf+0x2b8>
    497a:	96 01       	movw	r18, r12
    497c:	2f 5f       	subi	r18, 0xFF	; 255
    497e:	3f 4f       	sbci	r19, 0xFF	; 255
    4980:	11 23       	and	r17, r17
    4982:	11 f0       	breq	.+4      	; 0x4988 <vfprintf+0x2c0>
    4984:	2f 5f       	subi	r18, 0xFF	; 255
    4986:	3f 4f       	sbci	r19, 0xFF	; 255
    4988:	99 20       	and	r9, r9
    498a:	29 f0       	breq	.+10     	; 0x4996 <vfprintf+0x2ce>
    498c:	89 2d       	mov	r24, r9
    498e:	90 e0       	ldi	r25, 0x00	; 0
    4990:	01 96       	adiw	r24, 0x01	; 1
    4992:	28 0f       	add	r18, r24
    4994:	39 1f       	adc	r19, r25
    4996:	88 2d       	mov	r24, r8
    4998:	90 e0       	ldi	r25, 0x00	; 0
    499a:	28 17       	cp	r18, r24
    499c:	39 07       	cpc	r19, r25
    499e:	14 f0       	brlt	.+4      	; 0x49a4 <vfprintf+0x2dc>
    49a0:	88 24       	eor	r8, r8
    49a2:	01 c0       	rjmp	.+2      	; 0x49a6 <vfprintf+0x2de>
    49a4:	82 1a       	sub	r8, r18
    49a6:	4f 2c       	mov	r4, r15
    49a8:	55 24       	eor	r5, r5
    49aa:	c2 01       	movw	r24, r4
    49ac:	89 70       	andi	r24, 0x09	; 9
    49ae:	90 70       	andi	r25, 0x00	; 0
    49b0:	89 2b       	or	r24, r25
    49b2:	39 f0       	breq	.+14     	; 0x49c2 <vfprintf+0x2fa>
    49b4:	08 c0       	rjmp	.+16     	; 0x49c6 <vfprintf+0x2fe>
    49b6:	80 e2       	ldi	r24, 0x20	; 32
    49b8:	90 e0       	ldi	r25, 0x00	; 0
    49ba:	b3 01       	movw	r22, r6
    49bc:	0e 94 e4 29 	call	0x53c8	; 0x53c8 <fputc>
    49c0:	8a 94       	dec	r8
    49c2:	88 20       	and	r8, r8
    49c4:	c1 f7       	brne	.-16     	; 0x49b6 <vfprintf+0x2ee>
    49c6:	11 23       	and	r17, r17
    49c8:	29 f0       	breq	.+10     	; 0x49d4 <vfprintf+0x30c>
    49ca:	81 2f       	mov	r24, r17
    49cc:	90 e0       	ldi	r25, 0x00	; 0
    49ce:	b3 01       	movw	r22, r6
    49d0:	0e 94 e4 29 	call	0x53c8	; 0x53c8 <fputc>
    49d4:	43 fe       	sbrs	r4, 3
    49d6:	07 c0       	rjmp	.+14     	; 0x49e6 <vfprintf+0x31e>
    49d8:	08 c0       	rjmp	.+16     	; 0x49ea <vfprintf+0x322>
    49da:	80 e3       	ldi	r24, 0x30	; 48
    49dc:	90 e0       	ldi	r25, 0x00	; 0
    49de:	b3 01       	movw	r22, r6
    49e0:	0e 94 e4 29 	call	0x53c8	; 0x53c8 <fputc>
    49e4:	8a 94       	dec	r8
    49e6:	88 20       	and	r8, r8
    49e8:	c1 f7       	brne	.-16     	; 0x49da <vfprintf+0x312>
    49ea:	f7 fe       	sbrs	r15, 7
    49ec:	46 c0       	rjmp	.+140    	; 0x4a7a <vfprintf+0x3b2>
    49ee:	86 01       	movw	r16, r12
    49f0:	d7 fe       	sbrs	r13, 7
    49f2:	02 c0       	rjmp	.+4      	; 0x49f8 <vfprintf+0x330>
    49f4:	00 e0       	ldi	r16, 0x00	; 0
    49f6:	10 e0       	ldi	r17, 0x00	; 0
    49f8:	76 01       	movw	r14, r12
    49fa:	08 94       	sec
    49fc:	e1 1c       	adc	r14, r1
    49fe:	f1 1c       	adc	r15, r1
    4a00:	e0 1a       	sub	r14, r16
    4a02:	f1 0a       	sbc	r15, r17
    4a04:	41 e0       	ldi	r20, 0x01	; 1
    4a06:	50 e0       	ldi	r21, 0x00	; 0
    4a08:	4c 0f       	add	r20, r28
    4a0a:	5d 1f       	adc	r21, r29
    4a0c:	e4 0e       	add	r14, r20
    4a0e:	f5 1e       	adc	r15, r21
    4a10:	26 01       	movw	r4, r12
    4a12:	4b 18       	sub	r4, r11
    4a14:	51 08       	sbc	r5, r1
    4a16:	89 2d       	mov	r24, r9
    4a18:	90 e0       	ldi	r25, 0x00	; 0
    4a1a:	aa 24       	eor	r10, r10
    4a1c:	bb 24       	eor	r11, r11
    4a1e:	a8 1a       	sub	r10, r24
    4a20:	b9 0a       	sbc	r11, r25
    4a22:	5f ef       	ldi	r21, 0xFF	; 255
    4a24:	0f 3f       	cpi	r16, 0xFF	; 255
    4a26:	15 07       	cpc	r17, r21
    4a28:	29 f4       	brne	.+10     	; 0x4a34 <vfprintf+0x36c>
    4a2a:	8e e2       	ldi	r24, 0x2E	; 46
    4a2c:	90 e0       	ldi	r25, 0x00	; 0
    4a2e:	b3 01       	movw	r22, r6
    4a30:	0e 94 e4 29 	call	0x53c8	; 0x53c8 <fputc>
    4a34:	c0 16       	cp	r12, r16
    4a36:	d1 06       	cpc	r13, r17
    4a38:	34 f0       	brlt	.+12     	; 0x4a46 <vfprintf+0x37e>
    4a3a:	40 16       	cp	r4, r16
    4a3c:	51 06       	cpc	r5, r17
    4a3e:	1c f4       	brge	.+6      	; 0x4a46 <vfprintf+0x37e>
    4a40:	f7 01       	movw	r30, r14
    4a42:	80 81       	ld	r24, Z
    4a44:	01 c0       	rjmp	.+2      	; 0x4a48 <vfprintf+0x380>
    4a46:	80 e3       	ldi	r24, 0x30	; 48
    4a48:	01 50       	subi	r16, 0x01	; 1
    4a4a:	10 40       	sbci	r17, 0x00	; 0
    4a4c:	08 94       	sec
    4a4e:	e1 1c       	adc	r14, r1
    4a50:	f1 1c       	adc	r15, r1
    4a52:	0a 15       	cp	r16, r10
    4a54:	1b 05       	cpc	r17, r11
    4a56:	2c f0       	brlt	.+10     	; 0x4a62 <vfprintf+0x39a>
    4a58:	90 e0       	ldi	r25, 0x00	; 0
    4a5a:	b3 01       	movw	r22, r6
    4a5c:	0e 94 e4 29 	call	0x53c8	; 0x53c8 <fputc>
    4a60:	e0 cf       	rjmp	.-64     	; 0x4a22 <vfprintf+0x35a>
    4a62:	0c 15       	cp	r16, r12
    4a64:	1d 05       	cpc	r17, r13
    4a66:	39 f4       	brne	.+14     	; 0x4a76 <vfprintf+0x3ae>
    4a68:	9a 81       	ldd	r25, Y+2	; 0x02
    4a6a:	96 33       	cpi	r25, 0x36	; 54
    4a6c:	18 f4       	brcc	.+6      	; 0x4a74 <vfprintf+0x3ac>
    4a6e:	95 33       	cpi	r25, 0x35	; 53
    4a70:	11 f4       	brne	.+4      	; 0x4a76 <vfprintf+0x3ae>
    4a72:	24 fe       	sbrs	r2, 4
    4a74:	81 e3       	ldi	r24, 0x31	; 49
    4a76:	90 e0       	ldi	r25, 0x00	; 0
    4a78:	4b c0       	rjmp	.+150    	; 0x4b10 <vfprintf+0x448>
    4a7a:	8a 81       	ldd	r24, Y+2	; 0x02
    4a7c:	81 33       	cpi	r24, 0x31	; 49
    4a7e:	09 f0       	breq	.+2      	; 0x4a82 <vfprintf+0x3ba>
    4a80:	0f 7e       	andi	r16, 0xEF	; 239
    4a82:	90 e0       	ldi	r25, 0x00	; 0
    4a84:	b3 01       	movw	r22, r6
    4a86:	0e 94 e4 29 	call	0x53c8	; 0x53c8 <fputc>
    4a8a:	99 20       	and	r9, r9
    4a8c:	a1 f0       	breq	.+40     	; 0x4ab6 <vfprintf+0x3ee>
    4a8e:	8e e2       	ldi	r24, 0x2E	; 46
    4a90:	90 e0       	ldi	r25, 0x00	; 0
    4a92:	b3 01       	movw	r22, r6
    4a94:	0e 94 e4 29 	call	0x53c8	; 0x53c8 <fputc>
    4a98:	12 e0       	ldi	r17, 0x02	; 2
    4a9a:	e1 e0       	ldi	r30, 0x01	; 1
    4a9c:	f0 e0       	ldi	r31, 0x00	; 0
    4a9e:	ec 0f       	add	r30, r28
    4aa0:	fd 1f       	adc	r31, r29
    4aa2:	e1 0f       	add	r30, r17
    4aa4:	f1 1d       	adc	r31, r1
    4aa6:	1f 5f       	subi	r17, 0xFF	; 255
    4aa8:	80 81       	ld	r24, Z
    4aaa:	90 e0       	ldi	r25, 0x00	; 0
    4aac:	b3 01       	movw	r22, r6
    4aae:	0e 94 e4 29 	call	0x53c8	; 0x53c8 <fputc>
    4ab2:	9a 94       	dec	r9
    4ab4:	91 f7       	brne	.-28     	; 0x4a9a <vfprintf+0x3d2>
    4ab6:	44 fc       	sbrc	r4, 4
    4ab8:	03 c0       	rjmp	.+6      	; 0x4ac0 <vfprintf+0x3f8>
    4aba:	85 e6       	ldi	r24, 0x65	; 101
    4abc:	90 e0       	ldi	r25, 0x00	; 0
    4abe:	02 c0       	rjmp	.+4      	; 0x4ac4 <vfprintf+0x3fc>
    4ac0:	85 e4       	ldi	r24, 0x45	; 69
    4ac2:	90 e0       	ldi	r25, 0x00	; 0
    4ac4:	b3 01       	movw	r22, r6
    4ac6:	0e 94 e4 29 	call	0x53c8	; 0x53c8 <fputc>
    4aca:	d7 fc       	sbrc	r13, 7
    4acc:	05 c0       	rjmp	.+10     	; 0x4ad8 <vfprintf+0x410>
    4ace:	c1 14       	cp	r12, r1
    4ad0:	d1 04       	cpc	r13, r1
    4ad2:	41 f4       	brne	.+16     	; 0x4ae4 <vfprintf+0x41c>
    4ad4:	04 ff       	sbrs	r16, 4
    4ad6:	06 c0       	rjmp	.+12     	; 0x4ae4 <vfprintf+0x41c>
    4ad8:	d0 94       	com	r13
    4ada:	c1 94       	neg	r12
    4adc:	d1 08       	sbc	r13, r1
    4ade:	d3 94       	inc	r13
    4ae0:	8d e2       	ldi	r24, 0x2D	; 45
    4ae2:	01 c0       	rjmp	.+2      	; 0x4ae6 <vfprintf+0x41e>
    4ae4:	8b e2       	ldi	r24, 0x2B	; 43
    4ae6:	90 e0       	ldi	r25, 0x00	; 0
    4ae8:	b3 01       	movw	r22, r6
    4aea:	0e 94 e4 29 	call	0x53c8	; 0x53c8 <fputc>
    4aee:	80 e3       	ldi	r24, 0x30	; 48
    4af0:	05 c0       	rjmp	.+10     	; 0x4afc <vfprintf+0x434>
    4af2:	8f 5f       	subi	r24, 0xFF	; 255
    4af4:	26 ef       	ldi	r18, 0xF6	; 246
    4af6:	3f ef       	ldi	r19, 0xFF	; 255
    4af8:	c2 0e       	add	r12, r18
    4afa:	d3 1e       	adc	r13, r19
    4afc:	3a e0       	ldi	r19, 0x0A	; 10
    4afe:	c3 16       	cp	r12, r19
    4b00:	d1 04       	cpc	r13, r1
    4b02:	bc f7       	brge	.-18     	; 0x4af2 <vfprintf+0x42a>
    4b04:	90 e0       	ldi	r25, 0x00	; 0
    4b06:	b3 01       	movw	r22, r6
    4b08:	0e 94 e4 29 	call	0x53c8	; 0x53c8 <fputc>
    4b0c:	c6 01       	movw	r24, r12
    4b0e:	c0 96       	adiw	r24, 0x30	; 48
    4b10:	b3 01       	movw	r22, r6
    4b12:	0e 94 e4 29 	call	0x53c8	; 0x53c8 <fputc>
    4b16:	cc 84       	ldd	r12, Y+12	; 0x0c
    4b18:	dd 84       	ldd	r13, Y+13	; 0x0d
    4b1a:	52 c1       	rjmp	.+676    	; 0x4dc0 <vfprintf+0x6f8>
    4b1c:	93 36       	cpi	r25, 0x63	; 99
    4b1e:	31 f0       	breq	.+12     	; 0x4b2c <vfprintf+0x464>
    4b20:	93 37       	cpi	r25, 0x73	; 115
    4b22:	99 f0       	breq	.+38     	; 0x4b4a <vfprintf+0x482>
    4b24:	93 35       	cpi	r25, 0x53	; 83
    4b26:	09 f0       	breq	.+2      	; 0x4b2a <vfprintf+0x462>
    4b28:	59 c0       	rjmp	.+178    	; 0x4bdc <vfprintf+0x514>
    4b2a:	23 c0       	rjmp	.+70     	; 0x4b72 <vfprintf+0x4aa>
    4b2c:	f6 01       	movw	r30, r12
    4b2e:	80 81       	ld	r24, Z
    4b30:	89 83       	std	Y+1, r24	; 0x01
    4b32:	5e 01       	movw	r10, r28
    4b34:	08 94       	sec
    4b36:	a1 1c       	adc	r10, r1
    4b38:	b1 1c       	adc	r11, r1
    4b3a:	22 e0       	ldi	r18, 0x02	; 2
    4b3c:	30 e0       	ldi	r19, 0x00	; 0
    4b3e:	c2 0e       	add	r12, r18
    4b40:	d3 1e       	adc	r13, r19
    4b42:	21 e0       	ldi	r18, 0x01	; 1
    4b44:	e2 2e       	mov	r14, r18
    4b46:	f1 2c       	mov	r15, r1
    4b48:	12 c0       	rjmp	.+36     	; 0x4b6e <vfprintf+0x4a6>
    4b4a:	f6 01       	movw	r30, r12
    4b4c:	a0 80       	ld	r10, Z
    4b4e:	b1 80       	ldd	r11, Z+1	; 0x01
    4b50:	16 fd       	sbrc	r17, 6
    4b52:	03 c0       	rjmp	.+6      	; 0x4b5a <vfprintf+0x492>
    4b54:	6f ef       	ldi	r22, 0xFF	; 255
    4b56:	7f ef       	ldi	r23, 0xFF	; 255
    4b58:	02 c0       	rjmp	.+4      	; 0x4b5e <vfprintf+0x496>
    4b5a:	69 2d       	mov	r22, r9
    4b5c:	70 e0       	ldi	r23, 0x00	; 0
    4b5e:	22 e0       	ldi	r18, 0x02	; 2
    4b60:	30 e0       	ldi	r19, 0x00	; 0
    4b62:	c2 0e       	add	r12, r18
    4b64:	d3 1e       	adc	r13, r19
    4b66:	c5 01       	movw	r24, r10
    4b68:	0e 94 d9 29 	call	0x53b2	; 0x53b2 <strnlen>
    4b6c:	7c 01       	movw	r14, r24
    4b6e:	1f 77       	andi	r17, 0x7F	; 127
    4b70:	13 c0       	rjmp	.+38     	; 0x4b98 <vfprintf+0x4d0>
    4b72:	f6 01       	movw	r30, r12
    4b74:	a0 80       	ld	r10, Z
    4b76:	b1 80       	ldd	r11, Z+1	; 0x01
    4b78:	16 fd       	sbrc	r17, 6
    4b7a:	03 c0       	rjmp	.+6      	; 0x4b82 <vfprintf+0x4ba>
    4b7c:	6f ef       	ldi	r22, 0xFF	; 255
    4b7e:	7f ef       	ldi	r23, 0xFF	; 255
    4b80:	02 c0       	rjmp	.+4      	; 0x4b86 <vfprintf+0x4be>
    4b82:	69 2d       	mov	r22, r9
    4b84:	70 e0       	ldi	r23, 0x00	; 0
    4b86:	22 e0       	ldi	r18, 0x02	; 2
    4b88:	30 e0       	ldi	r19, 0x00	; 0
    4b8a:	c2 0e       	add	r12, r18
    4b8c:	d3 1e       	adc	r13, r19
    4b8e:	c5 01       	movw	r24, r10
    4b90:	0e 94 ce 29 	call	0x539c	; 0x539c <strnlen_P>
    4b94:	7c 01       	movw	r14, r24
    4b96:	10 68       	ori	r17, 0x80	; 128
    4b98:	13 ff       	sbrs	r17, 3
    4b9a:	07 c0       	rjmp	.+14     	; 0x4baa <vfprintf+0x4e2>
    4b9c:	1b c0       	rjmp	.+54     	; 0x4bd4 <vfprintf+0x50c>
    4b9e:	80 e2       	ldi	r24, 0x20	; 32
    4ba0:	90 e0       	ldi	r25, 0x00	; 0
    4ba2:	b3 01       	movw	r22, r6
    4ba4:	0e 94 e4 29 	call	0x53c8	; 0x53c8 <fputc>
    4ba8:	8a 94       	dec	r8
    4baa:	88 2d       	mov	r24, r8
    4bac:	90 e0       	ldi	r25, 0x00	; 0
    4bae:	e8 16       	cp	r14, r24
    4bb0:	f9 06       	cpc	r15, r25
    4bb2:	a8 f3       	brcs	.-22     	; 0x4b9e <vfprintf+0x4d6>
    4bb4:	0f c0       	rjmp	.+30     	; 0x4bd4 <vfprintf+0x50c>
    4bb6:	f5 01       	movw	r30, r10
    4bb8:	17 fd       	sbrc	r17, 7
    4bba:	85 91       	lpm	r24, Z+
    4bbc:	17 ff       	sbrs	r17, 7
    4bbe:	81 91       	ld	r24, Z+
    4bc0:	5f 01       	movw	r10, r30
    4bc2:	90 e0       	ldi	r25, 0x00	; 0
    4bc4:	b3 01       	movw	r22, r6
    4bc6:	0e 94 e4 29 	call	0x53c8	; 0x53c8 <fputc>
    4bca:	81 10       	cpse	r8, r1
    4bcc:	8a 94       	dec	r8
    4bce:	08 94       	sec
    4bd0:	e1 08       	sbc	r14, r1
    4bd2:	f1 08       	sbc	r15, r1
    4bd4:	e1 14       	cp	r14, r1
    4bd6:	f1 04       	cpc	r15, r1
    4bd8:	71 f7       	brne	.-36     	; 0x4bb6 <vfprintf+0x4ee>
    4bda:	f2 c0       	rjmp	.+484    	; 0x4dc0 <vfprintf+0x6f8>
    4bdc:	94 36       	cpi	r25, 0x64	; 100
    4bde:	11 f0       	breq	.+4      	; 0x4be4 <vfprintf+0x51c>
    4be0:	99 36       	cpi	r25, 0x69	; 105
    4be2:	89 f5       	brne	.+98     	; 0x4c46 <vfprintf+0x57e>
    4be4:	17 ff       	sbrs	r17, 7
    4be6:	08 c0       	rjmp	.+16     	; 0x4bf8 <vfprintf+0x530>
    4be8:	f6 01       	movw	r30, r12
    4bea:	20 81       	ld	r18, Z
    4bec:	31 81       	ldd	r19, Z+1	; 0x01
    4bee:	42 81       	ldd	r20, Z+2	; 0x02
    4bf0:	53 81       	ldd	r21, Z+3	; 0x03
    4bf2:	84 e0       	ldi	r24, 0x04	; 4
    4bf4:	90 e0       	ldi	r25, 0x00	; 0
    4bf6:	0a c0       	rjmp	.+20     	; 0x4c0c <vfprintf+0x544>
    4bf8:	f6 01       	movw	r30, r12
    4bfa:	80 81       	ld	r24, Z
    4bfc:	91 81       	ldd	r25, Z+1	; 0x01
    4bfe:	9c 01       	movw	r18, r24
    4c00:	44 27       	eor	r20, r20
    4c02:	37 fd       	sbrc	r19, 7
    4c04:	40 95       	com	r20
    4c06:	54 2f       	mov	r21, r20
    4c08:	82 e0       	ldi	r24, 0x02	; 2
    4c0a:	90 e0       	ldi	r25, 0x00	; 0
    4c0c:	c8 0e       	add	r12, r24
    4c0e:	d9 1e       	adc	r13, r25
    4c10:	9f e6       	ldi	r25, 0x6F	; 111
    4c12:	f9 2e       	mov	r15, r25
    4c14:	f1 22       	and	r15, r17
    4c16:	57 ff       	sbrs	r21, 7
    4c18:	09 c0       	rjmp	.+18     	; 0x4c2c <vfprintf+0x564>
    4c1a:	50 95       	com	r21
    4c1c:	40 95       	com	r20
    4c1e:	30 95       	com	r19
    4c20:	21 95       	neg	r18
    4c22:	3f 4f       	sbci	r19, 0xFF	; 255
    4c24:	4f 4f       	sbci	r20, 0xFF	; 255
    4c26:	5f 4f       	sbci	r21, 0xFF	; 255
    4c28:	90 e8       	ldi	r25, 0x80	; 128
    4c2a:	f9 2a       	or	r15, r25
    4c2c:	ca 01       	movw	r24, r20
    4c2e:	b9 01       	movw	r22, r18
    4c30:	ae 01       	movw	r20, r28
    4c32:	4f 5f       	subi	r20, 0xFF	; 255
    4c34:	5f 4f       	sbci	r21, 0xFF	; 255
    4c36:	2a e0       	ldi	r18, 0x0A	; 10
    4c38:	30 e0       	ldi	r19, 0x00	; 0
    4c3a:	0e 94 7e 2a 	call	0x54fc	; 0x54fc <__ultoa_invert>
    4c3e:	e8 2e       	mov	r14, r24
    4c40:	e8 89       	ldd	r30, Y+16	; 0x10
    4c42:	ee 1a       	sub	r14, r30
    4c44:	41 c0       	rjmp	.+130    	; 0x4cc8 <vfprintf+0x600>
    4c46:	95 37       	cpi	r25, 0x75	; 117
    4c48:	21 f4       	brne	.+8      	; 0x4c52 <vfprintf+0x58a>
    4c4a:	1f 7e       	andi	r17, 0xEF	; 239
    4c4c:	2a e0       	ldi	r18, 0x0A	; 10
    4c4e:	30 e0       	ldi	r19, 0x00	; 0
    4c50:	1c c0       	rjmp	.+56     	; 0x4c8a <vfprintf+0x5c2>
    4c52:	19 7f       	andi	r17, 0xF9	; 249
    4c54:	9f 36       	cpi	r25, 0x6F	; 111
    4c56:	61 f0       	breq	.+24     	; 0x4c70 <vfprintf+0x5a8>
    4c58:	90 37       	cpi	r25, 0x70	; 112
    4c5a:	20 f4       	brcc	.+8      	; 0x4c64 <vfprintf+0x59c>
    4c5c:	98 35       	cpi	r25, 0x58	; 88
    4c5e:	09 f0       	breq	.+2      	; 0x4c62 <vfprintf+0x59a>
    4c60:	b2 c0       	rjmp	.+356    	; 0x4dc6 <vfprintf+0x6fe>
    4c62:	0f c0       	rjmp	.+30     	; 0x4c82 <vfprintf+0x5ba>
    4c64:	90 37       	cpi	r25, 0x70	; 112
    4c66:	39 f0       	breq	.+14     	; 0x4c76 <vfprintf+0x5ae>
    4c68:	98 37       	cpi	r25, 0x78	; 120
    4c6a:	09 f0       	breq	.+2      	; 0x4c6e <vfprintf+0x5a6>
    4c6c:	ac c0       	rjmp	.+344    	; 0x4dc6 <vfprintf+0x6fe>
    4c6e:	04 c0       	rjmp	.+8      	; 0x4c78 <vfprintf+0x5b0>
    4c70:	28 e0       	ldi	r18, 0x08	; 8
    4c72:	30 e0       	ldi	r19, 0x00	; 0
    4c74:	0a c0       	rjmp	.+20     	; 0x4c8a <vfprintf+0x5c2>
    4c76:	10 61       	ori	r17, 0x10	; 16
    4c78:	14 fd       	sbrc	r17, 4
    4c7a:	14 60       	ori	r17, 0x04	; 4
    4c7c:	20 e1       	ldi	r18, 0x10	; 16
    4c7e:	30 e0       	ldi	r19, 0x00	; 0
    4c80:	04 c0       	rjmp	.+8      	; 0x4c8a <vfprintf+0x5c2>
    4c82:	14 fd       	sbrc	r17, 4
    4c84:	16 60       	ori	r17, 0x06	; 6
    4c86:	20 e1       	ldi	r18, 0x10	; 16
    4c88:	32 e0       	ldi	r19, 0x02	; 2
    4c8a:	17 ff       	sbrs	r17, 7
    4c8c:	08 c0       	rjmp	.+16     	; 0x4c9e <vfprintf+0x5d6>
    4c8e:	f6 01       	movw	r30, r12
    4c90:	60 81       	ld	r22, Z
    4c92:	71 81       	ldd	r23, Z+1	; 0x01
    4c94:	82 81       	ldd	r24, Z+2	; 0x02
    4c96:	93 81       	ldd	r25, Z+3	; 0x03
    4c98:	44 e0       	ldi	r20, 0x04	; 4
    4c9a:	50 e0       	ldi	r21, 0x00	; 0
    4c9c:	08 c0       	rjmp	.+16     	; 0x4cae <vfprintf+0x5e6>
    4c9e:	f6 01       	movw	r30, r12
    4ca0:	80 81       	ld	r24, Z
    4ca2:	91 81       	ldd	r25, Z+1	; 0x01
    4ca4:	bc 01       	movw	r22, r24
    4ca6:	80 e0       	ldi	r24, 0x00	; 0
    4ca8:	90 e0       	ldi	r25, 0x00	; 0
    4caa:	42 e0       	ldi	r20, 0x02	; 2
    4cac:	50 e0       	ldi	r21, 0x00	; 0
    4cae:	c4 0e       	add	r12, r20
    4cb0:	d5 1e       	adc	r13, r21
    4cb2:	ae 01       	movw	r20, r28
    4cb4:	4f 5f       	subi	r20, 0xFF	; 255
    4cb6:	5f 4f       	sbci	r21, 0xFF	; 255
    4cb8:	0e 94 7e 2a 	call	0x54fc	; 0x54fc <__ultoa_invert>
    4cbc:	e8 2e       	mov	r14, r24
    4cbe:	58 89       	ldd	r21, Y+16	; 0x10
    4cc0:	e5 1a       	sub	r14, r21
    4cc2:	8f e7       	ldi	r24, 0x7F	; 127
    4cc4:	f8 2e       	mov	r15, r24
    4cc6:	f1 22       	and	r15, r17
    4cc8:	f6 fe       	sbrs	r15, 6
    4cca:	0b c0       	rjmp	.+22     	; 0x4ce2 <vfprintf+0x61a>
    4ccc:	8e ef       	ldi	r24, 0xFE	; 254
    4cce:	f8 22       	and	r15, r24
    4cd0:	e9 14       	cp	r14, r9
    4cd2:	38 f4       	brcc	.+14     	; 0x4ce2 <vfprintf+0x61a>
    4cd4:	f4 fe       	sbrs	r15, 4
    4cd6:	07 c0       	rjmp	.+14     	; 0x4ce6 <vfprintf+0x61e>
    4cd8:	f2 fc       	sbrc	r15, 2
    4cda:	05 c0       	rjmp	.+10     	; 0x4ce6 <vfprintf+0x61e>
    4cdc:	9f ee       	ldi	r25, 0xEF	; 239
    4cde:	f9 22       	and	r15, r25
    4ce0:	02 c0       	rjmp	.+4      	; 0x4ce6 <vfprintf+0x61e>
    4ce2:	1e 2d       	mov	r17, r14
    4ce4:	01 c0       	rjmp	.+2      	; 0x4ce8 <vfprintf+0x620>
    4ce6:	19 2d       	mov	r17, r9
    4ce8:	f4 fe       	sbrs	r15, 4
    4cea:	0d c0       	rjmp	.+26     	; 0x4d06 <vfprintf+0x63e>
    4cec:	fe 01       	movw	r30, r28
    4cee:	ee 0d       	add	r30, r14
    4cf0:	f1 1d       	adc	r31, r1
    4cf2:	80 81       	ld	r24, Z
    4cf4:	80 33       	cpi	r24, 0x30	; 48
    4cf6:	19 f4       	brne	.+6      	; 0x4cfe <vfprintf+0x636>
    4cf8:	e9 ee       	ldi	r30, 0xE9	; 233
    4cfa:	fe 22       	and	r15, r30
    4cfc:	08 c0       	rjmp	.+16     	; 0x4d0e <vfprintf+0x646>
    4cfe:	1f 5f       	subi	r17, 0xFF	; 255
    4d00:	f2 fe       	sbrs	r15, 2
    4d02:	05 c0       	rjmp	.+10     	; 0x4d0e <vfprintf+0x646>
    4d04:	03 c0       	rjmp	.+6      	; 0x4d0c <vfprintf+0x644>
    4d06:	8f 2d       	mov	r24, r15
    4d08:	86 78       	andi	r24, 0x86	; 134
    4d0a:	09 f0       	breq	.+2      	; 0x4d0e <vfprintf+0x646>
    4d0c:	1f 5f       	subi	r17, 0xFF	; 255
    4d0e:	0f 2d       	mov	r16, r15
    4d10:	f3 fc       	sbrc	r15, 3
    4d12:	14 c0       	rjmp	.+40     	; 0x4d3c <vfprintf+0x674>
    4d14:	f0 fe       	sbrs	r15, 0
    4d16:	0f c0       	rjmp	.+30     	; 0x4d36 <vfprintf+0x66e>
    4d18:	18 15       	cp	r17, r8
    4d1a:	10 f0       	brcs	.+4      	; 0x4d20 <vfprintf+0x658>
    4d1c:	9e 2c       	mov	r9, r14
    4d1e:	0b c0       	rjmp	.+22     	; 0x4d36 <vfprintf+0x66e>
    4d20:	9e 2c       	mov	r9, r14
    4d22:	98 0c       	add	r9, r8
    4d24:	91 1a       	sub	r9, r17
    4d26:	18 2d       	mov	r17, r8
    4d28:	06 c0       	rjmp	.+12     	; 0x4d36 <vfprintf+0x66e>
    4d2a:	80 e2       	ldi	r24, 0x20	; 32
    4d2c:	90 e0       	ldi	r25, 0x00	; 0
    4d2e:	b3 01       	movw	r22, r6
    4d30:	0e 94 e4 29 	call	0x53c8	; 0x53c8 <fputc>
    4d34:	1f 5f       	subi	r17, 0xFF	; 255
    4d36:	18 15       	cp	r17, r8
    4d38:	c0 f3       	brcs	.-16     	; 0x4d2a <vfprintf+0x662>
    4d3a:	04 c0       	rjmp	.+8      	; 0x4d44 <vfprintf+0x67c>
    4d3c:	18 15       	cp	r17, r8
    4d3e:	10 f4       	brcc	.+4      	; 0x4d44 <vfprintf+0x67c>
    4d40:	81 1a       	sub	r8, r17
    4d42:	01 c0       	rjmp	.+2      	; 0x4d46 <vfprintf+0x67e>
    4d44:	88 24       	eor	r8, r8
    4d46:	04 ff       	sbrs	r16, 4
    4d48:	0f c0       	rjmp	.+30     	; 0x4d68 <vfprintf+0x6a0>
    4d4a:	80 e3       	ldi	r24, 0x30	; 48
    4d4c:	90 e0       	ldi	r25, 0x00	; 0
    4d4e:	b3 01       	movw	r22, r6
    4d50:	0e 94 e4 29 	call	0x53c8	; 0x53c8 <fputc>
    4d54:	02 ff       	sbrs	r16, 2
    4d56:	1d c0       	rjmp	.+58     	; 0x4d92 <vfprintf+0x6ca>
    4d58:	01 fd       	sbrc	r16, 1
    4d5a:	03 c0       	rjmp	.+6      	; 0x4d62 <vfprintf+0x69a>
    4d5c:	88 e7       	ldi	r24, 0x78	; 120
    4d5e:	90 e0       	ldi	r25, 0x00	; 0
    4d60:	0e c0       	rjmp	.+28     	; 0x4d7e <vfprintf+0x6b6>
    4d62:	88 e5       	ldi	r24, 0x58	; 88
    4d64:	90 e0       	ldi	r25, 0x00	; 0
    4d66:	0b c0       	rjmp	.+22     	; 0x4d7e <vfprintf+0x6b6>
    4d68:	80 2f       	mov	r24, r16
    4d6a:	86 78       	andi	r24, 0x86	; 134
    4d6c:	91 f0       	breq	.+36     	; 0x4d92 <vfprintf+0x6ca>
    4d6e:	01 ff       	sbrs	r16, 1
    4d70:	02 c0       	rjmp	.+4      	; 0x4d76 <vfprintf+0x6ae>
    4d72:	8b e2       	ldi	r24, 0x2B	; 43
    4d74:	01 c0       	rjmp	.+2      	; 0x4d78 <vfprintf+0x6b0>
    4d76:	80 e2       	ldi	r24, 0x20	; 32
    4d78:	f7 fc       	sbrc	r15, 7
    4d7a:	8d e2       	ldi	r24, 0x2D	; 45
    4d7c:	90 e0       	ldi	r25, 0x00	; 0
    4d7e:	b3 01       	movw	r22, r6
    4d80:	0e 94 e4 29 	call	0x53c8	; 0x53c8 <fputc>
    4d84:	06 c0       	rjmp	.+12     	; 0x4d92 <vfprintf+0x6ca>
    4d86:	80 e3       	ldi	r24, 0x30	; 48
    4d88:	90 e0       	ldi	r25, 0x00	; 0
    4d8a:	b3 01       	movw	r22, r6
    4d8c:	0e 94 e4 29 	call	0x53c8	; 0x53c8 <fputc>
    4d90:	9a 94       	dec	r9
    4d92:	e9 14       	cp	r14, r9
    4d94:	c0 f3       	brcs	.-16     	; 0x4d86 <vfprintf+0x6be>
    4d96:	ea 94       	dec	r14
    4d98:	e1 e0       	ldi	r30, 0x01	; 1
    4d9a:	f0 e0       	ldi	r31, 0x00	; 0
    4d9c:	ec 0f       	add	r30, r28
    4d9e:	fd 1f       	adc	r31, r29
    4da0:	ee 0d       	add	r30, r14
    4da2:	f1 1d       	adc	r31, r1
    4da4:	80 81       	ld	r24, Z
    4da6:	90 e0       	ldi	r25, 0x00	; 0
    4da8:	b3 01       	movw	r22, r6
    4daa:	0e 94 e4 29 	call	0x53c8	; 0x53c8 <fputc>
    4dae:	ee 20       	and	r14, r14
    4db0:	91 f7       	brne	.-28     	; 0x4d96 <vfprintf+0x6ce>
    4db2:	06 c0       	rjmp	.+12     	; 0x4dc0 <vfprintf+0x6f8>
    4db4:	80 e2       	ldi	r24, 0x20	; 32
    4db6:	90 e0       	ldi	r25, 0x00	; 0
    4db8:	b3 01       	movw	r22, r6
    4dba:	0e 94 e4 29 	call	0x53c8	; 0x53c8 <fputc>
    4dbe:	8a 94       	dec	r8
    4dc0:	88 20       	and	r8, r8
    4dc2:	c1 f7       	brne	.-16     	; 0x4db4 <vfprintf+0x6ec>
    4dc4:	99 cc       	rjmp	.-1742   	; 0x46f8 <vfprintf+0x30>
    4dc6:	f3 01       	movw	r30, r6
    4dc8:	66 81       	ldd	r22, Z+6	; 0x06
    4dca:	77 81       	ldd	r23, Z+7	; 0x07
    4dcc:	cb 01       	movw	r24, r22
    4dce:	61 96       	adiw	r28, 0x11	; 17
    4dd0:	e2 e1       	ldi	r30, 0x12	; 18
    4dd2:	0c 94 c7 28 	jmp	0x518e	; 0x518e <__epilogue_restores__>

00004dd6 <__subsf3>:
    4dd6:	50 58       	subi	r21, 0x80	; 128

00004dd8 <__addsf3>:
    4dd8:	bb 27       	eor	r27, r27
    4dda:	aa 27       	eor	r26, r26
    4ddc:	0e d0       	rcall	.+28     	; 0x4dfa <__addsf3x>
    4dde:	0b c1       	rjmp	.+534    	; 0x4ff6 <__fp_round>
    4de0:	fc d0       	rcall	.+504    	; 0x4fda <__fp_pscA>
    4de2:	30 f0       	brcs	.+12     	; 0x4df0 <__addsf3+0x18>
    4de4:	01 d1       	rcall	.+514    	; 0x4fe8 <__fp_pscB>
    4de6:	20 f0       	brcs	.+8      	; 0x4df0 <__addsf3+0x18>
    4de8:	31 f4       	brne	.+12     	; 0x4df6 <__addsf3+0x1e>
    4dea:	9f 3f       	cpi	r25, 0xFF	; 255
    4dec:	11 f4       	brne	.+4      	; 0x4df2 <__addsf3+0x1a>
    4dee:	1e f4       	brtc	.+6      	; 0x4df6 <__addsf3+0x1e>
    4df0:	f1 c0       	rjmp	.+482    	; 0x4fd4 <__fp_nan>
    4df2:	0e f4       	brtc	.+2      	; 0x4df6 <__addsf3+0x1e>
    4df4:	e0 95       	com	r30
    4df6:	e7 fb       	bst	r30, 7
    4df8:	e7 c0       	rjmp	.+462    	; 0x4fc8 <__fp_inf>

00004dfa <__addsf3x>:
    4dfa:	e9 2f       	mov	r30, r25
    4dfc:	0d d1       	rcall	.+538    	; 0x5018 <__fp_split3>
    4dfe:	80 f3       	brcs	.-32     	; 0x4de0 <__addsf3+0x8>
    4e00:	ba 17       	cp	r27, r26
    4e02:	62 07       	cpc	r22, r18
    4e04:	73 07       	cpc	r23, r19
    4e06:	84 07       	cpc	r24, r20
    4e08:	95 07       	cpc	r25, r21
    4e0a:	18 f0       	brcs	.+6      	; 0x4e12 <__addsf3x+0x18>
    4e0c:	71 f4       	brne	.+28     	; 0x4e2a <__addsf3x+0x30>
    4e0e:	9e f5       	brtc	.+102    	; 0x4e76 <__addsf3x+0x7c>
    4e10:	25 c1       	rjmp	.+586    	; 0x505c <__fp_zero>
    4e12:	0e f4       	brtc	.+2      	; 0x4e16 <__addsf3x+0x1c>
    4e14:	e0 95       	com	r30
    4e16:	0b 2e       	mov	r0, r27
    4e18:	ba 2f       	mov	r27, r26
    4e1a:	a0 2d       	mov	r26, r0
    4e1c:	0b 01       	movw	r0, r22
    4e1e:	b9 01       	movw	r22, r18
    4e20:	90 01       	movw	r18, r0
    4e22:	0c 01       	movw	r0, r24
    4e24:	ca 01       	movw	r24, r20
    4e26:	a0 01       	movw	r20, r0
    4e28:	11 24       	eor	r1, r1
    4e2a:	ff 27       	eor	r31, r31
    4e2c:	59 1b       	sub	r21, r25
    4e2e:	99 f0       	breq	.+38     	; 0x4e56 <__addsf3x+0x5c>
    4e30:	59 3f       	cpi	r21, 0xF9	; 249
    4e32:	50 f4       	brcc	.+20     	; 0x4e48 <__addsf3x+0x4e>
    4e34:	50 3e       	cpi	r21, 0xE0	; 224
    4e36:	68 f1       	brcs	.+90     	; 0x4e92 <__addsf3x+0x98>
    4e38:	1a 16       	cp	r1, r26
    4e3a:	f0 40       	sbci	r31, 0x00	; 0
    4e3c:	a2 2f       	mov	r26, r18
    4e3e:	23 2f       	mov	r18, r19
    4e40:	34 2f       	mov	r19, r20
    4e42:	44 27       	eor	r20, r20
    4e44:	58 5f       	subi	r21, 0xF8	; 248
    4e46:	f3 cf       	rjmp	.-26     	; 0x4e2e <__addsf3x+0x34>
    4e48:	46 95       	lsr	r20
    4e4a:	37 95       	ror	r19
    4e4c:	27 95       	ror	r18
    4e4e:	a7 95       	ror	r26
    4e50:	f0 40       	sbci	r31, 0x00	; 0
    4e52:	53 95       	inc	r21
    4e54:	c9 f7       	brne	.-14     	; 0x4e48 <__addsf3x+0x4e>
    4e56:	7e f4       	brtc	.+30     	; 0x4e76 <__addsf3x+0x7c>
    4e58:	1f 16       	cp	r1, r31
    4e5a:	ba 0b       	sbc	r27, r26
    4e5c:	62 0b       	sbc	r22, r18
    4e5e:	73 0b       	sbc	r23, r19
    4e60:	84 0b       	sbc	r24, r20
    4e62:	ba f0       	brmi	.+46     	; 0x4e92 <__addsf3x+0x98>
    4e64:	91 50       	subi	r25, 0x01	; 1
    4e66:	a1 f0       	breq	.+40     	; 0x4e90 <__addsf3x+0x96>
    4e68:	ff 0f       	add	r31, r31
    4e6a:	bb 1f       	adc	r27, r27
    4e6c:	66 1f       	adc	r22, r22
    4e6e:	77 1f       	adc	r23, r23
    4e70:	88 1f       	adc	r24, r24
    4e72:	c2 f7       	brpl	.-16     	; 0x4e64 <__addsf3x+0x6a>
    4e74:	0e c0       	rjmp	.+28     	; 0x4e92 <__addsf3x+0x98>
    4e76:	ba 0f       	add	r27, r26
    4e78:	62 1f       	adc	r22, r18
    4e7a:	73 1f       	adc	r23, r19
    4e7c:	84 1f       	adc	r24, r20
    4e7e:	48 f4       	brcc	.+18     	; 0x4e92 <__addsf3x+0x98>
    4e80:	87 95       	ror	r24
    4e82:	77 95       	ror	r23
    4e84:	67 95       	ror	r22
    4e86:	b7 95       	ror	r27
    4e88:	f7 95       	ror	r31
    4e8a:	9e 3f       	cpi	r25, 0xFE	; 254
    4e8c:	08 f0       	brcs	.+2      	; 0x4e90 <__addsf3x+0x96>
    4e8e:	b3 cf       	rjmp	.-154    	; 0x4df6 <__addsf3+0x1e>
    4e90:	93 95       	inc	r25
    4e92:	88 0f       	add	r24, r24
    4e94:	08 f0       	brcs	.+2      	; 0x4e98 <__addsf3x+0x9e>
    4e96:	99 27       	eor	r25, r25
    4e98:	ee 0f       	add	r30, r30
    4e9a:	97 95       	ror	r25
    4e9c:	87 95       	ror	r24
    4e9e:	08 95       	ret

00004ea0 <__divsf3>:
    4ea0:	0c d0       	rcall	.+24     	; 0x4eba <__divsf3x>
    4ea2:	a9 c0       	rjmp	.+338    	; 0x4ff6 <__fp_round>
    4ea4:	a1 d0       	rcall	.+322    	; 0x4fe8 <__fp_pscB>
    4ea6:	40 f0       	brcs	.+16     	; 0x4eb8 <__divsf3+0x18>
    4ea8:	98 d0       	rcall	.+304    	; 0x4fda <__fp_pscA>
    4eaa:	30 f0       	brcs	.+12     	; 0x4eb8 <__divsf3+0x18>
    4eac:	21 f4       	brne	.+8      	; 0x4eb6 <__divsf3+0x16>
    4eae:	5f 3f       	cpi	r21, 0xFF	; 255
    4eb0:	19 f0       	breq	.+6      	; 0x4eb8 <__divsf3+0x18>
    4eb2:	8a c0       	rjmp	.+276    	; 0x4fc8 <__fp_inf>
    4eb4:	51 11       	cpse	r21, r1
    4eb6:	d3 c0       	rjmp	.+422    	; 0x505e <__fp_szero>
    4eb8:	8d c0       	rjmp	.+282    	; 0x4fd4 <__fp_nan>

00004eba <__divsf3x>:
    4eba:	ae d0       	rcall	.+348    	; 0x5018 <__fp_split3>
    4ebc:	98 f3       	brcs	.-26     	; 0x4ea4 <__divsf3+0x4>

00004ebe <__divsf3_pse>:
    4ebe:	99 23       	and	r25, r25
    4ec0:	c9 f3       	breq	.-14     	; 0x4eb4 <__divsf3+0x14>
    4ec2:	55 23       	and	r21, r21
    4ec4:	b1 f3       	breq	.-20     	; 0x4eb2 <__divsf3+0x12>
    4ec6:	95 1b       	sub	r25, r21
    4ec8:	55 0b       	sbc	r21, r21
    4eca:	bb 27       	eor	r27, r27
    4ecc:	aa 27       	eor	r26, r26
    4ece:	62 17       	cp	r22, r18
    4ed0:	73 07       	cpc	r23, r19
    4ed2:	84 07       	cpc	r24, r20
    4ed4:	38 f0       	brcs	.+14     	; 0x4ee4 <__divsf3_pse+0x26>
    4ed6:	9f 5f       	subi	r25, 0xFF	; 255
    4ed8:	5f 4f       	sbci	r21, 0xFF	; 255
    4eda:	22 0f       	add	r18, r18
    4edc:	33 1f       	adc	r19, r19
    4ede:	44 1f       	adc	r20, r20
    4ee0:	aa 1f       	adc	r26, r26
    4ee2:	a9 f3       	breq	.-22     	; 0x4ece <__divsf3_pse+0x10>
    4ee4:	33 d0       	rcall	.+102    	; 0x4f4c <__divsf3_pse+0x8e>
    4ee6:	0e 2e       	mov	r0, r30
    4ee8:	3a f0       	brmi	.+14     	; 0x4ef8 <__divsf3_pse+0x3a>
    4eea:	e0 e8       	ldi	r30, 0x80	; 128
    4eec:	30 d0       	rcall	.+96     	; 0x4f4e <__divsf3_pse+0x90>
    4eee:	91 50       	subi	r25, 0x01	; 1
    4ef0:	50 40       	sbci	r21, 0x00	; 0
    4ef2:	e6 95       	lsr	r30
    4ef4:	00 1c       	adc	r0, r0
    4ef6:	ca f7       	brpl	.-14     	; 0x4eea <__divsf3_pse+0x2c>
    4ef8:	29 d0       	rcall	.+82     	; 0x4f4c <__divsf3_pse+0x8e>
    4efa:	fe 2f       	mov	r31, r30
    4efc:	27 d0       	rcall	.+78     	; 0x4f4c <__divsf3_pse+0x8e>
    4efe:	66 0f       	add	r22, r22
    4f00:	77 1f       	adc	r23, r23
    4f02:	88 1f       	adc	r24, r24
    4f04:	bb 1f       	adc	r27, r27
    4f06:	26 17       	cp	r18, r22
    4f08:	37 07       	cpc	r19, r23
    4f0a:	48 07       	cpc	r20, r24
    4f0c:	ab 07       	cpc	r26, r27
    4f0e:	b0 e8       	ldi	r27, 0x80	; 128
    4f10:	09 f0       	breq	.+2      	; 0x4f14 <__divsf3_pse+0x56>
    4f12:	bb 0b       	sbc	r27, r27
    4f14:	80 2d       	mov	r24, r0
    4f16:	bf 01       	movw	r22, r30
    4f18:	ff 27       	eor	r31, r31
    4f1a:	93 58       	subi	r25, 0x83	; 131
    4f1c:	5f 4f       	sbci	r21, 0xFF	; 255
    4f1e:	2a f0       	brmi	.+10     	; 0x4f2a <__divsf3_pse+0x6c>
    4f20:	9e 3f       	cpi	r25, 0xFE	; 254
    4f22:	51 05       	cpc	r21, r1
    4f24:	68 f0       	brcs	.+26     	; 0x4f40 <__divsf3_pse+0x82>
    4f26:	50 c0       	rjmp	.+160    	; 0x4fc8 <__fp_inf>
    4f28:	9a c0       	rjmp	.+308    	; 0x505e <__fp_szero>
    4f2a:	5f 3f       	cpi	r21, 0xFF	; 255
    4f2c:	ec f3       	brlt	.-6      	; 0x4f28 <__divsf3_pse+0x6a>
    4f2e:	98 3e       	cpi	r25, 0xE8	; 232
    4f30:	dc f3       	brlt	.-10     	; 0x4f28 <__divsf3_pse+0x6a>
    4f32:	86 95       	lsr	r24
    4f34:	77 95       	ror	r23
    4f36:	67 95       	ror	r22
    4f38:	b7 95       	ror	r27
    4f3a:	f7 95       	ror	r31
    4f3c:	9f 5f       	subi	r25, 0xFF	; 255
    4f3e:	c9 f7       	brne	.-14     	; 0x4f32 <__divsf3_pse+0x74>
    4f40:	88 0f       	add	r24, r24
    4f42:	91 1d       	adc	r25, r1
    4f44:	96 95       	lsr	r25
    4f46:	87 95       	ror	r24
    4f48:	97 f9       	bld	r25, 7
    4f4a:	08 95       	ret
    4f4c:	e1 e0       	ldi	r30, 0x01	; 1
    4f4e:	66 0f       	add	r22, r22
    4f50:	77 1f       	adc	r23, r23
    4f52:	88 1f       	adc	r24, r24
    4f54:	bb 1f       	adc	r27, r27
    4f56:	62 17       	cp	r22, r18
    4f58:	73 07       	cpc	r23, r19
    4f5a:	84 07       	cpc	r24, r20
    4f5c:	ba 07       	cpc	r27, r26
    4f5e:	20 f0       	brcs	.+8      	; 0x4f68 <__divsf3_pse+0xaa>
    4f60:	62 1b       	sub	r22, r18
    4f62:	73 0b       	sbc	r23, r19
    4f64:	84 0b       	sbc	r24, r20
    4f66:	ba 0b       	sbc	r27, r26
    4f68:	ee 1f       	adc	r30, r30
    4f6a:	88 f7       	brcc	.-30     	; 0x4f4e <__divsf3_pse+0x90>
    4f6c:	e0 95       	com	r30
    4f6e:	08 95       	ret

00004f70 <__fixunssfsi>:
    4f70:	5b d0       	rcall	.+182    	; 0x5028 <__fp_splitA>
    4f72:	88 f0       	brcs	.+34     	; 0x4f96 <__fixunssfsi+0x26>
    4f74:	9f 57       	subi	r25, 0x7F	; 127
    4f76:	90 f0       	brcs	.+36     	; 0x4f9c <__fixunssfsi+0x2c>
    4f78:	b9 2f       	mov	r27, r25
    4f7a:	99 27       	eor	r25, r25
    4f7c:	b7 51       	subi	r27, 0x17	; 23
    4f7e:	a0 f0       	brcs	.+40     	; 0x4fa8 <__fixunssfsi+0x38>
    4f80:	d1 f0       	breq	.+52     	; 0x4fb6 <__fixunssfsi+0x46>
    4f82:	66 0f       	add	r22, r22
    4f84:	77 1f       	adc	r23, r23
    4f86:	88 1f       	adc	r24, r24
    4f88:	99 1f       	adc	r25, r25
    4f8a:	1a f0       	brmi	.+6      	; 0x4f92 <__fixunssfsi+0x22>
    4f8c:	ba 95       	dec	r27
    4f8e:	c9 f7       	brne	.-14     	; 0x4f82 <__fixunssfsi+0x12>
    4f90:	12 c0       	rjmp	.+36     	; 0x4fb6 <__fixunssfsi+0x46>
    4f92:	b1 30       	cpi	r27, 0x01	; 1
    4f94:	81 f0       	breq	.+32     	; 0x4fb6 <__fixunssfsi+0x46>
    4f96:	62 d0       	rcall	.+196    	; 0x505c <__fp_zero>
    4f98:	b1 e0       	ldi	r27, 0x01	; 1
    4f9a:	08 95       	ret
    4f9c:	5f c0       	rjmp	.+190    	; 0x505c <__fp_zero>
    4f9e:	67 2f       	mov	r22, r23
    4fa0:	78 2f       	mov	r23, r24
    4fa2:	88 27       	eor	r24, r24
    4fa4:	b8 5f       	subi	r27, 0xF8	; 248
    4fa6:	39 f0       	breq	.+14     	; 0x4fb6 <__fixunssfsi+0x46>
    4fa8:	b9 3f       	cpi	r27, 0xF9	; 249
    4faa:	cc f3       	brlt	.-14     	; 0x4f9e <__fixunssfsi+0x2e>
    4fac:	86 95       	lsr	r24
    4fae:	77 95       	ror	r23
    4fb0:	67 95       	ror	r22
    4fb2:	b3 95       	inc	r27
    4fb4:	d9 f7       	brne	.-10     	; 0x4fac <__fixunssfsi+0x3c>
    4fb6:	3e f4       	brtc	.+14     	; 0x4fc6 <__fixunssfsi+0x56>
    4fb8:	90 95       	com	r25
    4fba:	80 95       	com	r24
    4fbc:	70 95       	com	r23
    4fbe:	61 95       	neg	r22
    4fc0:	7f 4f       	sbci	r23, 0xFF	; 255
    4fc2:	8f 4f       	sbci	r24, 0xFF	; 255
    4fc4:	9f 4f       	sbci	r25, 0xFF	; 255
    4fc6:	08 95       	ret

00004fc8 <__fp_inf>:
    4fc8:	97 f9       	bld	r25, 7
    4fca:	9f 67       	ori	r25, 0x7F	; 127
    4fcc:	80 e8       	ldi	r24, 0x80	; 128
    4fce:	70 e0       	ldi	r23, 0x00	; 0
    4fd0:	60 e0       	ldi	r22, 0x00	; 0
    4fd2:	08 95       	ret

00004fd4 <__fp_nan>:
    4fd4:	9f ef       	ldi	r25, 0xFF	; 255
    4fd6:	80 ec       	ldi	r24, 0xC0	; 192
    4fd8:	08 95       	ret

00004fda <__fp_pscA>:
    4fda:	00 24       	eor	r0, r0
    4fdc:	0a 94       	dec	r0
    4fde:	16 16       	cp	r1, r22
    4fe0:	17 06       	cpc	r1, r23
    4fe2:	18 06       	cpc	r1, r24
    4fe4:	09 06       	cpc	r0, r25
    4fe6:	08 95       	ret

00004fe8 <__fp_pscB>:
    4fe8:	00 24       	eor	r0, r0
    4fea:	0a 94       	dec	r0
    4fec:	12 16       	cp	r1, r18
    4fee:	13 06       	cpc	r1, r19
    4ff0:	14 06       	cpc	r1, r20
    4ff2:	05 06       	cpc	r0, r21
    4ff4:	08 95       	ret

00004ff6 <__fp_round>:
    4ff6:	09 2e       	mov	r0, r25
    4ff8:	03 94       	inc	r0
    4ffa:	00 0c       	add	r0, r0
    4ffc:	11 f4       	brne	.+4      	; 0x5002 <__fp_round+0xc>
    4ffe:	88 23       	and	r24, r24
    5000:	52 f0       	brmi	.+20     	; 0x5016 <__fp_round+0x20>
    5002:	bb 0f       	add	r27, r27
    5004:	40 f4       	brcc	.+16     	; 0x5016 <__fp_round+0x20>
    5006:	bf 2b       	or	r27, r31
    5008:	11 f4       	brne	.+4      	; 0x500e <__fp_round+0x18>
    500a:	60 ff       	sbrs	r22, 0
    500c:	04 c0       	rjmp	.+8      	; 0x5016 <__fp_round+0x20>
    500e:	6f 5f       	subi	r22, 0xFF	; 255
    5010:	7f 4f       	sbci	r23, 0xFF	; 255
    5012:	8f 4f       	sbci	r24, 0xFF	; 255
    5014:	9f 4f       	sbci	r25, 0xFF	; 255
    5016:	08 95       	ret

00005018 <__fp_split3>:
    5018:	57 fd       	sbrc	r21, 7
    501a:	90 58       	subi	r25, 0x80	; 128
    501c:	44 0f       	add	r20, r20
    501e:	55 1f       	adc	r21, r21
    5020:	59 f0       	breq	.+22     	; 0x5038 <__fp_splitA+0x10>
    5022:	5f 3f       	cpi	r21, 0xFF	; 255
    5024:	71 f0       	breq	.+28     	; 0x5042 <__fp_splitA+0x1a>
    5026:	47 95       	ror	r20

00005028 <__fp_splitA>:
    5028:	88 0f       	add	r24, r24
    502a:	97 fb       	bst	r25, 7
    502c:	99 1f       	adc	r25, r25
    502e:	61 f0       	breq	.+24     	; 0x5048 <__fp_splitA+0x20>
    5030:	9f 3f       	cpi	r25, 0xFF	; 255
    5032:	79 f0       	breq	.+30     	; 0x5052 <__fp_splitA+0x2a>
    5034:	87 95       	ror	r24
    5036:	08 95       	ret
    5038:	12 16       	cp	r1, r18
    503a:	13 06       	cpc	r1, r19
    503c:	14 06       	cpc	r1, r20
    503e:	55 1f       	adc	r21, r21
    5040:	f2 cf       	rjmp	.-28     	; 0x5026 <__fp_split3+0xe>
    5042:	46 95       	lsr	r20
    5044:	f1 df       	rcall	.-30     	; 0x5028 <__fp_splitA>
    5046:	08 c0       	rjmp	.+16     	; 0x5058 <__fp_splitA+0x30>
    5048:	16 16       	cp	r1, r22
    504a:	17 06       	cpc	r1, r23
    504c:	18 06       	cpc	r1, r24
    504e:	99 1f       	adc	r25, r25
    5050:	f1 cf       	rjmp	.-30     	; 0x5034 <__fp_splitA+0xc>
    5052:	86 95       	lsr	r24
    5054:	71 05       	cpc	r23, r1
    5056:	61 05       	cpc	r22, r1
    5058:	08 94       	sec
    505a:	08 95       	ret

0000505c <__fp_zero>:
    505c:	e8 94       	clt

0000505e <__fp_szero>:
    505e:	bb 27       	eor	r27, r27
    5060:	66 27       	eor	r22, r22
    5062:	77 27       	eor	r23, r23
    5064:	cb 01       	movw	r24, r22
    5066:	97 f9       	bld	r25, 7
    5068:	08 95       	ret

0000506a <__mulsf3>:
    506a:	0b d0       	rcall	.+22     	; 0x5082 <__mulsf3x>
    506c:	c4 cf       	rjmp	.-120    	; 0x4ff6 <__fp_round>
    506e:	b5 df       	rcall	.-150    	; 0x4fda <__fp_pscA>
    5070:	28 f0       	brcs	.+10     	; 0x507c <__mulsf3+0x12>
    5072:	ba df       	rcall	.-140    	; 0x4fe8 <__fp_pscB>
    5074:	18 f0       	brcs	.+6      	; 0x507c <__mulsf3+0x12>
    5076:	95 23       	and	r25, r21
    5078:	09 f0       	breq	.+2      	; 0x507c <__mulsf3+0x12>
    507a:	a6 cf       	rjmp	.-180    	; 0x4fc8 <__fp_inf>
    507c:	ab cf       	rjmp	.-170    	; 0x4fd4 <__fp_nan>
    507e:	11 24       	eor	r1, r1
    5080:	ee cf       	rjmp	.-36     	; 0x505e <__fp_szero>

00005082 <__mulsf3x>:
    5082:	ca df       	rcall	.-108    	; 0x5018 <__fp_split3>
    5084:	a0 f3       	brcs	.-24     	; 0x506e <__mulsf3+0x4>

00005086 <__mulsf3_pse>:
    5086:	95 9f       	mul	r25, r21
    5088:	d1 f3       	breq	.-12     	; 0x507e <__mulsf3+0x14>
    508a:	95 0f       	add	r25, r21
    508c:	50 e0       	ldi	r21, 0x00	; 0
    508e:	55 1f       	adc	r21, r21
    5090:	62 9f       	mul	r22, r18
    5092:	f0 01       	movw	r30, r0
    5094:	72 9f       	mul	r23, r18
    5096:	bb 27       	eor	r27, r27
    5098:	f0 0d       	add	r31, r0
    509a:	b1 1d       	adc	r27, r1
    509c:	63 9f       	mul	r22, r19
    509e:	aa 27       	eor	r26, r26
    50a0:	f0 0d       	add	r31, r0
    50a2:	b1 1d       	adc	r27, r1
    50a4:	aa 1f       	adc	r26, r26
    50a6:	64 9f       	mul	r22, r20
    50a8:	66 27       	eor	r22, r22
    50aa:	b0 0d       	add	r27, r0
    50ac:	a1 1d       	adc	r26, r1
    50ae:	66 1f       	adc	r22, r22
    50b0:	82 9f       	mul	r24, r18
    50b2:	22 27       	eor	r18, r18
    50b4:	b0 0d       	add	r27, r0
    50b6:	a1 1d       	adc	r26, r1
    50b8:	62 1f       	adc	r22, r18
    50ba:	73 9f       	mul	r23, r19
    50bc:	b0 0d       	add	r27, r0
    50be:	a1 1d       	adc	r26, r1
    50c0:	62 1f       	adc	r22, r18
    50c2:	83 9f       	mul	r24, r19
    50c4:	a0 0d       	add	r26, r0
    50c6:	61 1d       	adc	r22, r1
    50c8:	22 1f       	adc	r18, r18
    50ca:	74 9f       	mul	r23, r20
    50cc:	33 27       	eor	r19, r19
    50ce:	a0 0d       	add	r26, r0
    50d0:	61 1d       	adc	r22, r1
    50d2:	23 1f       	adc	r18, r19
    50d4:	84 9f       	mul	r24, r20
    50d6:	60 0d       	add	r22, r0
    50d8:	21 1d       	adc	r18, r1
    50da:	82 2f       	mov	r24, r18
    50dc:	76 2f       	mov	r23, r22
    50de:	6a 2f       	mov	r22, r26
    50e0:	11 24       	eor	r1, r1
    50e2:	9f 57       	subi	r25, 0x7F	; 127
    50e4:	50 40       	sbci	r21, 0x00	; 0
    50e6:	8a f0       	brmi	.+34     	; 0x510a <__mulsf3_pse+0x84>
    50e8:	e1 f0       	breq	.+56     	; 0x5122 <__mulsf3_pse+0x9c>
    50ea:	88 23       	and	r24, r24
    50ec:	4a f0       	brmi	.+18     	; 0x5100 <__mulsf3_pse+0x7a>
    50ee:	ee 0f       	add	r30, r30
    50f0:	ff 1f       	adc	r31, r31
    50f2:	bb 1f       	adc	r27, r27
    50f4:	66 1f       	adc	r22, r22
    50f6:	77 1f       	adc	r23, r23
    50f8:	88 1f       	adc	r24, r24
    50fa:	91 50       	subi	r25, 0x01	; 1
    50fc:	50 40       	sbci	r21, 0x00	; 0
    50fe:	a9 f7       	brne	.-22     	; 0x50ea <__mulsf3_pse+0x64>
    5100:	9e 3f       	cpi	r25, 0xFE	; 254
    5102:	51 05       	cpc	r21, r1
    5104:	70 f0       	brcs	.+28     	; 0x5122 <__mulsf3_pse+0x9c>
    5106:	60 cf       	rjmp	.-320    	; 0x4fc8 <__fp_inf>
    5108:	aa cf       	rjmp	.-172    	; 0x505e <__fp_szero>
    510a:	5f 3f       	cpi	r21, 0xFF	; 255
    510c:	ec f3       	brlt	.-6      	; 0x5108 <__mulsf3_pse+0x82>
    510e:	98 3e       	cpi	r25, 0xE8	; 232
    5110:	dc f3       	brlt	.-10     	; 0x5108 <__mulsf3_pse+0x82>
    5112:	86 95       	lsr	r24
    5114:	77 95       	ror	r23
    5116:	67 95       	ror	r22
    5118:	b7 95       	ror	r27
    511a:	f7 95       	ror	r31
    511c:	e7 95       	ror	r30
    511e:	9f 5f       	subi	r25, 0xFF	; 255
    5120:	c1 f7       	brne	.-16     	; 0x5112 <__mulsf3_pse+0x8c>
    5122:	fe 2b       	or	r31, r30
    5124:	88 0f       	add	r24, r24
    5126:	91 1d       	adc	r25, r1
    5128:	96 95       	lsr	r25
    512a:	87 95       	ror	r24
    512c:	97 f9       	bld	r25, 7
    512e:	08 95       	ret

00005130 <__divmodhi4>:
    5130:	97 fb       	bst	r25, 7
    5132:	09 2e       	mov	r0, r25
    5134:	07 26       	eor	r0, r23
    5136:	0a d0       	rcall	.+20     	; 0x514c <__divmodhi4_neg1>
    5138:	77 fd       	sbrc	r23, 7
    513a:	04 d0       	rcall	.+8      	; 0x5144 <__divmodhi4_neg2>
    513c:	43 d0       	rcall	.+134    	; 0x51c4 <__udivmodhi4>
    513e:	06 d0       	rcall	.+12     	; 0x514c <__divmodhi4_neg1>
    5140:	00 20       	and	r0, r0
    5142:	1a f4       	brpl	.+6      	; 0x514a <__divmodhi4_exit>

00005144 <__divmodhi4_neg2>:
    5144:	70 95       	com	r23
    5146:	61 95       	neg	r22
    5148:	7f 4f       	sbci	r23, 0xFF	; 255

0000514a <__divmodhi4_exit>:
    514a:	08 95       	ret

0000514c <__divmodhi4_neg1>:
    514c:	f6 f7       	brtc	.-4      	; 0x514a <__divmodhi4_exit>
    514e:	90 95       	com	r25
    5150:	81 95       	neg	r24
    5152:	9f 4f       	sbci	r25, 0xFF	; 255
    5154:	08 95       	ret

00005156 <__prologue_saves__>:
    5156:	2f 92       	push	r2
    5158:	3f 92       	push	r3
    515a:	4f 92       	push	r4
    515c:	5f 92       	push	r5
    515e:	6f 92       	push	r6
    5160:	7f 92       	push	r7
    5162:	8f 92       	push	r8
    5164:	9f 92       	push	r9
    5166:	af 92       	push	r10
    5168:	bf 92       	push	r11
    516a:	cf 92       	push	r12
    516c:	df 92       	push	r13
    516e:	ef 92       	push	r14
    5170:	ff 92       	push	r15
    5172:	0f 93       	push	r16
    5174:	1f 93       	push	r17
    5176:	cf 93       	push	r28
    5178:	df 93       	push	r29
    517a:	cd b7       	in	r28, 0x3d	; 61
    517c:	de b7       	in	r29, 0x3e	; 62
    517e:	ca 1b       	sub	r28, r26
    5180:	db 0b       	sbc	r29, r27
    5182:	0f b6       	in	r0, 0x3f	; 63
    5184:	f8 94       	cli
    5186:	de bf       	out	0x3e, r29	; 62
    5188:	0f be       	out	0x3f, r0	; 63
    518a:	cd bf       	out	0x3d, r28	; 61
    518c:	09 94       	ijmp

0000518e <__epilogue_restores__>:
    518e:	2a 88       	ldd	r2, Y+18	; 0x12
    5190:	39 88       	ldd	r3, Y+17	; 0x11
    5192:	48 88       	ldd	r4, Y+16	; 0x10
    5194:	5f 84       	ldd	r5, Y+15	; 0x0f
    5196:	6e 84       	ldd	r6, Y+14	; 0x0e
    5198:	7d 84       	ldd	r7, Y+13	; 0x0d
    519a:	8c 84       	ldd	r8, Y+12	; 0x0c
    519c:	9b 84       	ldd	r9, Y+11	; 0x0b
    519e:	aa 84       	ldd	r10, Y+10	; 0x0a
    51a0:	b9 84       	ldd	r11, Y+9	; 0x09
    51a2:	c8 84       	ldd	r12, Y+8	; 0x08
    51a4:	df 80       	ldd	r13, Y+7	; 0x07
    51a6:	ee 80       	ldd	r14, Y+6	; 0x06
    51a8:	fd 80       	ldd	r15, Y+5	; 0x05
    51aa:	0c 81       	ldd	r16, Y+4	; 0x04
    51ac:	1b 81       	ldd	r17, Y+3	; 0x03
    51ae:	aa 81       	ldd	r26, Y+2	; 0x02
    51b0:	b9 81       	ldd	r27, Y+1	; 0x01
    51b2:	ce 0f       	add	r28, r30
    51b4:	d1 1d       	adc	r29, r1
    51b6:	0f b6       	in	r0, 0x3f	; 63
    51b8:	f8 94       	cli
    51ba:	de bf       	out	0x3e, r29	; 62
    51bc:	0f be       	out	0x3f, r0	; 63
    51be:	cd bf       	out	0x3d, r28	; 61
    51c0:	ed 01       	movw	r28, r26
    51c2:	08 95       	ret

000051c4 <__udivmodhi4>:
    51c4:	aa 1b       	sub	r26, r26
    51c6:	bb 1b       	sub	r27, r27
    51c8:	51 e1       	ldi	r21, 0x11	; 17
    51ca:	07 c0       	rjmp	.+14     	; 0x51da <__udivmodhi4_ep>

000051cc <__udivmodhi4_loop>:
    51cc:	aa 1f       	adc	r26, r26
    51ce:	bb 1f       	adc	r27, r27
    51d0:	a6 17       	cp	r26, r22
    51d2:	b7 07       	cpc	r27, r23
    51d4:	10 f0       	brcs	.+4      	; 0x51da <__udivmodhi4_ep>
    51d6:	a6 1b       	sub	r26, r22
    51d8:	b7 0b       	sbc	r27, r23

000051da <__udivmodhi4_ep>:
    51da:	88 1f       	adc	r24, r24
    51dc:	99 1f       	adc	r25, r25
    51de:	5a 95       	dec	r21
    51e0:	a9 f7       	brne	.-22     	; 0x51cc <__udivmodhi4_loop>
    51e2:	80 95       	com	r24
    51e4:	90 95       	com	r25
    51e6:	bc 01       	movw	r22, r24
    51e8:	cd 01       	movw	r24, r26
    51ea:	08 95       	ret

000051ec <__ftoa_engine>:
    51ec:	28 30       	cpi	r18, 0x08	; 8
    51ee:	08 f0       	brcs	.+2      	; 0x51f2 <__ftoa_engine+0x6>
    51f0:	27 e0       	ldi	r18, 0x07	; 7
    51f2:	33 27       	eor	r19, r19
    51f4:	da 01       	movw	r26, r20
    51f6:	99 0f       	add	r25, r25
    51f8:	31 1d       	adc	r19, r1
    51fa:	87 fd       	sbrc	r24, 7
    51fc:	91 60       	ori	r25, 0x01	; 1
    51fe:	00 96       	adiw	r24, 0x00	; 0
    5200:	61 05       	cpc	r22, r1
    5202:	71 05       	cpc	r23, r1
    5204:	39 f4       	brne	.+14     	; 0x5214 <__ftoa_engine+0x28>
    5206:	32 60       	ori	r19, 0x02	; 2
    5208:	2e 5f       	subi	r18, 0xFE	; 254
    520a:	3d 93       	st	X+, r19
    520c:	30 e3       	ldi	r19, 0x30	; 48
    520e:	2a 95       	dec	r18
    5210:	e1 f7       	brne	.-8      	; 0x520a <__ftoa_engine+0x1e>
    5212:	08 95       	ret
    5214:	9f 3f       	cpi	r25, 0xFF	; 255
    5216:	30 f0       	brcs	.+12     	; 0x5224 <__ftoa_engine+0x38>
    5218:	80 38       	cpi	r24, 0x80	; 128
    521a:	71 05       	cpc	r23, r1
    521c:	61 05       	cpc	r22, r1
    521e:	09 f0       	breq	.+2      	; 0x5222 <__ftoa_engine+0x36>
    5220:	3c 5f       	subi	r19, 0xFC	; 252
    5222:	3c 5f       	subi	r19, 0xFC	; 252
    5224:	3d 93       	st	X+, r19
    5226:	91 30       	cpi	r25, 0x01	; 1
    5228:	08 f0       	brcs	.+2      	; 0x522c <__ftoa_engine+0x40>
    522a:	80 68       	ori	r24, 0x80	; 128
    522c:	91 1d       	adc	r25, r1
    522e:	df 93       	push	r29
    5230:	cf 93       	push	r28
    5232:	1f 93       	push	r17
    5234:	0f 93       	push	r16
    5236:	ff 92       	push	r15
    5238:	ef 92       	push	r14
    523a:	19 2f       	mov	r17, r25
    523c:	98 7f       	andi	r25, 0xF8	; 248
    523e:	96 95       	lsr	r25
    5240:	e9 2f       	mov	r30, r25
    5242:	96 95       	lsr	r25
    5244:	96 95       	lsr	r25
    5246:	e9 0f       	add	r30, r25
    5248:	ff 27       	eor	r31, r31
    524a:	e8 58       	subi	r30, 0x88	; 136
    524c:	fe 4e       	sbci	r31, 0xEE	; 238
    524e:	99 27       	eor	r25, r25
    5250:	33 27       	eor	r19, r19
    5252:	ee 24       	eor	r14, r14
    5254:	ff 24       	eor	r15, r15
    5256:	a7 01       	movw	r20, r14
    5258:	e7 01       	movw	r28, r14
    525a:	05 90       	lpm	r0, Z+
    525c:	08 94       	sec
    525e:	07 94       	ror	r0
    5260:	28 f4       	brcc	.+10     	; 0x526c <__ftoa_engine+0x80>
    5262:	36 0f       	add	r19, r22
    5264:	e7 1e       	adc	r14, r23
    5266:	f8 1e       	adc	r15, r24
    5268:	49 1f       	adc	r20, r25
    526a:	51 1d       	adc	r21, r1
    526c:	66 0f       	add	r22, r22
    526e:	77 1f       	adc	r23, r23
    5270:	88 1f       	adc	r24, r24
    5272:	99 1f       	adc	r25, r25
    5274:	06 94       	lsr	r0
    5276:	a1 f7       	brne	.-24     	; 0x5260 <__ftoa_engine+0x74>
    5278:	05 90       	lpm	r0, Z+
    527a:	07 94       	ror	r0
    527c:	28 f4       	brcc	.+10     	; 0x5288 <__ftoa_engine+0x9c>
    527e:	e7 0e       	add	r14, r23
    5280:	f8 1e       	adc	r15, r24
    5282:	49 1f       	adc	r20, r25
    5284:	56 1f       	adc	r21, r22
    5286:	c1 1d       	adc	r28, r1
    5288:	77 0f       	add	r23, r23
    528a:	88 1f       	adc	r24, r24
    528c:	99 1f       	adc	r25, r25
    528e:	66 1f       	adc	r22, r22
    5290:	06 94       	lsr	r0
    5292:	a1 f7       	brne	.-24     	; 0x527c <__ftoa_engine+0x90>
    5294:	05 90       	lpm	r0, Z+
    5296:	07 94       	ror	r0
    5298:	28 f4       	brcc	.+10     	; 0x52a4 <__ftoa_engine+0xb8>
    529a:	f8 0e       	add	r15, r24
    529c:	49 1f       	adc	r20, r25
    529e:	56 1f       	adc	r21, r22
    52a0:	c7 1f       	adc	r28, r23
    52a2:	d1 1d       	adc	r29, r1
    52a4:	88 0f       	add	r24, r24
    52a6:	99 1f       	adc	r25, r25
    52a8:	66 1f       	adc	r22, r22
    52aa:	77 1f       	adc	r23, r23
    52ac:	06 94       	lsr	r0
    52ae:	a1 f7       	brne	.-24     	; 0x5298 <__ftoa_engine+0xac>
    52b0:	05 90       	lpm	r0, Z+
    52b2:	07 94       	ror	r0
    52b4:	20 f4       	brcc	.+8      	; 0x52be <__ftoa_engine+0xd2>
    52b6:	49 0f       	add	r20, r25
    52b8:	56 1f       	adc	r21, r22
    52ba:	c7 1f       	adc	r28, r23
    52bc:	d8 1f       	adc	r29, r24
    52be:	99 0f       	add	r25, r25
    52c0:	66 1f       	adc	r22, r22
    52c2:	77 1f       	adc	r23, r23
    52c4:	88 1f       	adc	r24, r24
    52c6:	06 94       	lsr	r0
    52c8:	a9 f7       	brne	.-22     	; 0x52b4 <__ftoa_engine+0xc8>
    52ca:	84 91       	lpm	r24, Z+
    52cc:	10 95       	com	r17
    52ce:	17 70       	andi	r17, 0x07	; 7
    52d0:	41 f0       	breq	.+16     	; 0x52e2 <__ftoa_engine+0xf6>
    52d2:	d6 95       	lsr	r29
    52d4:	c7 95       	ror	r28
    52d6:	57 95       	ror	r21
    52d8:	47 95       	ror	r20
    52da:	f7 94       	ror	r15
    52dc:	e7 94       	ror	r14
    52de:	1a 95       	dec	r17
    52e0:	c1 f7       	brne	.-16     	; 0x52d2 <__ftoa_engine+0xe6>
    52e2:	ee e1       	ldi	r30, 0x1E	; 30
    52e4:	f1 e1       	ldi	r31, 0x11	; 17
    52e6:	68 94       	set
    52e8:	15 90       	lpm	r1, Z+
    52ea:	15 91       	lpm	r17, Z+
    52ec:	35 91       	lpm	r19, Z+
    52ee:	65 91       	lpm	r22, Z+
    52f0:	95 91       	lpm	r25, Z+
    52f2:	05 90       	lpm	r0, Z+
    52f4:	7f e2       	ldi	r23, 0x2F	; 47
    52f6:	73 95       	inc	r23
    52f8:	e1 18       	sub	r14, r1
    52fa:	f1 0a       	sbc	r15, r17
    52fc:	43 0b       	sbc	r20, r19
    52fe:	56 0b       	sbc	r21, r22
    5300:	c9 0b       	sbc	r28, r25
    5302:	d0 09       	sbc	r29, r0
    5304:	c0 f7       	brcc	.-16     	; 0x52f6 <__ftoa_engine+0x10a>
    5306:	e1 0c       	add	r14, r1
    5308:	f1 1e       	adc	r15, r17
    530a:	43 1f       	adc	r20, r19
    530c:	56 1f       	adc	r21, r22
    530e:	c9 1f       	adc	r28, r25
    5310:	d0 1d       	adc	r29, r0
    5312:	7e f4       	brtc	.+30     	; 0x5332 <__ftoa_engine+0x146>
    5314:	70 33       	cpi	r23, 0x30	; 48
    5316:	11 f4       	brne	.+4      	; 0x531c <__ftoa_engine+0x130>
    5318:	8a 95       	dec	r24
    531a:	e6 cf       	rjmp	.-52     	; 0x52e8 <__ftoa_engine+0xfc>
    531c:	e8 94       	clt
    531e:	01 50       	subi	r16, 0x01	; 1
    5320:	30 f0       	brcs	.+12     	; 0x532e <__ftoa_engine+0x142>
    5322:	08 0f       	add	r16, r24
    5324:	0a f4       	brpl	.+2      	; 0x5328 <__ftoa_engine+0x13c>
    5326:	00 27       	eor	r16, r16
    5328:	02 17       	cp	r16, r18
    532a:	08 f4       	brcc	.+2      	; 0x532e <__ftoa_engine+0x142>
    532c:	20 2f       	mov	r18, r16
    532e:	23 95       	inc	r18
    5330:	02 2f       	mov	r16, r18
    5332:	7a 33       	cpi	r23, 0x3A	; 58
    5334:	28 f0       	brcs	.+10     	; 0x5340 <__ftoa_engine+0x154>
    5336:	79 e3       	ldi	r23, 0x39	; 57
    5338:	7d 93       	st	X+, r23
    533a:	2a 95       	dec	r18
    533c:	e9 f7       	brne	.-6      	; 0x5338 <__ftoa_engine+0x14c>
    533e:	10 c0       	rjmp	.+32     	; 0x5360 <__ftoa_engine+0x174>
    5340:	7d 93       	st	X+, r23
    5342:	2a 95       	dec	r18
    5344:	89 f6       	brne	.-94     	; 0x52e8 <__ftoa_engine+0xfc>
    5346:	06 94       	lsr	r0
    5348:	97 95       	ror	r25
    534a:	67 95       	ror	r22
    534c:	37 95       	ror	r19
    534e:	17 95       	ror	r17
    5350:	17 94       	ror	r1
    5352:	e1 18       	sub	r14, r1
    5354:	f1 0a       	sbc	r15, r17
    5356:	43 0b       	sbc	r20, r19
    5358:	56 0b       	sbc	r21, r22
    535a:	c9 0b       	sbc	r28, r25
    535c:	d0 09       	sbc	r29, r0
    535e:	98 f0       	brcs	.+38     	; 0x5386 <__ftoa_engine+0x19a>
    5360:	23 95       	inc	r18
    5362:	7e 91       	ld	r23, -X
    5364:	73 95       	inc	r23
    5366:	7a 33       	cpi	r23, 0x3A	; 58
    5368:	08 f0       	brcs	.+2      	; 0x536c <__ftoa_engine+0x180>
    536a:	70 e3       	ldi	r23, 0x30	; 48
    536c:	7c 93       	st	X, r23
    536e:	20 13       	cpse	r18, r16
    5370:	b8 f7       	brcc	.-18     	; 0x5360 <__ftoa_engine+0x174>
    5372:	7e 91       	ld	r23, -X
    5374:	70 61       	ori	r23, 0x10	; 16
    5376:	7d 93       	st	X+, r23
    5378:	30 f0       	brcs	.+12     	; 0x5386 <__ftoa_engine+0x19a>
    537a:	83 95       	inc	r24
    537c:	71 e3       	ldi	r23, 0x31	; 49
    537e:	7d 93       	st	X+, r23
    5380:	70 e3       	ldi	r23, 0x30	; 48
    5382:	2a 95       	dec	r18
    5384:	e1 f7       	brne	.-8      	; 0x537e <__ftoa_engine+0x192>
    5386:	11 24       	eor	r1, r1
    5388:	ef 90       	pop	r14
    538a:	ff 90       	pop	r15
    538c:	0f 91       	pop	r16
    538e:	1f 91       	pop	r17
    5390:	cf 91       	pop	r28
    5392:	df 91       	pop	r29
    5394:	99 27       	eor	r25, r25
    5396:	87 fd       	sbrc	r24, 7
    5398:	90 95       	com	r25
    539a:	08 95       	ret

0000539c <strnlen_P>:
    539c:	fc 01       	movw	r30, r24
    539e:	05 90       	lpm	r0, Z+
    53a0:	61 50       	subi	r22, 0x01	; 1
    53a2:	70 40       	sbci	r23, 0x00	; 0
    53a4:	01 10       	cpse	r0, r1
    53a6:	d8 f7       	brcc	.-10     	; 0x539e <strnlen_P+0x2>
    53a8:	80 95       	com	r24
    53aa:	90 95       	com	r25
    53ac:	8e 0f       	add	r24, r30
    53ae:	9f 1f       	adc	r25, r31
    53b0:	08 95       	ret

000053b2 <strnlen>:
    53b2:	fc 01       	movw	r30, r24
    53b4:	61 50       	subi	r22, 0x01	; 1
    53b6:	70 40       	sbci	r23, 0x00	; 0
    53b8:	01 90       	ld	r0, Z+
    53ba:	01 10       	cpse	r0, r1
    53bc:	d8 f7       	brcc	.-10     	; 0x53b4 <strnlen+0x2>
    53be:	80 95       	com	r24
    53c0:	90 95       	com	r25
    53c2:	8e 0f       	add	r24, r30
    53c4:	9f 1f       	adc	r25, r31
    53c6:	08 95       	ret

000053c8 <fputc>:
    53c8:	0f 93       	push	r16
    53ca:	1f 93       	push	r17
    53cc:	cf 93       	push	r28
    53ce:	df 93       	push	r29
    53d0:	8c 01       	movw	r16, r24
    53d2:	eb 01       	movw	r28, r22
    53d4:	8b 81       	ldd	r24, Y+3	; 0x03
    53d6:	81 ff       	sbrs	r24, 1
    53d8:	1b c0       	rjmp	.+54     	; 0x5410 <fputc+0x48>
    53da:	82 ff       	sbrs	r24, 2
    53dc:	0d c0       	rjmp	.+26     	; 0x53f8 <fputc+0x30>
    53de:	2e 81       	ldd	r18, Y+6	; 0x06
    53e0:	3f 81       	ldd	r19, Y+7	; 0x07
    53e2:	8c 81       	ldd	r24, Y+4	; 0x04
    53e4:	9d 81       	ldd	r25, Y+5	; 0x05
    53e6:	28 17       	cp	r18, r24
    53e8:	39 07       	cpc	r19, r25
    53ea:	64 f4       	brge	.+24     	; 0x5404 <fputc+0x3c>
    53ec:	e8 81       	ld	r30, Y
    53ee:	f9 81       	ldd	r31, Y+1	; 0x01
    53f0:	01 93       	st	Z+, r16
    53f2:	f9 83       	std	Y+1, r31	; 0x01
    53f4:	e8 83       	st	Y, r30
    53f6:	06 c0       	rjmp	.+12     	; 0x5404 <fputc+0x3c>
    53f8:	e8 85       	ldd	r30, Y+8	; 0x08
    53fa:	f9 85       	ldd	r31, Y+9	; 0x09
    53fc:	80 2f       	mov	r24, r16
    53fe:	09 95       	icall
    5400:	89 2b       	or	r24, r25
    5402:	31 f4       	brne	.+12     	; 0x5410 <fputc+0x48>
    5404:	8e 81       	ldd	r24, Y+6	; 0x06
    5406:	9f 81       	ldd	r25, Y+7	; 0x07
    5408:	01 96       	adiw	r24, 0x01	; 1
    540a:	9f 83       	std	Y+7, r25	; 0x07
    540c:	8e 83       	std	Y+6, r24	; 0x06
    540e:	02 c0       	rjmp	.+4      	; 0x5414 <fputc+0x4c>
    5410:	0f ef       	ldi	r16, 0xFF	; 255
    5412:	1f ef       	ldi	r17, 0xFF	; 255
    5414:	c8 01       	movw	r24, r16
    5416:	df 91       	pop	r29
    5418:	cf 91       	pop	r28
    541a:	1f 91       	pop	r17
    541c:	0f 91       	pop	r16
    541e:	08 95       	ret

00005420 <printf>:
    5420:	a0 e0       	ldi	r26, 0x00	; 0
    5422:	b0 e0       	ldi	r27, 0x00	; 0
    5424:	e6 e1       	ldi	r30, 0x16	; 22
    5426:	fa e2       	ldi	r31, 0x2A	; 42
    5428:	0c 94 bb 28 	jmp	0x5176	; 0x5176 <__prologue_saves__+0x20>
    542c:	fe 01       	movw	r30, r28
    542e:	35 96       	adiw	r30, 0x05	; 5
    5430:	61 91       	ld	r22, Z+
    5432:	71 91       	ld	r23, Z+
    5434:	80 91 d2 0e 	lds	r24, 0x0ED2
    5438:	90 91 d3 0e 	lds	r25, 0x0ED3
    543c:	af 01       	movw	r20, r30
    543e:	0e 94 64 23 	call	0x46c8	; 0x46c8 <vfprintf>
    5442:	20 96       	adiw	r28, 0x00	; 0
    5444:	e2 e0       	ldi	r30, 0x02	; 2
    5446:	0c 94 d7 28 	jmp	0x51ae	; 0x51ae <__epilogue_restores__+0x20>

0000544a <puts>:
    544a:	0f 93       	push	r16
    544c:	1f 93       	push	r17
    544e:	cf 93       	push	r28
    5450:	df 93       	push	r29
    5452:	8c 01       	movw	r16, r24
    5454:	e0 91 d2 0e 	lds	r30, 0x0ED2
    5458:	f0 91 d3 0e 	lds	r31, 0x0ED3
    545c:	83 81       	ldd	r24, Z+3	; 0x03
    545e:	81 ff       	sbrs	r24, 1
    5460:	21 c0       	rjmp	.+66     	; 0x54a4 <puts+0x5a>
    5462:	c0 e0       	ldi	r28, 0x00	; 0
    5464:	d0 e0       	ldi	r29, 0x00	; 0
    5466:	0d c0       	rjmp	.+26     	; 0x5482 <puts+0x38>
    5468:	e0 91 d2 0e 	lds	r30, 0x0ED2
    546c:	f0 91 d3 0e 	lds	r31, 0x0ED3
    5470:	20 85       	ldd	r18, Z+8	; 0x08
    5472:	31 85       	ldd	r19, Z+9	; 0x09
    5474:	bf 01       	movw	r22, r30
    5476:	f9 01       	movw	r30, r18
    5478:	09 95       	icall
    547a:	89 2b       	or	r24, r25
    547c:	11 f0       	breq	.+4      	; 0x5482 <puts+0x38>
    547e:	cf ef       	ldi	r28, 0xFF	; 255
    5480:	df ef       	ldi	r29, 0xFF	; 255
    5482:	f8 01       	movw	r30, r16
    5484:	81 91       	ld	r24, Z+
    5486:	8f 01       	movw	r16, r30
    5488:	88 23       	and	r24, r24
    548a:	71 f7       	brne	.-36     	; 0x5468 <puts+0x1e>
    548c:	e0 91 d2 0e 	lds	r30, 0x0ED2
    5490:	f0 91 d3 0e 	lds	r31, 0x0ED3
    5494:	20 85       	ldd	r18, Z+8	; 0x08
    5496:	31 85       	ldd	r19, Z+9	; 0x09
    5498:	8a e0       	ldi	r24, 0x0A	; 10
    549a:	bf 01       	movw	r22, r30
    549c:	f9 01       	movw	r30, r18
    549e:	09 95       	icall
    54a0:	89 2b       	or	r24, r25
    54a2:	11 f0       	breq	.+4      	; 0x54a8 <puts+0x5e>
    54a4:	cf ef       	ldi	r28, 0xFF	; 255
    54a6:	df ef       	ldi	r29, 0xFF	; 255
    54a8:	ce 01       	movw	r24, r28
    54aa:	df 91       	pop	r29
    54ac:	cf 91       	pop	r28
    54ae:	1f 91       	pop	r17
    54b0:	0f 91       	pop	r16
    54b2:	08 95       	ret

000054b4 <sprintf>:
    54b4:	ae e0       	ldi	r26, 0x0E	; 14
    54b6:	b0 e0       	ldi	r27, 0x00	; 0
    54b8:	e0 e6       	ldi	r30, 0x60	; 96
    54ba:	fa e2       	ldi	r31, 0x2A	; 42
    54bc:	0c 94 b9 28 	jmp	0x5172	; 0x5172 <__prologue_saves__+0x1c>
    54c0:	0d 89       	ldd	r16, Y+21	; 0x15
    54c2:	1e 89       	ldd	r17, Y+22	; 0x16
    54c4:	86 e0       	ldi	r24, 0x06	; 6
    54c6:	8c 83       	std	Y+4, r24	; 0x04
    54c8:	1a 83       	std	Y+2, r17	; 0x02
    54ca:	09 83       	std	Y+1, r16	; 0x01
    54cc:	8f ef       	ldi	r24, 0xFF	; 255
    54ce:	9f e7       	ldi	r25, 0x7F	; 127
    54d0:	9e 83       	std	Y+6, r25	; 0x06
    54d2:	8d 83       	std	Y+5, r24	; 0x05
    54d4:	9e 01       	movw	r18, r28
    54d6:	27 5e       	subi	r18, 0xE7	; 231
    54d8:	3f 4f       	sbci	r19, 0xFF	; 255
    54da:	ce 01       	movw	r24, r28
    54dc:	01 96       	adiw	r24, 0x01	; 1
    54de:	6f 89       	ldd	r22, Y+23	; 0x17
    54e0:	78 8d       	ldd	r23, Y+24	; 0x18
    54e2:	a9 01       	movw	r20, r18
    54e4:	0e 94 64 23 	call	0x46c8	; 0x46c8 <vfprintf>
    54e8:	2f 81       	ldd	r18, Y+7	; 0x07
    54ea:	38 85       	ldd	r19, Y+8	; 0x08
    54ec:	02 0f       	add	r16, r18
    54ee:	13 1f       	adc	r17, r19
    54f0:	f8 01       	movw	r30, r16
    54f2:	10 82       	st	Z, r1
    54f4:	2e 96       	adiw	r28, 0x0e	; 14
    54f6:	e4 e0       	ldi	r30, 0x04	; 4
    54f8:	0c 94 d5 28 	jmp	0x51aa	; 0x51aa <__epilogue_restores__+0x1c>

000054fc <__ultoa_invert>:
    54fc:	fa 01       	movw	r30, r20
    54fe:	aa 27       	eor	r26, r26
    5500:	28 30       	cpi	r18, 0x08	; 8
    5502:	51 f1       	breq	.+84     	; 0x5558 <__ultoa_invert+0x5c>
    5504:	20 31       	cpi	r18, 0x10	; 16
    5506:	81 f1       	breq	.+96     	; 0x5568 <__ultoa_invert+0x6c>
    5508:	e8 94       	clt
    550a:	6f 93       	push	r22
    550c:	6e 7f       	andi	r22, 0xFE	; 254
    550e:	6e 5f       	subi	r22, 0xFE	; 254
    5510:	7f 4f       	sbci	r23, 0xFF	; 255
    5512:	8f 4f       	sbci	r24, 0xFF	; 255
    5514:	9f 4f       	sbci	r25, 0xFF	; 255
    5516:	af 4f       	sbci	r26, 0xFF	; 255
    5518:	b1 e0       	ldi	r27, 0x01	; 1
    551a:	3e d0       	rcall	.+124    	; 0x5598 <__ultoa_invert+0x9c>
    551c:	b4 e0       	ldi	r27, 0x04	; 4
    551e:	3c d0       	rcall	.+120    	; 0x5598 <__ultoa_invert+0x9c>
    5520:	67 0f       	add	r22, r23
    5522:	78 1f       	adc	r23, r24
    5524:	89 1f       	adc	r24, r25
    5526:	9a 1f       	adc	r25, r26
    5528:	a1 1d       	adc	r26, r1
    552a:	68 0f       	add	r22, r24
    552c:	79 1f       	adc	r23, r25
    552e:	8a 1f       	adc	r24, r26
    5530:	91 1d       	adc	r25, r1
    5532:	a1 1d       	adc	r26, r1
    5534:	6a 0f       	add	r22, r26
    5536:	71 1d       	adc	r23, r1
    5538:	81 1d       	adc	r24, r1
    553a:	91 1d       	adc	r25, r1
    553c:	a1 1d       	adc	r26, r1
    553e:	20 d0       	rcall	.+64     	; 0x5580 <__ultoa_invert+0x84>
    5540:	09 f4       	brne	.+2      	; 0x5544 <__ultoa_invert+0x48>
    5542:	68 94       	set
    5544:	3f 91       	pop	r19
    5546:	2a e0       	ldi	r18, 0x0A	; 10
    5548:	26 9f       	mul	r18, r22
    554a:	11 24       	eor	r1, r1
    554c:	30 19       	sub	r19, r0
    554e:	30 5d       	subi	r19, 0xD0	; 208
    5550:	31 93       	st	Z+, r19
    5552:	de f6       	brtc	.-74     	; 0x550a <__ultoa_invert+0xe>
    5554:	cf 01       	movw	r24, r30
    5556:	08 95       	ret
    5558:	46 2f       	mov	r20, r22
    555a:	47 70       	andi	r20, 0x07	; 7
    555c:	40 5d       	subi	r20, 0xD0	; 208
    555e:	41 93       	st	Z+, r20
    5560:	b3 e0       	ldi	r27, 0x03	; 3
    5562:	0f d0       	rcall	.+30     	; 0x5582 <__ultoa_invert+0x86>
    5564:	c9 f7       	brne	.-14     	; 0x5558 <__ultoa_invert+0x5c>
    5566:	f6 cf       	rjmp	.-20     	; 0x5554 <__ultoa_invert+0x58>
    5568:	46 2f       	mov	r20, r22
    556a:	4f 70       	andi	r20, 0x0F	; 15
    556c:	40 5d       	subi	r20, 0xD0	; 208
    556e:	4a 33       	cpi	r20, 0x3A	; 58
    5570:	18 f0       	brcs	.+6      	; 0x5578 <__ultoa_invert+0x7c>
    5572:	49 5d       	subi	r20, 0xD9	; 217
    5574:	31 fd       	sbrc	r19, 1
    5576:	40 52       	subi	r20, 0x20	; 32
    5578:	41 93       	st	Z+, r20
    557a:	02 d0       	rcall	.+4      	; 0x5580 <__ultoa_invert+0x84>
    557c:	a9 f7       	brne	.-22     	; 0x5568 <__ultoa_invert+0x6c>
    557e:	ea cf       	rjmp	.-44     	; 0x5554 <__ultoa_invert+0x58>
    5580:	b4 e0       	ldi	r27, 0x04	; 4
    5582:	a6 95       	lsr	r26
    5584:	97 95       	ror	r25
    5586:	87 95       	ror	r24
    5588:	77 95       	ror	r23
    558a:	67 95       	ror	r22
    558c:	ba 95       	dec	r27
    558e:	c9 f7       	brne	.-14     	; 0x5582 <__ultoa_invert+0x86>
    5590:	00 97       	sbiw	r24, 0x00	; 0
    5592:	61 05       	cpc	r22, r1
    5594:	71 05       	cpc	r23, r1
    5596:	08 95       	ret
    5598:	9b 01       	movw	r18, r22
    559a:	ac 01       	movw	r20, r24
    559c:	0a 2e       	mov	r0, r26
    559e:	06 94       	lsr	r0
    55a0:	57 95       	ror	r21
    55a2:	47 95       	ror	r20
    55a4:	37 95       	ror	r19
    55a6:	27 95       	ror	r18
    55a8:	ba 95       	dec	r27
    55aa:	c9 f7       	brne	.-14     	; 0x559e <__ultoa_invert+0xa2>
    55ac:	62 0f       	add	r22, r18
    55ae:	73 1f       	adc	r23, r19
    55b0:	84 1f       	adc	r24, r20
    55b2:	95 1f       	adc	r25, r21
    55b4:	a0 1d       	adc	r26, r0
    55b6:	08 95       	ret

000055b8 <_exit>:
    55b8:	f8 94       	cli

000055ba <__stop_program>:
    55ba:	ff cf       	rjmp	.-2      	; 0x55ba <__stop_program>

Disassembly of section .bootloader:

0000e000 <boot_program_page>:
}



void boot_program_page (uint32_t page, uint8_t *buf)
{
    e000:	0f 93       	push	r16
    e002:	1f 93       	push	r17
    e004:	cf 93       	push	r28
    e006:	df 93       	push	r29
    e008:	da 01       	movw	r26, r20
    uint16_t i;
    uint8_t sreg;

    // Disable interrupts.

    sreg = SREG;
    e00a:	0f b7       	in	r16, 0x3f	; 63
    cli();
    e00c:	f8 94       	cli
   
    eeprom_busy_wait ();
    e00e:	e1 99       	sbic	0x1c, 1	; 28
    e010:	fe cf       	rjmp	.-4      	; 0xe00e <boot_program_page+0xe>

    boot_page_erase (page);
    e012:	ab 01       	movw	r20, r22
    e014:	83 e0       	ldi	r24, 0x03	; 3
    e016:	fb 01       	movw	r30, r22
    e018:	80 93 68 00 	sts	0x0068, r24
    e01c:	e8 95       	spm
    boot_spm_busy_wait ();      // Wait until the memory is erased.
    e01e:	80 91 68 00 	lds	r24, 0x0068
    e022:	80 fd       	sbrc	r24, 0
    e024:	fc cf       	rjmp	.-8      	; 0xe01e <boot_program_page+0x1e>
    e026:	fa 01       	movw	r30, r20
       // Set up little-endian word.

        uint16_t w = *buf++;
        w += (*buf++) << 8;
       
        boot_page_fill (page + i, w);
    e028:	11 e0       	ldi	r17, 0x01	; 1
    eeprom_busy_wait ();

    boot_page_erase (page);
    boot_spm_busy_wait ();      // Wait until the memory is erased.

    for (i=0; i<SPM_PAGESIZE; i+=2)
    e02a:	ba 01       	movw	r22, r20
    e02c:	60 50       	subi	r22, 0x00	; 0
    e02e:	7f 4f       	sbci	r23, 0xFF	; 255
    {
       // Set up little-endian word.

        uint16_t w = *buf++;
    e030:	8c 91       	ld	r24, X
        w += (*buf++) << 8;
    e032:	11 96       	adiw	r26, 0x01	; 1
    e034:	3c 91       	ld	r19, X
    e036:	11 97       	sbiw	r26, 0x01	; 1
    e038:	20 e0       	ldi	r18, 0x00	; 0
    e03a:	e9 01       	movw	r28, r18
    e03c:	c8 0f       	add	r28, r24
    e03e:	d1 1d       	adc	r29, r1
}



void boot_program_page (uint32_t page, uint8_t *buf)
{
    e040:	12 96       	adiw	r26, 0x02	; 2
       // Set up little-endian word.

        uint16_t w = *buf++;
        w += (*buf++) << 8;
       
        boot_page_fill (page + i, w);
    e042:	0e 01       	movw	r0, r28
    e044:	10 93 68 00 	sts	0x0068, r17
    e048:	e8 95       	spm
    e04a:	11 24       	eor	r1, r1
    e04c:	32 96       	adiw	r30, 0x02	; 2
    eeprom_busy_wait ();

    boot_page_erase (page);
    boot_spm_busy_wait ();      // Wait until the memory is erased.

    for (i=0; i<SPM_PAGESIZE; i+=2)
    e04e:	e6 17       	cp	r30, r22
    e050:	f7 07       	cpc	r31, r23
    e052:	71 f7       	brne	.-36     	; 0xe030 <boot_program_page+0x30>
        w += (*buf++) << 8;
       
        boot_page_fill (page + i, w);
    }

    boot_page_write (page);     // Store buffer in flash page.
    e054:	85 e0       	ldi	r24, 0x05	; 5
    e056:	fa 01       	movw	r30, r20
    e058:	80 93 68 00 	sts	0x0068, r24
    e05c:	e8 95       	spm
    boot_spm_busy_wait();       // Wait until the memory is written.
    e05e:	80 91 68 00 	lds	r24, 0x0068
    e062:	80 fd       	sbrc	r24, 0
    e064:	fc cf       	rjmp	.-8      	; 0xe05e <boot_program_page+0x5e>

    // Reenable RWW-section again. We need this if we want to jump back
    // to the application after bootloading.

    boot_rww_enable ();
    e066:	81 e1       	ldi	r24, 0x11	; 17
    e068:	80 93 68 00 	sts	0x0068, r24
    e06c:	e8 95       	spm
 
    // Re-enable interrupts (if they were ever enabled).
   sei();
    e06e:	78 94       	sei

    SREG = sreg;
    e070:	0f bf       	out	0x3f, r16	; 63
} 
    e072:	df 91       	pop	r29
    e074:	cf 91       	pop	r28
    e076:	1f 91       	pop	r17
    e078:	0f 91       	pop	r16
    e07a:	08 95       	ret
